
main.elf:     file format elf32-littlearm

Sections:
Idx Name          Size      VMA       LMA       File off  Algn
  0 .text         00009840  00010000  00010000  00008000  2**2
                  CONTENTS, ALLOC, LOAD, READONLY, CODE
  1 .data         00000894  40000000  00019840  00018000  2**2
                  CONTENTS, ALLOC, LOAD, DATA
  2 .bss          000009e0  40000894  0001a0d4  00018894  2**2
                  ALLOC
  3 .stack        00000c00  40001300  40001300  000188a0  2**4
                  CONTENTS
  4 .comment      00000333  00000000  00000000  000194a0  2**0
                  CONTENTS, READONLY
  5 .debug_aranges 00000508  00000000  00000000  000197d8  2**3
                  CONTENTS, READONLY, DEBUGGING
  6 .debug_pubnames 00001130  00000000  00000000  00019ce0  2**0
                  CONTENTS, READONLY, DEBUGGING
  7 .debug_info   0000addf  00000000  00000000  0001ae10  2**0
                  CONTENTS, READONLY, DEBUGGING
  8 .debug_abbrev 00002df9  00000000  00000000  00025bef  2**0
                  CONTENTS, READONLY, DEBUGGING
  9 .debug_line   00003919  00000000  00000000  000289e8  2**0
                  CONTENTS, READONLY, DEBUGGING
 10 .debug_frame  00001738  00000000  00000000  0002c304  2**2
                  CONTENTS, READONLY, DEBUGGING
 11 .debug_str    00002b45  00000000  00000000  0002da3c  2**0
                  CONTENTS, READONLY, DEBUGGING
 12 .debug_loc    000052c0  00000000  00000000  00030581  2**0
                  CONTENTS, READONLY, DEBUGGING
 13 .debug_ranges 00000810  00000000  00000000  00035841  2**0
                  CONTENTS, READONLY, DEBUGGING
 14 .ARM.attributes 00000010  00000000  00000000  00036051  2**0
                  CONTENTS, READONLY

Disassembly of section .text:

00010000 <__Vectors>:
   10000:	e59ff018 	ldr	pc, [pc, #24]	; 10020 <Reset_Addr>
   10004:	e59ff018 	ldr	pc, [pc, #24]	; 10024 <Undef_Addr>
   10008:	e59ff018 	ldr	pc, [pc, #24]	; 10028 <SWI_Addr>
   1000c:	e59ff018 	ldr	pc, [pc, #24]	; 1002c <PAbt_Addr>
   10010:	e59ff018 	ldr	pc, [pc, #24]	; 10030 <DAbt_Addr>
   10014:	e1a00000 	nop			(mov r0,r0)
   10018:	e59ff018 	ldr	pc, [pc, #24]	; 10038 <IRQ_Wrapper_Addr>
   1001c:	e59ff018 	ldr	pc, [pc, #24]	; 1003c <FIQ_Addr>

00010020 <Reset_Addr>:
   10020:	00010098 	.word	0x00010098

00010024 <Undef_Addr>:
   10024:	00010040 	.word	0x00010040

00010028 <SWI_Addr>:
   10028:	00000000 	.word	0x00000000

0001002c <PAbt_Addr>:
   1002c:	00010044 	.word	0x00010044

00010030 <DAbt_Addr>:
   10030:	00010048 	.word	0x00010048
   10034:	00000000 	.word	0x00000000

00010038 <IRQ_Wrapper_Addr>:
   10038:	00010050 	.word	0x00010050

0001003c <FIQ_Addr>:
   1003c:	0001004c 	.word	0x0001004c

00010040 <Undef_Handler>:
   10040:	eafffffe 	b	10040 <Undef_Handler>

00010044 <PAbt_Handler>:
   10044:	eafffffe 	b	10044 <PAbt_Handler>

00010048 <DAbt_Handler>:
   10048:	eafffffe 	b	10048 <DAbt_Handler>

0001004c <FIQ_Handler>:
   1004c:	eafffffe 	b	1004c <FIQ_Handler>

00010050 <__IRQ_Wrapper>:
   10050:	e24ee004 	sub	lr, lr, #4	; 0x4
   10054:	e92d4000 	push	{lr}
   10058:	e14fe000 	mrs	lr, SPSR
   1005c:	e92d4000 	push	{lr}
   10060:	e92d0001 	push	{r0}
   10064:	e59fe028 	ldr	lr, [pc, #40]	; 10094 <__IRQ_Wrapper+0x44>
   10068:	e59e0030 	ldr	r0, [lr, #48]
   1006c:	e321f013 	msr	CPSR_c, #19	; 0x13
   10070:	e92d5ffe 	push	{r1, r2, r3, r4, r5, r6, r7, r8, r9, sl, fp, ip, lr}
   10074:	e1a0e00f 	mov	lr, pc
   10078:	e12fff10 	bx	r0
   1007c:	e8bd5ffe 	pop	{r1, r2, r3, r4, r5, r6, r7, r8, r9, sl, fp, ip, lr}
   10080:	e321f092 	msr	CPSR_c, #146	; 0x92
   10084:	e8bd0001 	pop	{r0}
   10088:	e8bd4000 	pop	{lr}
   1008c:	e16ff00e 	msr	SPSR_fsxc, lr
   10090:	e8fd8000 	ldm	sp!, {pc}^
   10094:	fffff000 	.word	0xfffff000

00010098 <__startup>:
   10098:	e59f00c8 	ldr	r0, [pc, #200]	; 10168 <__exit_THUMB+0x4>
   1009c:	e321f0db 	msr	CPSR_c, #219	; 0xdb
   100a0:	e1a0d000 	mov	sp, r0
   100a4:	e2400080 	sub	r0, r0, #128	; 0x80
   100a8:	e321f0d7 	msr	CPSR_c, #215	; 0xd7
   100ac:	e1a0d000 	mov	sp, r0
   100b0:	e2400080 	sub	r0, r0, #128	; 0x80
   100b4:	e321f0d1 	msr	CPSR_c, #209	; 0xd1
   100b8:	e1a0d000 	mov	sp, r0
   100bc:	e2400080 	sub	r0, r0, #128	; 0x80
   100c0:	e321f0d2 	msr	CPSR_c, #210	; 0xd2
   100c4:	e1a0d000 	mov	sp, r0
   100c8:	e2400c02 	sub	r0, r0, #512	; 0x200
   100cc:	e321f0d3 	msr	CPSR_c, #211	; 0xd3
   100d0:	e1a0d000 	mov	sp, r0
   100d4:	e2400080 	sub	r0, r0, #128	; 0x80
   100d8:	e321f01f 	msr	CPSR_c, #31	; 0x1f
   100dc:	e1a0d000 	mov	sp, r0
   100e0:	e59f1084 	ldr	r1, [pc, #132]	; 1016c <__exit_THUMB+0x8>
   100e4:	e59f2084 	ldr	r2, [pc, #132]	; 10170 <__exit_THUMB+0xc>
   100e8:	e59f3084 	ldr	r3, [pc, #132]	; 10174 <__exit_THUMB+0x10>
   100ec:	e1520003 	cmp	r2, r3
   100f0:	0a000003 	beq	10104 <DataIsEmpty>

000100f4 <LoopRel>:
   100f4:	e1520003 	cmp	r2, r3
   100f8:	34910004 	ldrcc	r0, [r1], #4
   100fc:	34820004 	strcc	r0, [r2], #4
   10100:	3afffffb 	bcc	100f4 <LoopRel>

00010104 <DataIsEmpty>:
   10104:	e3a00000 	mov	r0, #0	; 0x0
   10108:	e59f1068 	ldr	r1, [pc, #104]	; 10178 <__exit_THUMB+0x14>
   1010c:	e59f2068 	ldr	r2, [pc, #104]	; 1017c <__exit_THUMB+0x18>
   10110:	e1510002 	cmp	r1, r2
   10114:	0a000002 	beq	10124 <BSSIsEmpty>

00010118 <LoopZI>:
   10118:	e1510002 	cmp	r1, r2
   1011c:	34810004 	strcc	r0, [r1], #4
   10120:	3afffffc 	bcc	10118 <LoopZI>

00010124 <BSSIsEmpty>:
   10124:	e59f0054 	ldr	r0, [pc, #84]	; 10180 <__exit_THUMB+0x1c>
   10128:	e59f1054 	ldr	r1, [pc, #84]	; 10184 <__exit_THUMB+0x20>

0001012c <ctor_loop>:
   1012c:	e1500001 	cmp	r0, r1
   10130:	0a000005 	beq	1014c <ctor_end>
   10134:	e4902004 	ldr	r2, [r0], #4
   10138:	e92d0003 	push	{r0, r1}
   1013c:	e1a0e00f 	mov	lr, pc
   10140:	e1a0f002 	mov	pc, r2
   10144:	e8bd0003 	pop	{r0, r1}
   10148:	eafffff7 	b	1012c <ctor_loop>

0001014c <ctor_end>:
   1014c:	e59f0034 	ldr	r0, [pc, #52]	; 10188 <__exit_THUMB+0x24>
   10150:	e3100001 	tst	r0, #1	; 0x1
   10154:	059fe030 	ldreq	lr, [pc, #48]	; 1018c <__exit_THUMB+0x28>
   10158:	159fe030 	ldrne	lr, [pc, #48]	; 10190 <__exit_THUMB+0x2c>
   1015c:	e12fff10 	bx	r0

00010160 <__exit_ARM>:
   10160:	eafffffe 	b	10160 <__exit_ARM>

00010164 <__exit_THUMB>:
   10164:	e7fe      	b.n	10164 <__exit_THUMB>
   10166:	0000      	.short	0x0000
   10168:	40001f00 	.word	0x40001f00
   1016c:	00019840 	.word	0x00019840
   10170:	40000000 	.word	0x40000000
   10174:	40000894 	.word	0x40000894
   10178:	40000894 	.word	0x40000894
   1017c:	40001274 	.word	0x40001274
   10180:	00019840 	.word	0x00019840
   10184:	00019840 	.word	0x00019840
   10188:	00011830 	.word	0x00011830
   1018c:	00010160 	.word	0x00010160
   10190:	00010164 	.word	0x00010164

00010194 <delay_ms>:
// Inputs: int count: Number of milliseconds to delay
// The function will cause the firmware to delay for "count" milleseconds.
void delay_ms(int count)
{
  int i;
  count *= 10000;
   10194:	e59f301c 	ldr	r3, [pc, #28]	; 101b8 <delay_ms+0x24>
   10198:	e0020093 	mul	r2, r3, r0
   1019c:	e3a03000 	mov	r3, #0	; 0x0
   101a0:	ea000001 	b	101ac <delay_ms+0x18>
  for (i = 0; i < count; i++) { asm volatile ("nop"); }
   101a4:	e1a00000 	nop			(mov r0,r0)
   101a8:	e2833001 	add	r3, r3, #1	; 0x1
   101ac:	e1530002 	cmp	r3, r2
   101b0:	bafffffb 	blt	101a4 <delay_ms+0x10>
}
   101b4:	e12fff1e 	bx	lr
   101b8:	00002710 	.word	0x00002710

000101bc <getButton>:
// Inputs:  None
// Outputs: None
// Function returns the value of the button that is currently being pressed.
// UP_BUT, DWN_BUT, and MID_BUT values can be viewed in MP3Dev.h
char getButton(void){
  if (!(IOPIN1 & SW_UP)) {
   101bc:	e59f2030 	ldr	r2, [pc, #48]	; 101f4 <getButton+0x38>
   101c0:	e5923010 	ldr	r3, [r2, #16]
   101c4:	e3130502 	tst	r3, #8388608	; 0x800000
   101c8:	03a00002 	moveq	r0, #2	; 0x2
   101cc:	012fff1e 	bxeq	lr
    return UP_BUT;
  } else if (!(IOPIN1 & SW_DWN)) {
   101d0:	e5923010 	ldr	r3, [r2, #16]
   101d4:	e3130602 	tst	r3, #2097152	; 0x200000
   101d8:	03a00001 	moveq	r0, #1	; 0x1
   101dc:	012fff1e 	bxeq	lr
    return DWN_BUT;
  } else if (!(IOPIN1 & SW_MID)) {
   101e0:	e5923010 	ldr	r3, [r2, #16]
   101e4:	e3130501 	tst	r3, #4194304	; 0x400000
   101e8:	03a00003 	moveq	r0, #3	; 0x3
   101ec:	13a00000 	movne	r0, #0	; 0x0
    return MID_BUT;
  }
  return NO_BUT;
}
   101f0:	e12fff1e 	bx	lr
   101f4:	e0028000 	.word	0xe0028000

000101f8 <getNewFiles>:


void getNewFiles(DisplayStruct *files, FileStruct *file_list){
   101f8:	e92d00f0 	push	{r4, r5, r6, r7}
  if(files->current_page < files->total_pages){
   101fc:	e5d02006 	ldrb	r2, [r0, #6]
   10200:	e5d03005 	ldrb	r3, [r0, #5]
   10204:	e1520003 	cmp	r2, r3
  }
  return NO_BUT;
}


void getNewFiles(DisplayStruct *files, FileStruct *file_list){
   10208:	e1a05001 	mov	r5, r1
  if(files->current_page < files->total_pages){
   1020c:	33a0c000 	movcc	ip, #0	; 0x0
    for(int i =0; i<NUMROWS; i++){
      for(int j=0; j<MAXFILENAMELEN; j++){
        files->list[i].file_name[j] = file_list[files->current_page*NUMROWS+i].file_name[j];
   10210:	33a0400f 	movcc	r4, #15	; 0xf
  return NO_BUT;
}


void getNewFiles(DisplayStruct *files, FileStruct *file_list){
  if(files->current_page < files->total_pages){
   10214:	3a000010 	bcc	1025c <getNewFiles+0x64>
        files->list[i].file_name[j] = file_list[files->current_page*NUMROWS+i].file_name[j];
      }
    }
  }
  else{
    for(int i=0; i<(NUMBEROFFILES-files->total_pages*NUMROWS); i++){
   10218:	e59f30b8 	ldr	r3, [pc, #184]	; 102d8 <getNewFiles+0xe0>
   1021c:	e3a0c000 	mov	ip, #0	; 0x0
   10220:	e5934000 	ldr	r4, [r3]
   10224:	e3e0700e 	mvn	r7, #14	; 0xe
      for(int j=0; j<MAXFILENAMELEN; j++){
        files->list[i].file_name[j] = file_list[files->current_page*NUMROWS+i].file_name[j];
   10228:	e3a0600f 	mov	r6, #15	; 0xf
   1022c:	ea000017 	b	10290 <getNewFiles+0x98>

void getNewFiles(DisplayStruct *files, FileStruct *file_list){
  if(files->current_page < files->total_pages){
    for(int i =0; i<NUMROWS; i++){
      for(int j=0; j<MAXFILENAMELEN; j++){
        files->list[i].file_name[j] = file_list[files->current_page*NUMROWS+i].file_name[j];
   10230:	e5d03006 	ldrb	r3, [r0, #6]
   10234:	e023c394 	mla	r3, r4, r3, ip
   10238:	e0853283 	add	r3, r5, r3, lsl #5
   1023c:	e7d33002 	ldrb	r3, [r3, r2]


void getNewFiles(DisplayStruct *files, FileStruct *file_list){
  if(files->current_page < files->total_pages){
    for(int i =0; i<NUMROWS; i++){
      for(int j=0; j<MAXFILENAMELEN; j++){
   10240:	e2822001 	add	r2, r2, #1	; 0x1
   10244:	e352001e 	cmp	r2, #30	; 0x1e
        files->list[i].file_name[j] = file_list[files->current_page*NUMROWS+i].file_name[j];
   10248:	e4c13001 	strb	r3, [r1], #1


void getNewFiles(DisplayStruct *files, FileStruct *file_list){
  if(files->current_page < files->total_pages){
    for(int i =0; i<NUMROWS; i++){
      for(int j=0; j<MAXFILENAMELEN; j++){
   1024c:	1afffff7 	bne	10230 <getNewFiles+0x38>
}


void getNewFiles(DisplayStruct *files, FileStruct *file_list){
  if(files->current_page < files->total_pages){
    for(int i =0; i<NUMROWS; i++){
   10250:	e28cc001 	add	ip, ip, #1	; 0x1
   10254:	e35c000f 	cmp	ip, #15	; 0xf
   10258:	0a00001c 	beq	102d0 <getNewFiles+0xd8>
   1025c:	e080328c 	add	r3, r0, ip, lsl #5
   10260:	e283100c 	add	r1, r3, #12	; 0xc
   10264:	e3a02000 	mov	r2, #0	; 0x0
   10268:	eafffff0 	b	10230 <getNewFiles+0x38>
    }
  }
  else{
    for(int i=0; i<(NUMBEROFFILES-files->total_pages*NUMROWS); i++){
      for(int j=0; j<MAXFILENAMELEN; j++){
        files->list[i].file_name[j] = file_list[files->current_page*NUMROWS+i].file_name[j];
   1026c:	e5d03006 	ldrb	r3, [r0, #6]
   10270:	e023c396 	mla	r3, r6, r3, ip
   10274:	e0853283 	add	r3, r5, r3, lsl #5
   10278:	e7d33002 	ldrb	r3, [r3, r2]
      }
    }
  }
  else{
    for(int i=0; i<(NUMBEROFFILES-files->total_pages*NUMROWS); i++){
      for(int j=0; j<MAXFILENAMELEN; j++){
   1027c:	e2822001 	add	r2, r2, #1	; 0x1
   10280:	e352001e 	cmp	r2, #30	; 0x1e
        files->list[i].file_name[j] = file_list[files->current_page*NUMROWS+i].file_name[j];
   10284:	e4c13001 	strb	r3, [r1], #1
      }
    }
  }
  else{
    for(int i=0; i<(NUMBEROFFILES-files->total_pages*NUMROWS); i++){
      for(int j=0; j<MAXFILENAMELEN; j++){
   10288:	1afffff7 	bne	1026c <getNewFiles+0x74>
        files->list[i].file_name[j] = file_list[files->current_page*NUMROWS+i].file_name[j];
      }
    }
  }
  else{
    for(int i=0; i<(NUMBEROFFILES-files->total_pages*NUMROWS); i++){
   1028c:	e28cc001 	add	ip, ip, #1	; 0x1
   10290:	e5d03005 	ldrb	r3, [r0, #5]
   10294:	e0224397 	mla	r2, r7, r3, r4
   10298:	e15c0002 	cmp	ip, r2
   1029c:	a0803282 	addge	r3, r0, r2, lsl #5
   102a0:	a283000c 	addge	r0, r3, #12	; 0xc
      for(int j=0; j<MAXFILENAMELEN; j++){
        files->list[i].file_name[j] = file_list[files->current_page*NUMROWS+i].file_name[j];
      }
    }
    for(int i=(NUMBEROFFILES-files->total_pages*NUMROWS); i<NUMROWS; i++)files->list[i].file_name[0]='\0';
   102a4:	a3a03000 	movge	r3, #0	; 0x0
   102a8:	aa000004 	bge	102c0 <getNewFiles+0xc8>
        files->list[i].file_name[j] = file_list[files->current_page*NUMROWS+i].file_name[j];
      }
    }
  }
  else{
    for(int i=0; i<(NUMBEROFFILES-files->total_pages*NUMROWS); i++){
   102ac:	e080328c 	add	r3, r0, ip, lsl #5
   102b0:	e283100c 	add	r1, r3, #12	; 0xc
   102b4:	e3a02000 	mov	r2, #0	; 0x0
   102b8:	eaffffeb 	b	1026c <getNewFiles+0x74>
      for(int j=0; j<MAXFILENAMELEN; j++){
        files->list[i].file_name[j] = file_list[files->current_page*NUMROWS+i].file_name[j];
      }
    }
    for(int i=(NUMBEROFFILES-files->total_pages*NUMROWS); i<NUMROWS; i++)files->list[i].file_name[0]='\0';
   102bc:	e5403020 	strb	r3, [r0, #-32]
   102c0:	e352000e 	cmp	r2, #14	; 0xe
   102c4:	e2800020 	add	r0, r0, #32	; 0x20
   102c8:	e2822001 	add	r2, r2, #1	; 0x1
   102cc:	dafffffa 	ble	102bc <getNewFiles+0xc4>
  }
}
   102d0:	e8bd00f0 	pop	{r4, r5, r6, r7}
   102d4:	e12fff1e 	bx	lr
   102d8:	40000898 	.word	0x40000898

000102dc <fillSettings>:
//Usage: fillSettings(&settings_menu, &settings_values);
//Inputs: DisplayStruct *menu: Struct whose file names should be loaded with the settings menu
//		  SettingsStruct *values: settings struct whose initial values should be set
//This function fills the input display struct with a list of settings, along with a "settings" title.  It
//also loads the default display values along with the default settings values. 
void fillSettings(DisplayStruct *menu){
   102dc:	e92d07f0 	push	{r4, r5, r6, r7, r8, r9, sl}
	for(int i=0; i<MAXDISPLEN; i++){
		menu->list[0].file_name[i] = volume[i];
   102e0:	e59f90a4 	ldr	r9, [pc, #164]	; 1038c <fillSettings+0xb0>
		menu->list[1].file_name[i] = radio_power[i];
   102e4:	e59fa0a4 	ldr	sl, [pc, #164]	; 10390 <fillSettings+0xb4>
		menu->list[2].file_name[i] = radio_channel_menu[i];
   102e8:	e59f80a4 	ldr	r8, [pc, #164]	; 10394 <fillSettings+0xb8>
		menu->title[i] = settings[i];
   102ec:	e59f70a4 	ldr	r7, [pc, #164]	; 10398 <fillSettings+0xbc>
//Usage: fillSettings(&settings_menu, &settings_values);
//Inputs: DisplayStruct *menu: Struct whose file names should be loaded with the settings menu
//		  SettingsStruct *values: settings struct whose initial values should be set
//This function fills the input display struct with a list of settings, along with a "settings" title.  It
//also loads the default display values along with the default settings values. 
void fillSettings(DisplayStruct *menu){
   102f0:	e1a05000 	mov	r5, r0
   102f4:	e1a06000 	mov	r6, r0
   102f8:	e1a04000 	mov	r4, r0
   102fc:	e3a0c000 	mov	ip, #0	; 0x0
	for(int i=0; i<MAXDISPLEN; i++){
		menu->list[0].file_name[i] = volume[i];
   10300:	e7d9300c 	ldrb	r3, [r9, ip]
		menu->list[1].file_name[i] = radio_power[i];
   10304:	e7da200c 	ldrb	r2, [sl, ip]
		menu->list[2].file_name[i] = radio_channel_menu[i];
   10308:	e7d8100c 	ldrb	r1, [r8, ip]
		menu->title[i] = settings[i];
   1030c:	e7d7000c 	ldrb	r0, [r7, ip]
//Inputs: DisplayStruct *menu: Struct whose file names should be loaded with the settings menu
//		  SettingsStruct *values: settings struct whose initial values should be set
//This function fills the input display struct with a list of settings, along with a "settings" title.  It
//also loads the default display values along with the default settings values. 
void fillSettings(DisplayStruct *menu){
	for(int i=0; i<MAXDISPLEN; i++){
   10310:	e28cc001 	add	ip, ip, #1	; 0x1
   10314:	e35c0016 	cmp	ip, #22	; 0x16
		menu->list[0].file_name[i] = volume[i];
   10318:	e5c4300c 	strb	r3, [r4, #12]
		menu->list[1].file_name[i] = radio_power[i];
   1031c:	e5c4202c 	strb	r2, [r4, #44]
		menu->list[2].file_name[i] = radio_channel_menu[i];
   10320:	e5c4104c 	strb	r1, [r4, #76]
		menu->title[i] = settings[i];
   10324:	e5c401ec 	strb	r0, [r4, #492]
//Inputs: DisplayStruct *menu: Struct whose file names should be loaded with the settings menu
//		  SettingsStruct *values: settings struct whose initial values should be set
//This function fills the input display struct with a list of settings, along with a "settings" title.  It
//also loads the default display values along with the default settings values. 
void fillSettings(DisplayStruct *menu){
	for(int i=0; i<MAXDISPLEN; i++){
   10328:	e2844001 	add	r4, r4, #1	; 0x1
   1032c:	1afffff3 	bne	10300 <fillSettings+0x24>
   10330:	e3a03003 	mov	r3, #3	; 0x3
		menu->list[1].file_name[i] = radio_power[i];
		menu->list[2].file_name[i] = radio_channel_menu[i];
		menu->title[i] = settings[i];
	}
	for(int i=3; i<NUMROWS; i++){
		menu->list[i].file_name[0]='\0';
   10334:	e3a02000 	mov	r2, #0	; 0x0
		menu->list[0].file_name[i] = volume[i];
		menu->list[1].file_name[i] = radio_power[i];
		menu->list[2].file_name[i] = radio_channel_menu[i];
		menu->title[i] = settings[i];
	}
	for(int i=3; i<NUMROWS; i++){
   10338:	e2833001 	add	r3, r3, #1	; 0x1
   1033c:	e353000f 	cmp	r3, #15	; 0xf
		menu->list[i].file_name[0]='\0';
   10340:	e5c6206c 	strb	r2, [r6, #108]
   10344:	e3a01000 	mov	r1, #0	; 0x0
		menu->list[0].file_name[i] = volume[i];
		menu->list[1].file_name[i] = radio_power[i];
		menu->list[2].file_name[i] = radio_channel_menu[i];
		menu->title[i] = settings[i];
	}
	for(int i=3; i<NUMROWS; i++){
   10348:	e2866020 	add	r6, r6, #32	; 0x20
   1034c:	1afffff9 	bne	10338 <fillSettings+0x5c>
		menu->list[i].file_name[0]='\0';
	}
	menu->text_color=white;
   10350:	e59f3044 	ldr	r3, [pc, #68]	; 1039c <fillSettings+0xc0>
   10354:	e5d33000 	ldrb	r3, [r3]
   10358:	e5c53003 	strb	r3, [r5, #3]
	menu->back_color=black;
   1035c:	e59f303c 	ldr	r3, [pc, #60]	; 103a0 <fillSettings+0xc4>
   10360:	e5d32000 	ldrb	r2, [r3]
	menu->current_row=1;
   10364:	e3a03001 	mov	r3, #1	; 0x1
	menu->current_column=0;
	menu->current_index=0;
	menu->orientation = ORIENTLEFT;
	menu->current_page=0;
	menu->total_pages = 0;
   10368:	e5c51005 	strb	r1, [r5, #5]
	}
	for(int i=3; i<NUMROWS; i++){
		menu->list[i].file_name[0]='\0';
	}
	menu->text_color=white;
	menu->back_color=black;
   1036c:	e5c52004 	strb	r2, [r5, #4]
	menu->current_row=1;
	menu->current_column=0;
	menu->current_index=0;
	menu->orientation = ORIENTLEFT;
   10370:	e5c53002 	strb	r3, [r5, #2]
	for(int i=3; i<NUMROWS; i++){
		menu->list[i].file_name[0]='\0';
	}
	menu->text_color=white;
	menu->back_color=black;
	menu->current_row=1;
   10374:	e5c53000 	strb	r3, [r5]
	menu->current_column=0;
   10378:	e5c51001 	strb	r1, [r5, #1]
	menu->current_index=0;
   1037c:	e5851008 	str	r1, [r5, #8]
	menu->orientation = ORIENTLEFT;
	menu->current_page=0;
   10380:	e5c51006 	strb	r1, [r5, #6]
	menu->total_pages = 0;
}
   10384:	e8bd07f0 	pop	{r4, r5, r6, r7, r8, r9, sl}
   10388:	e12fff1e 	bx	lr
   1038c:	00018cad 	.word	0x00018cad
   10390:	00018cbd 	.word	0x00018cbd
   10394:	00018cc8 	.word	0x00018cc8
   10398:	00018cd5 	.word	0x00018cd5
   1039c:	40000f28 	.word	0x40000f28
   103a0:	40000009 	.word	0x40000009

000103a4 <reset>:
}

// Intentionally faults Watchdog to trigger a reset condition
//
void reset(void) {
  WDMOD |= 3;
   103a4:	e3a0220e 	mov	r2, #-536870912	; 0xe0000000
   103a8:	e5923000 	ldr	r3, [r2]
   103ac:	e3833003 	orr	r3, r3, #3	; 0x3
   103b0:	e5823000 	str	r3, [r2]
  WDFEED = 0xAA;
   103b4:	e3a010aa 	mov	r1, #170	; 0xaa
  WDFEED = 0x55;
   103b8:	e3a03055 	mov	r3, #85	; 0x55

// Intentionally faults Watchdog to trigger a reset condition
//
void reset(void) {
  WDMOD |= 3;
  WDFEED = 0xAA;
   103bc:	e5821008 	str	r1, [r2, #8]
  WDFEED = 0x55;
   103c0:	e5823008 	str	r3, [r2, #8]
  WDFEED = 0xAA;
  WDFEED = 0x00;
   103c4:	e3a03000 	mov	r3, #0	; 0x0
//
void reset(void) {
  WDMOD |= 3;
  WDFEED = 0xAA;
  WDFEED = 0x55;
  WDFEED = 0xAA;
   103c8:	e5821008 	str	r1, [r2, #8]
  WDFEED = 0x00;
   103cc:	e5823008 	str	r3, [r2, #8]
}
   103d0:	e12fff1e 	bx	lr

000103d4 <initializeSPI>:
//

// Initialize the SPI port.
//
void initializeSPI(void) {
  S0SPCCR = 64;   // SCK = 1 MHz, counter > 8 and even
   103d4:	e59f3010 	ldr	r3, [pc, #16]	; 103ec <initializeSPI+0x18>
   103d8:	e3a02040 	mov	r2, #64	; 0x40
   103dc:	e583200c 	str	r2, [r3, #12]
  S0SPCR  = 0x20; // Master, no interrupt enable, 8 bits
   103e0:	e3a02020 	mov	r2, #32	; 0x20
   103e4:	e5832000 	str	r2, [r3]
}
   103e8:	e12fff1e 	bx	lr
   103ec:	e0020000 	.word	0xe0020000

000103f0 <selectSD>:

// Hand over SPI lines to SD talk.
//
void selectSD(void) {
  PINSEL0 |= (SCLK_PINSEL | MISO_PINSEL | MOSI_PINSEL);
   103f0:	e59f200c 	ldr	r2, [pc, #12]	; 10404 <selectSD+0x14>
   103f4:	e5923000 	ldr	r3, [r2]
   103f8:	e3833c15 	orr	r3, r3, #5376	; 0x1500
   103fc:	e5823000 	str	r3, [r2]
}
   10400:	e12fff1e 	bx	lr
   10404:	e002c000 	.word	0xe002c000

00010408 <selectLCD>:

// Hand over SPI lines to LCD talk.
//
void selectLCD(void) {
  PINSEL0 &= 0xFFFFC00F;
   10408:	e59f2010 	ldr	r2, [pc, #16]	; 10420 <selectLCD+0x18>
   1040c:	e5923000 	ldr	r3, [r2]
   10410:	e3c33dff 	bic	r3, r3, #16320	; 0x3fc0
   10414:	e3c33030 	bic	r3, r3, #48	; 0x30
   10418:	e5823000 	str	r3, [r2]
}
   1041c:	e12fff1e 	bx	lr
   10420:	e002c000 	.word	0xe002c000

00010424 <selectRadio>:

// Hand over SPI lines to radio talk.
void selectRadio(void) {
  IOCLR1 |= FM_CS;
   10424:	e59f2024 	ldr	r2, [pc, #36]	; 10450 <selectRadio+0x2c>
   10428:	e592301c 	ldr	r3, [r2, #28]
   1042c:	e3833201 	orr	r3, r3, #268435456	; 0x10000000
   10430:	e582301c 	str	r3, [r2, #28]
// The function will cause the firmware to delay for "count" milleseconds.
void delay_ms(int count)
{
  int i;
  count *= 10000;
  for (i = 0; i < count; i++) { asm volatile ("nop"); }
   10434:	e59f2018 	ldr	r2, [pc, #24]	; 10454 <selectRadio+0x30>
  PINSEL0 &= 0xFFFFC00F;
}

// Hand over SPI lines to radio talk.
void selectRadio(void) {
  IOCLR1 |= FM_CS;
   10438:	e3a03000 	mov	r3, #0	; 0x0
// The function will cause the firmware to delay for "count" milleseconds.
void delay_ms(int count)
{
  int i;
  count *= 10000;
  for (i = 0; i < count; i++) { asm volatile ("nop"); }
   1043c:	e1a00000 	nop			(mov r0,r0)
   10440:	e2833001 	add	r3, r3, #1	; 0x1
   10444:	e1530002 	cmp	r3, r2
   10448:	1afffffb 	bne	1043c <selectRadio+0x18>
// Hand over SPI lines to radio talk.
void selectRadio(void) {
  IOCLR1 |= FM_CS;
  delay_ms(100);
  // In enableRadio: delay_ms(900); // TODO Does this really need to be 900?
}
   1044c:	e12fff1e 	bx	lr
   10450:	e0028000 	.word	0xe0028000
   10454:	000f4240 	.word	0x000f4240

00010458 <deselectRadio>:

// Hand off SPI lines from radio talk.
void deselectRadio(void) {
  IOSET1 |= FM_CS;
   10458:	e59f200c 	ldr	r2, [pc, #12]	; 1046c <deselectRadio+0x14>
   1045c:	e5923014 	ldr	r3, [r2, #20]
   10460:	e3833201 	orr	r3, r3, #268435456	; 0x10000000
   10464:	e5823014 	str	r3, [r2, #20]
}
   10468:	e12fff1e 	bx	lr
   1046c:	e0028000 	.word	0xe0028000

00010470 <isUSBConnected>:
//

// Returns if the USB is connected.
//
int isUSBConnected(void) {
  return IOPIN0 & (1<<23);
   10470:	e59f3008 	ldr	r3, [pc, #8]	; 10480 <isUSBConnected+0x10>
   10474:	e5930000 	ldr	r0, [r3]
}
   10478:	e2000502 	and	r0, r0, #8388608	; 0x800000
   1047c:	e12fff1e 	bx	lr
   10480:	e0028000 	.word	0xe0028000

00010484 <initializeUITimer>:
//

// Initialize the UI Timer.
//
void initializeUITimer(void) {
  T0PR = 300;     // Divide Clock by 300 for 40kHz PS
   10484:	e59f202c 	ldr	r2, [pc, #44]	; 104b8 <initializeUITimer+0x34>
   10488:	e3a03f4b 	mov	r3, #300	; 0x12c
   1048c:	e582300c 	str	r3, [r2, #12]
  T0TCR |= 0X01;  // Enable the clock
   10490:	e5923004 	ldr	r3, [r2, #4]
   10494:	e3833001 	orr	r3, r3, #1	; 0x1
   10498:	e5823004 	str	r3, [r2, #4]
  T0CTCR = 0;     // Timer Mode
   1049c:	e3a03000 	mov	r3, #0	; 0x0
   104a0:	e5823070 	str	r3, [r2, #112]
  T0MCR = 0x0003; // Interrupt and Reset Timer on Match
   104a4:	e2833003 	add	r3, r3, #3	; 0x3
   104a8:	e5823014 	str	r3, [r2, #20]
  T0MR0 = 1000;   // Interrupt on 40Hz
   104ac:	e3a03ffa 	mov	r3, #1000	; 0x3e8
   104b0:	e5823018 	str	r3, [r2, #24]
}
   104b4:	e12fff1e 	bx	lr
   104b8:	e0004000 	.word	0xe0004000

000104bc <initializeMP3Timer>:

// Initialize the MP3 Timer.
//
void initializeMP3Timer(void) {
  T1PR = 200;     // Divide Clock by 200 for ??kHz PS
   104bc:	e59f2024 	ldr	r2, [pc, #36]	; 104e8 <initializeMP3Timer+0x2c>
   104c0:	e3a030c8 	mov	r3, #200	; 0xc8
   104c4:	e582300c 	str	r3, [r2, #12]
  T1TCR |= 0X01;  // Enable the clock
   104c8:	e5923004 	ldr	r3, [r2, #4]
   104cc:	e3833001 	orr	r3, r3, #1	; 0x1
   104d0:	e5823004 	str	r3, [r2, #4]
  T1CTCR = 0;     // Timer Mode
   104d4:	e3a03000 	mov	r3, #0	; 0x0
   104d8:	e5823070 	str	r3, [r2, #112]
  T1CCR = 0x0A00; // Capture and interrupt on the rising edge of DREQ
   104dc:	e2833c0a 	add	r3, r3, #2560	; 0xa00
   104e0:	e5823028 	str	r3, [r2, #40]
}
   104e4:	e12fff1e 	bx	lr
   104e8:	e0008000 	.word	0xe0008000

000104ec <initializeInterrupts>:
//

// Initializes interrupts and timers.
//
void initializeInterrupts(void) {
  VPBDIV = 1;                              // Set PCLK equal to the System Clock	
   104ec:	e59f303c 	ldr	r3, [pc, #60]	; 10530 <initializeInterrupts+0x44>
   104f0:	e3a02001 	mov	r2, #1	; 0x1
   104f4:	e5832100 	str	r2, [r3, #256]
  VICIntSelect = ~0x30;                    // Timer 0 AND TIMER 1 interrupt is an IRQ interrupt
   104f8:	e3e01000 	mvn	r1, #0	; 0x0
   104fc:	e3e03030 	mvn	r3, #48	; 0x30
   10500:	e5013ff3 	str	r3, [r1, #-4083]
}

// Exclusively listen to the UI interrupt.
//
void exclusiveUIInterrupt(void) {
  VICIntEnable = 0x10;
   10504:	e2833041 	add	r3, r3, #65	; 0x41
   10508:	e5013fef 	str	r3, [r1, #-4079]
//
void initializeInterrupts(void) {
  VPBDIV = 1;                              // Set PCLK equal to the System Clock	
  VICIntSelect = ~0x30;                    // Timer 0 AND TIMER 1 interrupt is an IRQ interrupt
  exclusiveUIInterrupt();                  // Enable Timer 0 Interrupts (Don't start sending song data with Timer 1)
  VICVectCntl0= 0x25;                      // Use slot 0 for timer 1 interrupt
   1050c:	e2833015 	add	r3, r3, #21	; 0x15
   10510:	e5013dff 	str	r3, [r1, #-3583]
  VICVectAddr0 = (unsigned int) timer1ISR; // Set the address of ISR for slot 1		
   10514:	e59f3018 	ldr	r3, [pc, #24]	; 10534 <initializeInterrupts+0x48>
   10518:	e5013eff 	str	r3, [r1, #-3839]
  VICVectCntl1 = 0x24;                     // Use slot 1 for timer 0 interrupt
   1051c:	e3a03024 	mov	r3, #36	; 0x24
   10520:	e5013dfb 	str	r3, [r1, #-3579]
  VICVectAddr1 = (unsigned int) timer0ISR; // Set the address of ISR for slot 1
   10524:	e59f300c 	ldr	r3, [pc, #12]	; 10538 <initializeInterrupts+0x4c>
   10528:	e5013efb 	str	r3, [r1, #-3835]
}
   1052c:	e12fff1e 	bx	lr
   10530:	e01fc000 	.word	0xe01fc000
   10534:	00010e30 	.word	0x00010e30
   10538:	00010664 	.word	0x00010664

0001053c <stopAllInterrupts>:

// Stops all interrupts from triggering.
//
void stopAllInterrupts(void) {
  VICIntEnClr = 0x30;
   1053c:	e3a02030 	mov	r2, #48	; 0x30
   10540:	e3e03000 	mvn	r3, #0	; 0x0
   10544:	e5032feb 	str	r2, [r3, #-4075]
}
   10548:	e12fff1e 	bx	lr

0001054c <enableMP3Interrupt>:

// Enable the MP3 interrupt.
//
void enableMP3Interrupt(void) {
  VICIntEnable |= 0x20;
   1054c:	e3e02000 	mvn	r2, #0	; 0x0
   10550:	e5123fef 	ldr	r3, [r2, #-4079]
   10554:	e3833020 	orr	r3, r3, #32	; 0x20
   10558:	e5023fef 	str	r3, [r2, #-4079]
}
   1055c:	e12fff1e 	bx	lr

00010560 <disableMP3Interrupt>:

// Disable the MP3 interrupt.
//
void disableMP3Interrupt(void) {
  VICIntEnClr = 0x20;
   10560:	e3a02020 	mov	r2, #32	; 0x20
   10564:	e3e03000 	mvn	r3, #0	; 0x0
   10568:	e5032feb 	str	r2, [r3, #-4075]
}
   1056c:	e12fff1e 	bx	lr

00010570 <enableUIInterrupt>:

// Start the interrupts again.
//
void enableUIInterrupt(void) {
  VICIntEnable |= 0x10;
   10570:	e3e02000 	mvn	r2, #0	; 0x0
   10574:	e5123fef 	ldr	r3, [r2, #-4079]
   10578:	e3833010 	orr	r3, r3, #16	; 0x10
   1057c:	e5023fef 	str	r3, [r2, #-4079]
}
   10580:	e12fff1e 	bx	lr

00010584 <disableUIInterrupt>:

// Stop the UI interrupt from triggering. (And stabilize/debounce for t miliseconds)
//
void disableUIInterrupt(int t) {
  VICIntEnClr = 0x10;
   10584:	e3a03010 	mov	r3, #16	; 0x10
   10588:	e3e02000 	mvn	r2, #0	; 0x0
   1058c:	e5023feb 	str	r3, [r2, #-4075]
// Inputs: int count: Number of milliseconds to delay
// The function will cause the firmware to delay for "count" milleseconds.
void delay_ms(int count)
{
  int i;
  count *= 10000;
   10590:	e2833c27 	add	r3, r3, #9984	; 0x2700
   10594:	e0020093 	mul	r2, r3, r0
   10598:	e3a03000 	mov	r3, #0	; 0x0
   1059c:	ea000001 	b	105a8 <disableUIInterrupt+0x24>
  for (i = 0; i < count; i++) { asm volatile ("nop"); }
   105a0:	e1a00000 	nop			(mov r0,r0)
   105a4:	e2833001 	add	r3, r3, #1	; 0x1
   105a8:	e1530002 	cmp	r3, r2
   105ac:	bafffffb 	blt	105a0 <disableUIInterrupt+0x1c>
// Stop the UI interrupt from triggering. (And stabilize/debounce for t miliseconds)
//
void disableUIInterrupt(int t) {
  VICIntEnClr = 0x10;
  delay_ms(t); // debounce
}
   105b0:	e12fff1e 	bx	lr

000105b4 <exclusiveUIInterrupt>:

// Exclusively listen to the UI interrupt.
//
void exclusiveUIInterrupt(void) {
  VICIntEnable = 0x10;
   105b4:	e3a02010 	mov	r2, #16	; 0x10
   105b8:	e3e03000 	mvn	r3, #0	; 0x0
   105bc:	e5032fef 	str	r2, [r3, #-4079]
}
   105c0:	e12fff1e 	bx	lr

000105c4 <initializeLEDs>:
//

// Initializes the LEDs to an off state.
//
void initializeLEDs(void) {
  IODIR0 |= (LED_BLU | LED_RED | LED_GRN);
   105c4:	e59f2024 	ldr	r2, [pc, #36]	; 105f0 <initializeLEDs+0x2c>
   105c8:	e5923008 	ldr	r3, [r2, #8]
   105cc:	e3833207 	orr	r3, r3, #1879048192	; 0x70000000
   105d0:	e5823008 	str	r3, [r2, #8]
  ledBlueOff();
   105d4:	e3a03202 	mov	r3, #536870912	; 0x20000000
   105d8:	e5823004 	str	r3, [r2, #4]
  ledRedOff();
   105dc:	e0833003 	add	r3, r3, r3
   105e0:	e5823004 	str	r3, [r2, #4]
  ledGrnOff();
   105e4:	e283320d 	add	r3, r3, #-805306368	; 0xd0000000
   105e8:	e5823004 	str	r3, [r2, #4]
}
   105ec:	e12fff1e 	bx	lr
   105f0:	e0028000 	.word	0xe0028000

000105f4 <wishesFileManager>:

int wishesSettings(void) {
  return (MMA_get_y() > 700 && prev_position > 700);
}

int wishesFileManager(void) {
   105f4:	e52de004 	push	{lr}		; (str lr, [sp, #-4]!)
  return (MMA_get_y() < 700 && prev_position < 700);
   105f8:	eb00117c 	bl	14bf0 <MMA_get_y>
   105fc:	e59f2024 	ldr	r2, [pc, #36]	; 10628 <wishesFileManager+0x34>
   10600:	e1500002 	cmp	r0, r2
   10604:	c3a00000 	movgt	r0, #0	; 0x0
   10608:	ca000004 	bgt	10620 <wishesFileManager+0x2c>
   1060c:	e59f3018 	ldr	r3, [pc, #24]	; 1062c <wishesFileManager+0x38>
   10610:	e5933000 	ldr	r3, [r3]
   10614:	e1530002 	cmp	r3, r2
   10618:	c3a00000 	movgt	r0, #0	; 0x0
   1061c:	d3a00001 	movle	r0, #1	; 0x1
   10620:	e49de004 	pop	{lr}		; (ldr lr, [sp], #4)
   10624:	e12fff1e 	bx	lr
   10628:	000002bb 	.word	0x000002bb
   1062c:	400008a0 	.word	0x400008a0

00010630 <wishesSettings>:
  printMenu(current_display);
  // Reenable UI interrupts
  enableUIInterrupt();
}

int wishesSettings(void) {
   10630:	e52de004 	push	{lr}		; (str lr, [sp, #-4]!)
  return (MMA_get_y() > 700 && prev_position > 700);
   10634:	eb00116d 	bl	14bf0 <MMA_get_y>
   10638:	e3500faf 	cmp	r0, #700	; 0x2bc
   1063c:	d3a00000 	movle	r0, #0	; 0x0
   10640:	da000004 	ble	10658 <wishesSettings+0x28>
   10644:	e59f3014 	ldr	r3, [pc, #20]	; 10660 <wishesSettings+0x30>
   10648:	e5933000 	ldr	r3, [r3]
   1064c:	e3530faf 	cmp	r3, #700	; 0x2bc
   10650:	d3a00000 	movle	r0, #0	; 0x0
   10654:	c3a00001 	movgt	r0, #1	; 0x1
}
   10658:	e49de004 	pop	{lr}		; (ldr lr, [sp], #4)
   1065c:	e12fff1e 	bx	lr
   10660:	400008a0 	.word	0x400008a0

00010664 <timer0ISR>:
// Inputs:  None
// Outputs: None
// Function returns the value of the button that is currently being pressed.
// UP_BUT, DWN_BUT, and MID_BUT values can be viewed in MP3Dev.h
char getButton(void){
  if (!(IOPIN1 & SW_UP)) {
   10664:	e59f20a8 	ldr	r2, [pc, #168]	; 10714 <timer0ISR+0xb0>
   10668:	e5923010 	ldr	r3, [r2, #16]
   1066c:	e3130502 	tst	r3, #8388608	; 0x800000
//Inputs: None
//This function is a global interrupt called by a match on the Timer 0 match.  The interrupt
// is responsible for determining if a button has been pressed or if the screen has been rotated
// and setting the appropriate global flag if either has occured.
static void timer0ISR(void)
{
   10670:	e52de004 	push	{lr}		; (str lr, [sp, #-4]!)
// Inputs:  None
// Outputs: None
// Function returns the value of the button that is currently being pressed.
// UP_BUT, DWN_BUT, and MID_BUT values can be viewed in MP3Dev.h
char getButton(void){
  if (!(IOPIN1 & SW_UP)) {
   10674:	03a02002 	moveq	r2, #2	; 0x2
   10678:	0a000007 	beq	1069c <timer0ISR+0x38>
    return UP_BUT;
  } else if (!(IOPIN1 & SW_DWN)) {
   1067c:	e5923010 	ldr	r3, [r2, #16]
   10680:	e3130602 	tst	r3, #2097152	; 0x200000
   10684:	03a02001 	moveq	r2, #1	; 0x1
   10688:	0a000003 	beq	1069c <timer0ISR+0x38>
    return DWN_BUT;
  } else if (!(IOPIN1 & SW_MID)) {
   1068c:	e5923010 	ldr	r3, [r2, #16]
   10690:	e3130501 	tst	r3, #4194304	; 0x400000
   10694:	03a02003 	moveq	r2, #3	; 0x3
   10698:	13a02000 	movne	r2, #0	; 0x0
//This function is a global interrupt called by a match on the Timer 0 match.  The interrupt
// is responsible for determining if a button has been pressed or if the screen has been rotated
// and setting the appropriate global flag if either has occured.
static void timer0ISR(void)
{
  button_pressed = getButton(); // Find out if a button has been pressed, and which one
   1069c:	e59f3074 	ldr	r3, [pc, #116]	; 10718 <timer0ISR+0xb4>
   106a0:	e5c32000 	strb	r2, [r3]
  cur_position = MMA_get_y();   // Get the current position of the screen
   106a4:	eb001151 	bl	14bf0 <MMA_get_y>
  if((prev_position<700 && cur_position>700) || (prev_position>700 && cur_position<700)) {
   106a8:	e59f306c 	ldr	r3, [pc, #108]	; 1071c <timer0ISR+0xb8>
   106ac:	e5932000 	ldr	r2, [r3]
// is responsible for determining if a button has been pressed or if the screen has been rotated
// and setting the appropriate global flag if either has occured.
static void timer0ISR(void)
{
  button_pressed = getButton(); // Find out if a button has been pressed, and which one
  cur_position = MMA_get_y();   // Get the current position of the screen
   106b0:	e59f3068 	ldr	r3, [pc, #104]	; 10720 <timer0ISR+0xbc>
  if((prev_position<700 && cur_position>700) || (prev_position>700 && cur_position<700)) {
   106b4:	e3520faf 	cmp	r2, #700	; 0x2bc
// is responsible for determining if a button has been pressed or if the screen has been rotated
// and setting the appropriate global flag if either has occured.
static void timer0ISR(void)
{
  button_pressed = getButton(); // Find out if a button has been pressed, and which one
  cur_position = MMA_get_y();   // Get the current position of the screen
   106b8:	e5830000 	str	r0, [r3]
  if((prev_position<700 && cur_position>700) || (prev_position>700 && cur_position<700)) {
   106bc:	aa000001 	bge	106c8 <timer0ISR+0x64>
   106c0:	e3500faf 	cmp	r0, #700	; 0x2bc
   106c4:	ca000003 	bgt	106d8 <timer0ISR+0x74>
   106c8:	e3520faf 	cmp	r2, #700	; 0x2bc
   106cc:	da000003 	ble	106e0 <timer0ISR+0x7c>
   106d0:	e3500faf 	cmp	r0, #700	; 0x2bc
   106d4:	aa000001 	bge	106e0 <timer0ISR+0x7c>
    update_screen = 1;
   106d8:	e3a02001 	mov	r2, #1	; 0x1
   106dc:	ea000000 	b	106e4 <timer0ISR+0x80>
  } else {
    update_screen = 0; // Determine if the accelerometer has been rotated
   106e0:	e3a02000 	mov	r2, #0	; 0x0
   106e4:	e59f3038 	ldr	r3, [pc, #56]	; 10724 <timer0ISR+0xc0>
   106e8:	e5c32000 	strb	r2, [r3]
  }
  prev_position = cur_position; // Save the position value for later reference
  
  T0IR = 0xFF;                  // Clear the timer interrupt
   106ec:	e59f3034 	ldr	r3, [pc, #52]	; 10728 <timer0ISR+0xc4>
   106f0:	e3a020ff 	mov	r2, #255	; 0xff
   106f4:	e5832000 	str	r2, [r3]
  if((prev_position<700 && cur_position>700) || (prev_position>700 && cur_position<700)) {
    update_screen = 1;
  } else {
    update_screen = 0; // Determine if the accelerometer has been rotated
  }
  prev_position = cur_position; // Save the position value for later reference
   106f8:	e59f301c 	ldr	r3, [pc, #28]	; 1071c <timer0ISR+0xb8>
  
  T0IR = 0xFF;                  // Clear the timer interrupt
  VICVectAddr = 0;              // Update the VIC priorities
   106fc:	e3a02000 	mov	r2, #0	; 0x0
  if((prev_position<700 && cur_position>700) || (prev_position>700 && cur_position<700)) {
    update_screen = 1;
  } else {
    update_screen = 0; // Determine if the accelerometer has been rotated
  }
  prev_position = cur_position; // Save the position value for later reference
   10700:	e5830000 	str	r0, [r3]
  
  T0IR = 0xFF;                  // Clear the timer interrupt
  VICVectAddr = 0;              // Update the VIC priorities
   10704:	e3e03000 	mvn	r3, #0	; 0x0
   10708:	e5032fcf 	str	r2, [r3, #-4047]
}
   1070c:	e49de004 	pop	{lr}		; (ldr lr, [sp], #4)
   10710:	e12fff1e 	bx	lr
   10714:	e0028000 	.word	0xe0028000
   10718:	4000089c 	.word	0x4000089c
   1071c:	400008a0 	.word	0x400008a0
   10720:	400008a4 	.word	0x400008a4
   10724:	4000089d 	.word	0x4000089d
   10728:	e0004000 	.word	0xe0004000

0001072c <displayRadioMenu>:
// Menus
//

// Displays the radio menu settings.
//
void displayRadioMenu(void) {
   1072c:	e92d4010 	push	{r4, lr}
  LCDSetRowColor(2, 0, current_display->back_color, current_display->orientation);
   10730:	e59f4054 	ldr	r4, [pc, #84]	; 1078c <displayRadioMenu+0x60>
   10734:	e5942000 	ldr	r2, [r4]
// Menus
//

// Displays the radio menu settings.
//
void displayRadioMenu(void) {
   10738:	e24dd008 	sub	sp, sp, #8	; 0x8
  LCDSetRowColor(2, 0, current_display->back_color, current_display->orientation);
   1073c:	e5d23002 	ldrb	r3, [r2, #2]
   10740:	e3a00002 	mov	r0, #2	; 0x2
   10744:	e3a01000 	mov	r1, #0	; 0x0
   10748:	e5d22004 	ldrb	r2, [r2, #4]
   1074c:	eb00131e 	bl	153cc <LCDSetRowColor>
  LCDPrintString("%d", radio_channel, white, 2, 0, current_display->orientation);
   10750:	e3a03000 	mov	r3, #0	; 0x0
   10754:	e58d3000 	str	r3, [sp]
   10758:	e59f3030 	ldr	r3, [pc, #48]	; 10790 <displayRadioMenu+0x64>
   1075c:	e5941000 	ldr	r1, [r4]
   10760:	e5d32000 	ldrb	r2, [r3]
   10764:	e59f3028 	ldr	r3, [pc, #40]	; 10794 <displayRadioMenu+0x68>
   10768:	e5d1c002 	ldrb	ip, [r1, #2]
   1076c:	e59f0024 	ldr	r0, [pc, #36]	; 10798 <displayRadioMenu+0x6c>
   10770:	e5931000 	ldr	r1, [r3]
   10774:	e3a03002 	mov	r3, #2	; 0x2
   10778:	e58dc004 	str	ip, [sp, #4]
   1077c:	eb001240 	bl	15084 <LCDPrintString>
}
   10780:	e28dd008 	add	sp, sp, #8	; 0x8
   10784:	e8bd4010 	pop	{r4, lr}
   10788:	e12fff1e 	bx	lr
   1078c:	40000d10 	.word	0x40000d10
   10790:	40000f28 	.word	0x40000f28
   10794:	40000004 	.word	0x40000004
   10798:	00019354 	.word	0x00019354

0001079c <quickClear>:
}

// Hand over SPI lines to LCD talk.
//
void selectLCD(void) {
  PINSEL0 &= 0xFFFFC00F;
   1079c:	e59f20b8 	ldr	r2, [pc, #184]	; 1085c <quickClear+0xc0>
   107a0:	e5923000 	ldr	r3, [r2]
//  Description: Rather than painting every pixel a specific color (like LCDClear does) this routine
//               will simply color all of the text the same color as the background, giving the illusion
//               of a clear screen.  Only works with the background color.  Much faster than LCDClear, and is
//               good to use while an MP3 is playing.
//
void quickClear(DisplayStruct *display){
   107a4:	e92d40f0 	push	{r4, r5, r6, r7, lr}
}

// Hand over SPI lines to LCD talk.
//
void selectLCD(void) {
  PINSEL0 &= 0xFFFFC00F;
   107a8:	e3c33dff 	bic	r3, r3, #16320	; 0x3fc0
   107ac:	e3c33030 	bic	r3, r3, #48	; 0x30
   107b0:	e5823000 	str	r3, [r2]
//               good to use while an MP3 is playing.
//
void quickClear(DisplayStruct *display){
  selectLCD();		//Hand over SPI lines to LCD talk
  // If we're on the first page of the menu, we also need to clear the title.
  if (display->current_page == 0) {
   107b4:	e5d0e006 	ldrb	lr, [r0, #6]
   107b8:	e35e0000 	cmp	lr, #0	; 0x0
//  Description: Rather than painting every pixel a specific color (like LCDClear does) this routine
//               will simply color all of the text the same color as the background, giving the illusion
//               of a clear screen.  Only works with the background color.  Much faster than LCDClear, and is
//               good to use while an MP3 is playing.
//
void quickClear(DisplayStruct *display){
   107bc:	e24dd008 	sub	sp, sp, #8	; 0x8
   107c0:	e1a05000 	mov	r5, r0
  selectLCD();		//Hand over SPI lines to LCD talk
  // If we're on the first page of the menu, we also need to clear the title.
  if (display->current_page == 0) {
   107c4:	1a000007 	bne	107e8 <quickClear+0x4c>
    LCDPrintString(display->title, 0, display->back_color, 0, 0, display->orientation);
   107c8:	e5d0c002 	ldrb	ip, [r0, #2]
   107cc:	e5d02004 	ldrb	r2, [r0, #4]
   107d0:	e1a0100e 	mov	r1, lr
   107d4:	e2800f7b 	add	r0, r0, #492	; 0x1ec
   107d8:	e1a0300e 	mov	r3, lr
   107dc:	e58dc004 	str	ip, [sp, #4]
   107e0:	e58de000 	str	lr, [sp]
   107e4:	eb001226 	bl	15084 <LCDPrintString>
  }
  LCDSetRowColor(display->current_row, 0, display->back_color, display->orientation);
   107e8:	e5d50000 	ldrb	r0, [r5]
   107ec:	e3a01000 	mov	r1, #0	; 0x0
   107f0:	e5d52004 	ldrb	r2, [r5, #4]
   107f4:	e5d53002 	ldrb	r3, [r5, #2]
   107f8:	eb0012f3 	bl	153cc <LCDSetRowColor>
   107fc:	e3a04000 	mov	r4, #0	; 0x0
  for (int j = 0; j < NUMROWS; j++) {
    LCDPrintString(display->list[j].file_name, 0, display->back_color, j+1, 0, display->orientation);
    LCDPrintString(newline, 0, black, j+1, 0, 0);
   10800:	e59f7058 	ldr	r7, [pc, #88]	; 10860 <quickClear+0xc4>
  if (display->current_page == 0) {
    LCDPrintString(display->title, 0, display->back_color, 0, 0, display->orientation);
  }
  LCDSetRowColor(display->current_row, 0, display->back_color, display->orientation);
  for (int j = 0; j < NUMROWS; j++) {
    LCDPrintString(display->list[j].file_name, 0, display->back_color, j+1, 0, display->orientation);
   10804:	e1a06004 	mov	r6, r4
   10808:	e5d5c002 	ldrb	ip, [r5, #2]
   1080c:	e0850284 	add	r0, r5, r4, lsl #5
  selectLCD();		//Hand over SPI lines to LCD talk
  // If we're on the first page of the menu, we also need to clear the title.
  if (display->current_page == 0) {
    LCDPrintString(display->title, 0, display->back_color, 0, 0, display->orientation);
  }
  LCDSetRowColor(display->current_row, 0, display->back_color, display->orientation);
   10810:	e2844001 	add	r4, r4, #1	; 0x1
  for (int j = 0; j < NUMROWS; j++) {
    LCDPrintString(display->list[j].file_name, 0, display->back_color, j+1, 0, display->orientation);
   10814:	e5d52004 	ldrb	r2, [r5, #4]
   10818:	e280000c 	add	r0, r0, #12	; 0xc
   1081c:	e1a01006 	mov	r1, r6
   10820:	e1a03004 	mov	r3, r4
   10824:	e88d1040 	stm	sp, {r6, ip}
   10828:	eb001215 	bl	15084 <LCDPrintString>
    LCDPrintString(newline, 0, black, j+1, 0, 0);
   1082c:	e5d72000 	ldrb	r2, [r7]
   10830:	e59f002c 	ldr	r0, [pc, #44]	; 10864 <quickClear+0xc8>
   10834:	e1a01006 	mov	r1, r6
   10838:	e1a03004 	mov	r3, r4
   1083c:	e58d6000 	str	r6, [sp]
   10840:	e58d6004 	str	r6, [sp, #4]
   10844:	eb00120e 	bl	15084 <LCDPrintString>
  // If we're on the first page of the menu, we also need to clear the title.
  if (display->current_page == 0) {
    LCDPrintString(display->title, 0, display->back_color, 0, 0, display->orientation);
  }
  LCDSetRowColor(display->current_row, 0, display->back_color, display->orientation);
  for (int j = 0; j < NUMROWS; j++) {
   10848:	e354000f 	cmp	r4, #15	; 0xf
   1084c:	1affffed 	bne	10808 <quickClear+0x6c>
    LCDPrintString(display->list[j].file_name, 0, display->back_color, j+1, 0, display->orientation);
    LCDPrintString(newline, 0, black, j+1, 0, 0);
  }
}
   10850:	e28dd008 	add	sp, sp, #8	; 0x8
   10854:	e8bd40f0 	pop	{r4, r5, r6, r7, lr}
   10858:	e12fff1e 	bx	lr
   1085c:	e002c000 	.word	0xe002c000
   10860:	40000009 	.word	0x40000009
   10864:	00018cab 	.word	0x00018cab

00010868 <printMenu>:
}

// Hand over SPI lines to LCD talk.
//
void selectLCD(void) {
  PINSEL0 &= 0xFFFFC00F;
   10868:	e59f20c0 	ldr	r2, [pc, #192]	; 10930 <printMenu+0xc8>
   1086c:	e5923000 	ldr	r3, [r2]

// Usage: printMenu(&settings_menu);
// Inputs: DisplayStruct *display: Pointer to the display struct to be displayed on the LCD.
// This function writes the title, along with all of the file names in the display struct to the screen.
//
void printMenu(DisplayStruct *display){
   10870:	e92d4070 	push	{r4, r5, r6, lr}
}

// Hand over SPI lines to LCD talk.
//
void selectLCD(void) {
  PINSEL0 &= 0xFFFFC00F;
   10874:	e3c33dff 	bic	r3, r3, #16320	; 0x3fc0
   10878:	e3c33030 	bic	r3, r3, #48	; 0x30
   1087c:	e5823000 	str	r3, [r2]
// Inputs: DisplayStruct *display: Pointer to the display struct to be displayed on the LCD.
// This function writes the title, along with all of the file names in the display struct to the screen.
//
void printMenu(DisplayStruct *display){
  selectLCD(); // Hand over SPI lines to LCD talk
  if (display->current_page == 0) {
   10880:	e5d0e006 	ldrb	lr, [r0, #6]
   10884:	e35e0000 	cmp	lr, #0	; 0x0

// Usage: printMenu(&settings_menu);
// Inputs: DisplayStruct *display: Pointer to the display struct to be displayed on the LCD.
// This function writes the title, along with all of the file names in the display struct to the screen.
//
void printMenu(DisplayStruct *display){
   10888:	e24dd008 	sub	sp, sp, #8	; 0x8
   1088c:	e1a05000 	mov	r5, r0
  selectLCD(); // Hand over SPI lines to LCD talk
  if (display->current_page == 0) {
   10890:	1a000007 	bne	108b4 <printMenu+0x4c>
    LCDPrintString(display->title,0, display->text_color, 0,0,display->orientation);
   10894:	e5d0c002 	ldrb	ip, [r0, #2]
   10898:	e5d02003 	ldrb	r2, [r0, #3]
   1089c:	e1a0100e 	mov	r1, lr
   108a0:	e2800f7b 	add	r0, r0, #492	; 0x1ec
   108a4:	e1a0300e 	mov	r3, lr
   108a8:	e58dc004 	str	ip, [sp, #4]
   108ac:	e58de000 	str	lr, [sp]
   108b0:	eb0011f3 	bl	15084 <LCDPrintString>
   108b4:	e3a03000 	mov	r3, #0	; 0x0
  }
  for (int j = 0; j < NUMROWS; j++){
    LCDPrintString(display->list[j].file_name,0, display->text_color, j+1,0,display->orientation);
   108b8:	e1a06003 	mov	r6, r3
   108bc:	e2834001 	add	r4, r3, #1	; 0x1
   108c0:	e5d5c002 	ldrb	ip, [r5, #2]
   108c4:	e0850283 	add	r0, r5, r3, lsl #5
   108c8:	e5d52003 	ldrb	r2, [r5, #3]
   108cc:	e1a03004 	mov	r3, r4
   108d0:	e280000c 	add	r0, r0, #12	; 0xc
   108d4:	e1a01006 	mov	r1, r6
   108d8:	e88d1040 	stm	sp, {r6, ip}
   108dc:	eb0011e8 	bl	15084 <LCDPrintString>
void printMenu(DisplayStruct *display){
  selectLCD(); // Hand over SPI lines to LCD talk
  if (display->current_page == 0) {
    LCDPrintString(display->title,0, display->text_color, 0,0,display->orientation);
  }
  for (int j = 0; j < NUMROWS; j++){
   108e0:	e354000f 	cmp	r4, #15	; 0xf
   108e4:	e1a03004 	mov	r3, r4
   108e8:	1afffff3 	bne	108bc <printMenu+0x54>
    LCDPrintString(display->list[j].file_name,0, display->text_color, j+1,0,display->orientation);
  }
  LCDSetRowColor(display->current_row, 0, display->text_color, display->orientation);
   108ec:	e5d50000 	ldrb	r0, [r5]
   108f0:	e1a01006 	mov	r1, r6
   108f4:	e5d52003 	ldrb	r2, [r5, #3]
   108f8:	e5d53002 	ldrb	r3, [r5, #2]
   108fc:	eb0012b2 	bl	153cc <LCDSetRowColor>
  LCDPrintString(display->list[display->current_index].file_name, 0,display->back_color, display->current_row,0,display->orientation);
   10900:	e5950008 	ldr	r0, [r5, #8]
   10904:	e5d5c002 	ldrb	ip, [r5, #2]
   10908:	e0850280 	add	r0, r5, r0, lsl #5
   1090c:	e5d52004 	ldrb	r2, [r5, #4]
   10910:	e5d53000 	ldrb	r3, [r5]
   10914:	e280000c 	add	r0, r0, #12	; 0xc
   10918:	e1a01006 	mov	r1, r6
   1091c:	e88d1040 	stm	sp, {r6, ip}
   10920:	eb0011d7 	bl	15084 <LCDPrintString>
}
   10924:	e28dd008 	add	sp, sp, #8	; 0x8
   10928:	e8bd4070 	pop	{r4, r5, r6, lr}
   1092c:	e12fff1e 	bx	lr
   10930:	e002c000 	.word	0xe002c000

00010934 <highlightRow>:
}

// Hand over SPI lines to LCD talk.
//
void selectLCD(void) {
  PINSEL0 &= 0xFFFFC00F;
   10934:	e59f20d0 	ldr	r2, [pc, #208]	; 10a0c <highlightRow+0xd8>
   10938:	e5923000 	ldr	r3, [r2]

//Usage: highlightRow(&current_display, PREVIOUS);
//Inputs: DisplayStruct *current_display: Pointer to the display structure whose current row value should be changed.
//		  char direction: direction value can be PREVIOUS or NEXT.  Value indicates which row should be highlighted
//Depending on "direction" this value highlights a row, and manages the current_row and current_index values.
void highlightRow(DisplayStruct *display, char direction){
   1093c:	e92d4070 	push	{r4, r5, r6, lr}
}

// Hand over SPI lines to LCD talk.
//
void selectLCD(void) {
  PINSEL0 &= 0xFFFFC00F;
   10940:	e3c33dff 	bic	r3, r3, #16320	; 0x3fc0
   10944:	e3c33030 	bic	r3, r3, #48	; 0x30
   10948:	e5823000 	str	r3, [r2]

//Usage: highlightRow(&current_display, PREVIOUS);
//Inputs: DisplayStruct *current_display: Pointer to the display structure whose current row value should be changed.
//		  char direction: direction value can be PREVIOUS or NEXT.  Value indicates which row should be highlighted
//Depending on "direction" this value highlights a row, and manages the current_row and current_index values.
void highlightRow(DisplayStruct *display, char direction){
   1094c:	e1a06000 	mov	r6, r0
   10950:	e24dd008 	sub	sp, sp, #8	; 0x8
	selectLCD();		//Hand over SPI lines to LCD talk
	LCDSetRowColor(display->current_row, 0, display->back_color, display->orientation);
   10954:	e5d62004 	ldrb	r2, [r6, #4]
   10958:	e5d63002 	ldrb	r3, [r6, #2]

//Usage: highlightRow(&current_display, PREVIOUS);
//Inputs: DisplayStruct *current_display: Pointer to the display structure whose current row value should be changed.
//		  char direction: direction value can be PREVIOUS or NEXT.  Value indicates which row should be highlighted
//Depending on "direction" this value highlights a row, and manages the current_row and current_index values.
void highlightRow(DisplayStruct *display, char direction){
   1095c:	e1a04001 	mov	r4, r1
	selectLCD();		//Hand over SPI lines to LCD talk
	LCDSetRowColor(display->current_row, 0, display->back_color, display->orientation);
   10960:	e5d00000 	ldrb	r0, [r0]
   10964:	e3a01000 	mov	r1, #0	; 0x0
   10968:	eb001297 	bl	153cc <LCDSetRowColor>
	LCDPrintString(display->list[display->current_index].file_name, 0,display->text_color, display->current_row,0,display->orientation);
   1096c:	e5960008 	ldr	r0, [r6, #8]
   10970:	e3a0c000 	mov	ip, #0	; 0x0
   10974:	e5d65002 	ldrb	r5, [r6, #2]
   10978:	e0860280 	add	r0, r6, r0, lsl #5
   1097c:	e5d62003 	ldrb	r2, [r6, #3]
   10980:	e5d63000 	ldrb	r3, [r6]
   10984:	e1a0100c 	mov	r1, ip
   10988:	e280000c 	add	r0, r0, #12	; 0xc
   1098c:	e58dc000 	str	ip, [sp]

//Usage: highlightRow(&current_display, PREVIOUS);
//Inputs: DisplayStruct *current_display: Pointer to the display structure whose current row value should be changed.
//		  char direction: direction value can be PREVIOUS or NEXT.  Value indicates which row should be highlighted
//Depending on "direction" this value highlights a row, and manages the current_row and current_index values.
void highlightRow(DisplayStruct *display, char direction){
   10990:	e20440ff 	and	r4, r4, #255	; 0xff
	selectLCD();		//Hand over SPI lines to LCD talk
	LCDSetRowColor(display->current_row, 0, display->back_color, display->orientation);
	LCDPrintString(display->list[display->current_index].file_name, 0,display->text_color, display->current_row,0,display->orientation);
   10994:	e58d5004 	str	r5, [sp, #4]
   10998:	eb0011b9 	bl	15084 <LCDPrintString>
   1099c:	e5d63000 	ldrb	r3, [r6]
	if(direction == PREVIOUS){
   109a0:	e3540001 	cmp	r4, #1	; 0x1
   109a4:	e5962008 	ldr	r2, [r6, #8]
		display->current_row--;
   109a8:	02433001 	subeq	r3, r3, #1	; 0x1
		display->current_index--;
	}
	else{
		display->current_row++;
   109ac:	12833001 	addne	r3, r3, #1	; 0x1
   109b0:	e5c63000 	strb	r3, [r6]
	selectLCD();		//Hand over SPI lines to LCD talk
	LCDSetRowColor(display->current_row, 0, display->back_color, display->orientation);
	LCDPrintString(display->list[display->current_index].file_name, 0,display->text_color, display->current_row,0,display->orientation);
	if(direction == PREVIOUS){
		display->current_row--;
		display->current_index--;
   109b4:	02422001 	subeq	r2, r2, #1	; 0x1
	}
	else{
		display->current_row++;
		display->current_index++;		
   109b8:	12822001 	addne	r2, r2, #1	; 0x1
   109bc:	e5862008 	str	r2, [r6, #8]
	}
	LCDSetRowColor(display->current_row, 0, display->text_color, display->orientation);
   109c0:	e5d60000 	ldrb	r0, [r6]
   109c4:	e5d62003 	ldrb	r2, [r6, #3]
   109c8:	e5d63002 	ldrb	r3, [r6, #2]
   109cc:	e3a01000 	mov	r1, #0	; 0x0
   109d0:	eb00127d 	bl	153cc <LCDSetRowColor>
	LCDPrintString(display->list[display->current_index].file_name, 0,display->back_color, display->current_row,0,display->orientation);	
   109d4:	e5960008 	ldr	r0, [r6, #8]
   109d8:	e5d64002 	ldrb	r4, [r6, #2]
   109dc:	e3a0c000 	mov	ip, #0	; 0x0
   109e0:	e0860280 	add	r0, r6, r0, lsl #5
   109e4:	e5d62004 	ldrb	r2, [r6, #4]
   109e8:	e5d63000 	ldrb	r3, [r6]
   109ec:	e280000c 	add	r0, r0, #12	; 0xc
   109f0:	e1a0100c 	mov	r1, ip
   109f4:	e58d4004 	str	r4, [sp, #4]
   109f8:	e58dc000 	str	ip, [sp]
   109fc:	eb0011a0 	bl	15084 <LCDPrintString>
}
   10a00:	e28dd008 	add	sp, sp, #8	; 0x8
   10a04:	e8bd4070 	pop	{r4, r5, r6, lr}
   10a08:	e12fff1e 	bx	lr
   10a0c:	e002c000 	.word	0xe002c000

00010a10 <handleDownButton>:
//Inputs: 	DisplayStruct *display: Display currently being shown to the user.
//			FileStruct *Files: List of files on the SD card
//Outputs: None
//Description: This function will highlight the next row on the screen.  If the file menu is being shown,
// and the last file is currently selected, the function will get the next group of files and display them.
void handleDownButton(DisplayStruct *display, FileStruct *Files){
   10a10:	e92d4030 	push	{r4, r5, lr}
	if(display->current_row <15){	//See if the currently highlighted row is at the bottom of the page
   10a14:	e5d03000 	ldrb	r3, [r0]
   10a18:	e353000e 	cmp	r3, #14	; 0xe
//Inputs: 	DisplayStruct *display: Display currently being shown to the user.
//			FileStruct *Files: List of files on the SD card
//Outputs: None
//Description: This function will highlight the next row on the screen.  If the file menu is being shown,
// and the last file is currently selected, the function will get the next group of files and display them.
void handleDownButton(DisplayStruct *display, FileStruct *Files){
   10a1c:	e1a04000 	mov	r4, r0
   10a20:	e1a05001 	mov	r5, r1
	if(display->current_row <15){	//See if the currently highlighted row is at the bottom of the page
   10a24:	8a000002 	bhi	10a34 <handleDownButton+0x24>
		highlightRow(display, NEXT);	//If it's not, then highlight the next row
   10a28:	e3a01000 	mov	r1, #0	; 0x0
		display->current_row=1;
		display->current_index=0;
		getNewFiles(&file_manager, &Files[0]);
		printMenu(display);				
	}
}
   10a2c:	e8bd4030 	pop	{r4, r5, lr}
//Outputs: None
//Description: This function will highlight the next row on the screen.  If the file menu is being shown,
// and the last file is currently selected, the function will get the next group of files and display them.
void handleDownButton(DisplayStruct *display, FileStruct *Files){
	if(display->current_row <15){	//See if the currently highlighted row is at the bottom of the page
		highlightRow(display, NEXT);	//If it's not, then highlight the next row
   10a30:	eaffffbf 	b	10934 <highlightRow>
	}
	//If the current highlighted row is at the bottom, and there're more songs, then get them
	else if((display->current_row == 15) && (display->current_page < display->total_pages)){
   10a34:	e353000f 	cmp	r3, #15	; 0xf
   10a38:	1a000010 	bne	10a80 <handleDownButton+0x70>
   10a3c:	e5d02006 	ldrb	r2, [r0, #6]
   10a40:	e5d03005 	ldrb	r3, [r0, #5]
   10a44:	e1530002 	cmp	r3, r2
   10a48:	9a00000c 	bls	10a80 <handleDownButton+0x70>
		//Load next 15 songs and reset row, index and offset values
		display->current_page+=1;		
   10a4c:	e2823001 	add	r3, r2, #1	; 0x1
   10a50:	e5c03006 	strb	r3, [r0, #6]
		//if(file_is_open)quickClear(display);
		//else LCDClear(display->back_color);
		quickClear(display);
   10a54:	ebffff50 	bl	1079c <quickClear>
		display->current_row=1;
   10a58:	e3a03001 	mov	r3, #1	; 0x1
   10a5c:	e5c43000 	strb	r3, [r4]
		display->current_index=0;
   10a60:	e3a03000 	mov	r3, #0	; 0x0
   10a64:	e5843008 	str	r3, [r4, #8]
		getNewFiles(&file_manager, &Files[0]);
   10a68:	e1a01005 	mov	r1, r5
   10a6c:	e59f0014 	ldr	r0, [pc, #20]	; 10a88 <handleDownButton+0x78>
   10a70:	ebfffde0 	bl	101f8 <getNewFiles>
		printMenu(display);				
   10a74:	e1a00004 	mov	r0, r4
	}
}
   10a78:	e8bd4030 	pop	{r4, r5, lr}
		//else LCDClear(display->back_color);
		quickClear(display);
		display->current_row=1;
		display->current_index=0;
		getNewFiles(&file_manager, &Files[0]);
		printMenu(display);				
   10a7c:	eaffff79 	b	10868 <printMenu>
	}
}
   10a80:	e8bd4030 	pop	{r4, r5, lr}
   10a84:	e12fff1e 	bx	lr
   10a88:	40000908 	.word	0x40000908

00010a8c <handleUpButton>:
//Inputs: 	DisplayStruct *display: Display currently being shown to the user.
//			FileStruct *Files: List of files on the SD card
//Outputs: None
//Description: This function will highlight the previous row on the screen.  If the file menu is being shown,
// and the first file is currently selected, the function will get the previous group of files and display them.
void handleUpButton(DisplayStruct *display, FileStruct *Files){
   10a8c:	e92d4030 	push	{r4, r5, lr}
	if(display->current_row >1){	//See if the currently highlighted row is at the top of the page
   10a90:	e5d03000 	ldrb	r3, [r0]
   10a94:	e3530001 	cmp	r3, #1	; 0x1
//Inputs: 	DisplayStruct *display: Display currently being shown to the user.
//			FileStruct *Files: List of files on the SD card
//Outputs: None
//Description: This function will highlight the previous row on the screen.  If the file menu is being shown,
// and the first file is currently selected, the function will get the previous group of files and display them.
void handleUpButton(DisplayStruct *display, FileStruct *Files){
   10a98:	e1a04000 	mov	r4, r0
   10a9c:	e1a05001 	mov	r5, r1
	if(display->current_row >1){	//See if the currently highlighted row is at the top of the page
   10aa0:	9a000002 	bls	10ab0 <handleUpButton+0x24>
		highlightRow(display, PREVIOUS); //If it isn't, then highlight the previous row
   10aa4:	e3a01001 	mov	r1, #1	; 0x1
		display->current_row=15;					//Start current row at bottom of next screen
		display->current_index=14;					//
		getNewFiles(&file_manager, &Files[0]);		//Load the previous page
		printMenu(display);							//	display previous page
	}
}
   10aa8:	e8bd4030 	pop	{r4, r5, lr}
//Outputs: None
//Description: This function will highlight the previous row on the screen.  If the file menu is being shown,
// and the first file is currently selected, the function will get the previous group of files and display them.
void handleUpButton(DisplayStruct *display, FileStruct *Files){
	if(display->current_row >1){	//See if the currently highlighted row is at the top of the page
		highlightRow(display, PREVIOUS); //If it isn't, then highlight the previous row
   10aac:	eaffffa0 	b	10934 <highlightRow>
	}
	//If the current row is at the top of the page, and there are previous songs, then get them.
	else if((display->current_row == 1) && (display->current_page > 0)){	//If a prev. page exists, load it
   10ab0:	1a00000f 	bne	10af4 <handleUpButton+0x68>
   10ab4:	e5d03006 	ldrb	r3, [r0, #6]
   10ab8:	e3530000 	cmp	r3, #0	; 0x0
   10abc:	0a00000c 	beq	10af4 <handleUpButton+0x68>
		//Load previous 15 songs and reset row, index and offset values
		display->current_page-=1;					//Set the "new" current page to be loaded
   10ac0:	e2433001 	sub	r3, r3, #1	; 0x1
   10ac4:	e5c03006 	strb	r3, [r0, #6]
		//if(file_is_open)quickClear(display);
		//else LCDClear(display->back_color);
		quickClear(display);
   10ac8:	ebffff33 	bl	1079c <quickClear>
		display->current_row=15;					//Start current row at bottom of next screen
   10acc:	e3a0300f 	mov	r3, #15	; 0xf
   10ad0:	e5c43000 	strb	r3, [r4]
		display->current_index=14;					//
   10ad4:	e3a0300e 	mov	r3, #14	; 0xe
   10ad8:	e5843008 	str	r3, [r4, #8]
		getNewFiles(&file_manager, &Files[0]);		//Load the previous page
   10adc:	e1a01005 	mov	r1, r5
   10ae0:	e59f0014 	ldr	r0, [pc, #20]	; 10afc <handleUpButton+0x70>
   10ae4:	ebfffdc3 	bl	101f8 <getNewFiles>
		printMenu(display);							//	display previous page
   10ae8:	e1a00004 	mov	r0, r4
	}
}
   10aec:	e8bd4030 	pop	{r4, r5, lr}
		//else LCDClear(display->back_color);
		quickClear(display);
		display->current_row=15;					//Start current row at bottom of next screen
		display->current_index=14;					//
		getNewFiles(&file_manager, &Files[0]);		//Load the previous page
		printMenu(display);							//	display previous page
   10af0:	eaffff5c 	b	10868 <printMenu>
	}
}
   10af4:	e8bd4030 	pop	{r4, r5, lr}
   10af8:	e12fff1e 	bx	lr
   10afc:	40000908 	.word	0x40000908

00010b00 <clearScreen>:
  LCDPrintLogo();  // Print the Sparkfun Logo
}

// Clear the screen, cheap if possible.
//
void clearScreen(void) {
   10b00:	e52de004 	push	{lr}		; (str lr, [sp, #-4]!)
  if (file_is_open) {
   10b04:	e59f302c 	ldr	r3, [pc, #44]	; 10b38 <clearScreen+0x38>
   10b08:	e5d33000 	ldrb	r3, [r3]
   10b0c:	e3530000 	cmp	r3, #0	; 0x0
   10b10:	e59f0024 	ldr	r0, [pc, #36]	; 10b3c <clearScreen+0x3c>
   10b14:	0a000002 	beq	10b24 <clearScreen+0x24>
    quickClear(current_display);
   10b18:	e5900000 	ldr	r0, [r0]
  } else {
    LCDClear(current_display->back_color);
  }
}
   10b1c:	e49de004 	pop	{lr}		; (ldr lr, [sp], #4)

// Clear the screen, cheap if possible.
//
void clearScreen(void) {
  if (file_is_open) {
    quickClear(current_display);
   10b20:	eaffff1d 	b	1079c <quickClear>
  } else {
    LCDClear(current_display->back_color);
   10b24:	e5903000 	ldr	r3, [r0]
   10b28:	e5d30004 	ldrb	r0, [r3, #4]
   10b2c:	eb001096 	bl	14d8c <LCDClear>
  }
}
   10b30:	e49de004 	pop	{lr}		; (ldr lr, [sp], #4)
   10b34:	e12fff1e 	bx	lr
   10b38:	40000895 	.word	0x40000895
   10b3c:	40000d10 	.word	0x40000d10

00010b40 <handleAccelerometer>:
// Accelerometer
//

// 
//
void handleAccelerometer(void) {
   10b40:	e92d4010 	push	{r4, lr}
}

// Stop the UI interrupt from triggering. (And stabilize/debounce for t miliseconds)
//
void disableUIInterrupt(int t) {
  VICIntEnClr = 0x10;
   10b44:	e3a02010 	mov	r2, #16	; 0x10
   10b48:	e3e03000 	mvn	r3, #0	; 0x0
   10b4c:	e5032feb 	str	r2, [r3, #-4075]
// The function will cause the firmware to delay for "count" milleseconds.
void delay_ms(int count)
{
  int i;
  count *= 10000;
  for (i = 0; i < count; i++) { asm volatile ("nop"); }
   10b50:	e59f20c8 	ldr	r2, [pc, #200]	; 10c20 <handleAccelerometer+0xe0>
}

// Stop the UI interrupt from triggering. (And stabilize/debounce for t miliseconds)
//
void disableUIInterrupt(int t) {
  VICIntEnClr = 0x10;
   10b54:	e2833001 	add	r3, r3, #1	; 0x1
// The function will cause the firmware to delay for "count" milleseconds.
void delay_ms(int count)
{
  int i;
  count *= 10000;
  for (i = 0; i < count; i++) { asm volatile ("nop"); }
   10b58:	e1a00000 	nop			(mov r0,r0)
   10b5c:	e2833001 	add	r3, r3, #1	; 0x1
   10b60:	e1530002 	cmp	r3, r2
   10b64:	1afffffb 	bne	10b58 <handleAccelerometer+0x18>
//
void handleAccelerometer(void) {
  // Disable UI interrupts
  disableUIInterrupt(DEBOUNCE_ACCELEROMETER);
  // Get new accelerometer value; make sure position is correct.
  if (wishesSettings()) {
   10b68:	ebfffeb0 	bl	10630 <wishesSettings>
   10b6c:	e2504000 	subs	r4, r0, #0	; 0x0
   10b70:	0a00000e 	beq	10bb0 <handleAccelerometer+0x70>
    clearScreen();
   10b74:	ebffffe1 	bl	10b00 <clearScreen>
    current_display = &settings_menu;
    current_display->orientation = ORIENTLEFT;
    ledBlueOff();
    if (file_is_open) {
   10b78:	e59f30a4 	ldr	r3, [pc, #164]	; 10c24 <handleAccelerometer+0xe4>
   10b7c:	e5d33000 	ldrb	r3, [r3]
  // Disable UI interrupts
  disableUIInterrupt(DEBOUNCE_ACCELEROMETER);
  // Get new accelerometer value; make sure position is correct.
  if (wishesSettings()) {
    clearScreen();
    current_display = &settings_menu;
   10b80:	e59f20a0 	ldr	r2, [pc, #160]	; 10c28 <handleAccelerometer+0xe8>
    current_display->orientation = ORIENTLEFT;
    ledBlueOff();
    if (file_is_open) {
   10b84:	e3530000 	cmp	r3, #0	; 0x0
  disableUIInterrupt(DEBOUNCE_ACCELEROMETER);
  // Get new accelerometer value; make sure position is correct.
  if (wishesSettings()) {
    clearScreen();
    current_display = &settings_menu;
    current_display->orientation = ORIENTLEFT;
   10b88:	e3a03001 	mov	r3, #1	; 0x1
   10b8c:	e5c23002 	strb	r3, [r2, #2]
  // Disable UI interrupts
  disableUIInterrupt(DEBOUNCE_ACCELEROMETER);
  // Get new accelerometer value; make sure position is correct.
  if (wishesSettings()) {
    clearScreen();
    current_display = &settings_menu;
   10b90:	e59f3094 	ldr	r3, [pc, #148]	; 10c2c <handleAccelerometer+0xec>
    current_display->orientation = ORIENTLEFT;
    ledBlueOff();
   10b94:	e59f1094 	ldr	r1, [pc, #148]	; 10c30 <handleAccelerometer+0xf0>
  // Disable UI interrupts
  disableUIInterrupt(DEBOUNCE_ACCELEROMETER);
  // Get new accelerometer value; make sure position is correct.
  if (wishesSettings()) {
    clearScreen();
    current_display = &settings_menu;
   10b98:	e5832000 	str	r2, [r3]
    current_display->orientation = ORIENTLEFT;
    ledBlueOff();
   10b9c:	e3a03202 	mov	r3, #536870912	; 0x20000000
   10ba0:	e5813004 	str	r3, [r1, #4]
    if (file_is_open) {
      ledGrnOn();
   10ba4:	1283320f 	addne	r3, r3, #-268435456	; 0xf0000000
    } else {
      ledRedOn();
   10ba8:	03a03101 	moveq	r3, #1073741824	; 0x40000000
   10bac:	ea000011 	b	10bf8 <handleAccelerometer+0xb8>
    }
  } else if (wishesFileManager()) {
   10bb0:	ebfffe8f 	bl	105f4 <wishesFileManager>
   10bb4:	e3500000 	cmp	r0, #0	; 0x0
   10bb8:	0a00000f 	beq	10bfc <handleAccelerometer+0xbc>
    clearScreen();
   10bbc:	ebffffcf 	bl	10b00 <clearScreen>
    current_display = &file_manager;
    current_display->orientation = ORIENTUP;
    ledGrnOff();
    ledRedOff();
    if (file_is_open) {
   10bc0:	e59f305c 	ldr	r3, [pc, #92]	; 10c24 <handleAccelerometer+0xe4>
   10bc4:	e5d33000 	ldrb	r3, [r3]
    } else {
      ledRedOn();
    }
  } else if (wishesFileManager()) {
    clearScreen();
    current_display = &file_manager;
   10bc8:	e59f2064 	ldr	r2, [pc, #100]	; 10c34 <handleAccelerometer+0xf4>
    current_display->orientation = ORIENTUP;
    ledGrnOff();
   10bcc:	e59f105c 	ldr	r1, [pc, #92]	; 10c30 <handleAccelerometer+0xf0>
    ledRedOff();
    if (file_is_open) {
   10bd0:	e3530000 	cmp	r3, #0	; 0x0
    }
  } else if (wishesFileManager()) {
    clearScreen();
    current_display = &file_manager;
    current_display->orientation = ORIENTUP;
    ledGrnOff();
   10bd4:	e3a03201 	mov	r3, #268435456	; 0x10000000
      ledRedOn();
    }
  } else if (wishesFileManager()) {
    clearScreen();
    current_display = &file_manager;
    current_display->orientation = ORIENTUP;
   10bd8:	e5c24002 	strb	r4, [r2, #2]
    ledGrnOff();
   10bdc:	e5813004 	str	r3, [r1, #4]
    } else {
      ledRedOn();
    }
  } else if (wishesFileManager()) {
    clearScreen();
    current_display = &file_manager;
   10be0:	e59f3044 	ldr	r3, [pc, #68]	; 10c2c <handleAccelerometer+0xec>
   10be4:	e5832000 	str	r2, [r3]
    current_display->orientation = ORIENTUP;
    ledGrnOff();
    ledRedOff();
   10be8:	e3a03101 	mov	r3, #1073741824	; 0x40000000
   10bec:	e5813004 	str	r3, [r1, #4]
    if (file_is_open) {
   10bf0:	0a000001 	beq	10bfc <handleAccelerometer+0xbc>
      ledBlueOn();
   10bf4:	e283320e 	add	r3, r3, #-536870912	; 0xe0000000
   10bf8:	e581300c 	str	r3, [r1, #12]
    }
  }
  // If the screen has changed, show the new menu
  printMenu(current_display);
   10bfc:	e59f3028 	ldr	r3, [pc, #40]	; 10c2c <handleAccelerometer+0xec>
   10c00:	e5930000 	ldr	r0, [r3]
   10c04:	ebffff17 	bl	10868 <printMenu>
}

// Start the interrupts again.
//
void enableUIInterrupt(void) {
  VICIntEnable |= 0x10;
   10c08:	e3e02000 	mvn	r2, #0	; 0x0
   10c0c:	e5123fef 	ldr	r3, [r2, #-4079]
   10c10:	e3833010 	orr	r3, r3, #16	; 0x10
   10c14:	e5023fef 	str	r3, [r2, #-4079]
  }
  // If the screen has changed, show the new menu
  printMenu(current_display);
  // Reenable UI interrupts
  enableUIInterrupt();
}
   10c18:	e8bd4010 	pop	{r4, lr}
   10c1c:	e12fff1e 	bx	lr
   10c20:	002dc6c0 	.word	0x002dc6c0
   10c24:	40000895 	.word	0x40000895
   10c28:	40000b0c 	.word	0x40000b0c
   10c2c:	40000d10 	.word	0x40000d10
   10c30:	e0028000 	.word	0xe0028000
   10c34:	40000908 	.word	0x40000908

00010c38 <splashScreen>:
// LCD
//

// Show the splash-screen (Sparkfun Logo)
//
void splashScreen(void) {
   10c38:	e52de004 	push	{lr}		; (str lr, [sp, #-4]!)
  LCDInit();       // Initialize the LCD
   10c3c:	eb001218 	bl	154a4 <LCDInit>
  LCDClear(white); // Clear the screen with white
   10c40:	e59f3010 	ldr	r3, [pc, #16]	; 10c58 <splashScreen+0x20>
   10c44:	e5d30000 	ldrb	r0, [r3]
   10c48:	eb00104f 	bl	14d8c <LCDClear>
  LCDPrintLogo();  // Print the Sparkfun Logo
   10c4c:	eb00108c 	bl	14e84 <LCDPrintLogo>
}
   10c50:	e49de004 	pop	{lr}		; (ldr lr, [sp], #4)
   10c54:	e12fff1e 	bx	lr
   10c58:	40000f28 	.word	0x40000f28

00010c5c <lowerVolume>:
  LCDPrintString("%d", volume_setting, current_display->text_color, 2, 0, current_display->orientation);
}

// Lowers the volume by n.
//
void lowerVolume(int n) {
   10c5c:	e92d4070 	push	{r4, r5, r6, lr}
   10c60:	e1a05000 	mov	r5, r0
   10c64:	e24dd008 	sub	sp, sp, #8	; 0x8
   10c68:	e3a04000 	mov	r4, #0	; 0x0
   10c6c:	e59f608c 	ldr	r6, [pc, #140]	; 10d00 <lowerVolume+0xa4>
   10c70:	ea00000a 	b	10ca0 <lowerVolume+0x44>
  for(char i = 0; i < n; i++) {
    if(volume_setting >= 0){
   10c74:	e5963000 	ldr	r3, [r6]
   10c78:	e3530000 	cmp	r3, #0	; 0x0
      volume_setting--;
   10c7c:	e2432001 	sub	r2, r3, #1	; 0x1

// Lowers the volume by n.
//
void lowerVolume(int n) {
  for(char i = 0; i < n; i++) {
    if(volume_setting >= 0){
   10c80:	ba000004 	blt	10c98 <lowerVolume+0x3c>
      volume_setting--;
   10c84:	e5862000 	str	r2, [r6]
      vs1002Config();             // Enable the MP3 Comm. Lines
   10c88:	eb00127f 	bl	1568c <vs1002Config>
      vs1002SetVolume(DECREASE);  // Lower the volume
   10c8c:	e3a00030 	mov	r0, #48	; 0x30
   10c90:	eb001303 	bl	158a4 <vs1002SetVolume>
      vs1002Finish();             // Disable MP3 Comm. Lines
   10c94:	eb001286 	bl	156b4 <vs1002Finish>
}

// Lowers the volume by n.
//
void lowerVolume(int n) {
  for(char i = 0; i < n; i++) {
   10c98:	e2843001 	add	r3, r4, #1	; 0x1
   10c9c:	e20340ff 	and	r4, r3, #255	; 0xff
   10ca0:	e1540005 	cmp	r4, r5
   10ca4:	bafffff2 	blt	10c74 <lowerVolume+0x18>
      vs1002Config();             // Enable the MP3 Comm. Lines
      vs1002SetVolume(DECREASE);  // Lower the volume
      vs1002Finish();             // Disable MP3 Comm. Lines
    }
  }
  LCDSetRowColor(2, 0, current_display->back_color, current_display->orientation);
   10ca8:	e59f4054 	ldr	r4, [pc, #84]	; 10d04 <lowerVolume+0xa8>
   10cac:	e5942000 	ldr	r2, [r4]
   10cb0:	e3a00002 	mov	r0, #2	; 0x2
   10cb4:	e5d23002 	ldrb	r3, [r2, #2]
   10cb8:	e3a01000 	mov	r1, #0	; 0x0
   10cbc:	e5d22004 	ldrb	r2, [r2, #4]
   10cc0:	eb0011c1 	bl	153cc <LCDSetRowColor>
  LCDPrintString("%d", volume_setting, white, 2, 0, current_display->orientation);
   10cc4:	e3a03000 	mov	r3, #0	; 0x0
   10cc8:	e58d3000 	str	r3, [sp]
   10ccc:	e59f3034 	ldr	r3, [pc, #52]	; 10d08 <lowerVolume+0xac>
   10cd0:	e5941000 	ldr	r1, [r4]
   10cd4:	e5d32000 	ldrb	r2, [r3]
   10cd8:	e59f3020 	ldr	r3, [pc, #32]	; 10d00 <lowerVolume+0xa4>
   10cdc:	e5d1c002 	ldrb	ip, [r1, #2]
   10ce0:	e59f0024 	ldr	r0, [pc, #36]	; 10d0c <lowerVolume+0xb0>
   10ce4:	e5931000 	ldr	r1, [r3]
   10ce8:	e3a03002 	mov	r3, #2	; 0x2
   10cec:	e58dc004 	str	ip, [sp, #4]
   10cf0:	eb0010e3 	bl	15084 <LCDPrintString>
}
   10cf4:	e28dd008 	add	sp, sp, #8	; 0x8
   10cf8:	e8bd4070 	pop	{r4, r5, r6, lr}
   10cfc:	e12fff1e 	bx	lr
   10d00:	40000000 	.word	0x40000000
   10d04:	40000d10 	.word	0x40000d10
   10d08:	40000f28 	.word	0x40000f28
   10d0c:	00019354 	.word	0x00019354

00010d10 <raiseVolume>:
// VOLUME
//

// Raises the Volume by n.
//
void raiseVolume(int n) {
   10d10:	e92d4070 	push	{r4, r5, r6, lr}
   10d14:	e1a05000 	mov	r5, r0
   10d18:	e24dd008 	sub	sp, sp, #8	; 0x8
   10d1c:	e3a04000 	mov	r4, #0	; 0x0
   10d20:	e59f6088 	ldr	r6, [pc, #136]	; 10db0 <raiseVolume+0xa0>
   10d24:	ea00000a 	b	10d54 <raiseVolume+0x44>
  for(char i = 0; i < n; i++) {
    if(volume_setting < 32){
   10d28:	e5963000 	ldr	r3, [r6]
   10d2c:	e353001f 	cmp	r3, #31	; 0x1f
   10d30:	ca000005 	bgt	10d4c <raiseVolume+0x3c>
      volume_setting += 1;
   10d34:	e2833001 	add	r3, r3, #1	; 0x1
   10d38:	e5863000 	str	r3, [r6]
      vs1002Config();             // Enable the MP3 Comm. Lines
   10d3c:	eb001252 	bl	1568c <vs1002Config>
      vs1002SetVolume(INCREASE);  // Raise the volume
   10d40:	e3a00031 	mov	r0, #49	; 0x31
   10d44:	eb0012d6 	bl	158a4 <vs1002SetVolume>
      vs1002Finish();             // Disable MP3 Comm. Lines
   10d48:	eb001259 	bl	156b4 <vs1002Finish>
//

// Raises the Volume by n.
//
void raiseVolume(int n) {
  for(char i = 0; i < n; i++) {
   10d4c:	e2843001 	add	r3, r4, #1	; 0x1
   10d50:	e20340ff 	and	r4, r3, #255	; 0xff
   10d54:	e1540005 	cmp	r4, r5
   10d58:	bafffff2 	blt	10d28 <raiseVolume+0x18>
      vs1002Config();             // Enable the MP3 Comm. Lines
      vs1002SetVolume(INCREASE);  // Raise the volume
      vs1002Finish();             // Disable MP3 Comm. Lines
    }
  }
  LCDSetRowColor(2, 0, current_display->back_color, current_display->orientation);
   10d5c:	e59f4050 	ldr	r4, [pc, #80]	; 10db4 <raiseVolume+0xa4>
   10d60:	e5942000 	ldr	r2, [r4]
   10d64:	e3a00002 	mov	r0, #2	; 0x2
   10d68:	e5d23002 	ldrb	r3, [r2, #2]
   10d6c:	e3a01000 	mov	r1, #0	; 0x0
   10d70:	e5d22004 	ldrb	r2, [r2, #4]
   10d74:	eb001194 	bl	153cc <LCDSetRowColor>
  LCDPrintString("%d", volume_setting, current_display->text_color, 2, 0, current_display->orientation);
   10d78:	e5941000 	ldr	r1, [r4]
   10d7c:	e3a03000 	mov	r3, #0	; 0x0
   10d80:	e5d12003 	ldrb	r2, [r1, #3]
   10d84:	e58d3000 	str	r3, [sp]
   10d88:	e59f3020 	ldr	r3, [pc, #32]	; 10db0 <raiseVolume+0xa0>
   10d8c:	e5d1c002 	ldrb	ip, [r1, #2]
   10d90:	e59f0020 	ldr	r0, [pc, #32]	; 10db8 <raiseVolume+0xa8>
   10d94:	e5931000 	ldr	r1, [r3]
   10d98:	e3a03002 	mov	r3, #2	; 0x2
   10d9c:	e58dc004 	str	ip, [sp, #4]
   10da0:	eb0010b7 	bl	15084 <LCDPrintString>
}
   10da4:	e28dd008 	add	sp, sp, #8	; 0x8
   10da8:	e8bd4070 	pop	{r4, r5, r6, lr}
   10dac:	e12fff1e 	bx	lr
   10db0:	40000000 	.word	0x40000000
   10db4:	40000d10 	.word	0x40000d10
   10db8:	00019354 	.word	0x00019354

00010dbc <sendMP3Data>:
  IODIR0 |= (LCD_DIO | LCD_SCK | LCD_CS | LCD_RES); // Assign LCD pins as Outputs
}

// Sends a piece of mp3 data from the current song.
//
void sendMP3Data(void) {
   10dbc:	e92d41f0 	push	{r4, r5, r6, r7, r8, lr}
  vs1002Config();                                         // Enable MP3 Comm. Lines
   10dc0:	eb001231 	bl	1568c <vs1002Config>
  while (IOPIN0 & MP3_DREQ) {
   10dc4:	e59f8054 	ldr	r8, [pc, #84]	; 10e20 <sendMP3Data+0x64>
    vs1002SendMusic(current_song.data, MAXBUFFERSIZE);    //Send 32 Bytes of buffered song data
    // Buffer more data if available
    if (fat16_read_file(current_song.handle, current_song.data, MAXBUFFERSIZE) <= 0) {
   10dc8:	e59f7054 	ldr	r7, [pc, #84]	; 10e24 <sendMP3Data+0x68>
   10dcc:	e59f4054 	ldr	r4, [pc, #84]	; 10e28 <sendMP3Data+0x6c>
      song_is_over = 1;
    } else {
      song_is_over = 0; // If there's no more data available, set the flag, else leave it alone
   10dd0:	e3a06000 	mov	r6, #0	; 0x0
  vs1002Config();                                         // Enable MP3 Comm. Lines
  while (IOPIN0 & MP3_DREQ) {
    vs1002SendMusic(current_song.data, MAXBUFFERSIZE);    //Send 32 Bytes of buffered song data
    // Buffer more data if available
    if (fat16_read_file(current_song.handle, current_song.data, MAXBUFFERSIZE) <= 0) {
      song_is_over = 1;
   10dd4:	e3a05001 	mov	r5, #1	; 0x1
   10dd8:	ea000008 	b	10e00 <sendMP3Data+0x44>
// Sends a piece of mp3 data from the current song.
//
void sendMP3Data(void) {
  vs1002Config();                                         // Enable MP3 Comm. Lines
  while (IOPIN0 & MP3_DREQ) {
    vs1002SendMusic(current_song.data, MAXBUFFERSIZE);    //Send 32 Bytes of buffered song data
   10ddc:	eb001247 	bl	15700 <vs1002SendMusic>
    // Buffer more data if available
    if (fat16_read_file(current_song.handle, current_song.data, MAXBUFFERSIZE) <= 0) {
   10de0:	e5970034 	ldr	r0, [r7, #52]
   10de4:	e59f1040 	ldr	r1, [pc, #64]	; 10e2c <sendMP3Data+0x70>
   10de8:	e3a02020 	mov	r2, #32	; 0x20
   10dec:	eb000a4a 	bl	1371c <fat16_read_file>
   10df0:	e1a00800 	lsl	r0, r0, #16
   10df4:	e3500000 	cmp	r0, #0	; 0x0
      song_is_over = 1;
   10df8:	d5c45000 	strble	r5, [r4]
    } else {
      song_is_over = 0; // If there's no more data available, set the flag, else leave it alone
   10dfc:	c5c46000 	strbgt	r6, [r4]

// Sends a piece of mp3 data from the current song.
//
void sendMP3Data(void) {
  vs1002Config();                                         // Enable MP3 Comm. Lines
  while (IOPIN0 & MP3_DREQ) {
   10e00:	e5983000 	ldr	r3, [r8]
   10e04:	e3130602 	tst	r3, #2097152	; 0x200000
    vs1002SendMusic(current_song.data, MAXBUFFERSIZE);    //Send 32 Bytes of buffered song data
   10e08:	e59f001c 	ldr	r0, [pc, #28]	; 10e2c <sendMP3Data+0x70>
   10e0c:	e3a01020 	mov	r1, #32	; 0x20

// Sends a piece of mp3 data from the current song.
//
void sendMP3Data(void) {
  vs1002Config();                                         // Enable MP3 Comm. Lines
  while (IOPIN0 & MP3_DREQ) {
   10e10:	1afffff1 	bne	10ddc <sendMP3Data+0x20>
      song_is_over = 1;
    } else {
      song_is_over = 0; // If there's no more data available, set the flag, else leave it alone
    }
  }
  vs1002Finish();                                         // Disable MP3 Comm. Lines
   10e14:	eb001226 	bl	156b4 <vs1002Finish>
}
   10e18:	e8bd41f0 	pop	{r4, r5, r6, r7, r8, lr}
   10e1c:	e12fff1e 	bx	lr
   10e20:	e0028000 	.word	0xe0028000
   10e24:	400008a8 	.word	0x400008a8
   10e28:	40000896 	.word	0x40000896
   10e2c:	400008e5 	.word	0x400008e5

00010e30 <timer1ISR>:
//  This function is a global interrupt called by a match on the Timer 1 match.
//  This interrupt is responsible for sending music to the MP3 player when it is needed. 
//  WARNING: Altering the Timer 1 Prescale register or Timer 1 Match value will put proper MP3 playing at risk.
//           Adding superfluous code to this interrupt section may also contribute to improper MP3 playback.
//
static void timer1ISR(void) {
   10e30:	e52de004 	push	{lr}		; (str lr, [sp, #-4]!)
  sendMP3Data();
   10e34:	ebffffe0 	bl	10dbc <sendMP3Data>
  
  T1IR = 0xFF;      // Clear the timer 1 interrupt
   10e38:	e59f3018 	ldr	r3, [pc, #24]	; 10e58 <timer1ISR+0x28>
   10e3c:	e3a020ff 	mov	r2, #255	; 0xff
   10e40:	e5832000 	str	r2, [r3]
  VICVectAddr = 0;  // Update VIC priorities
   10e44:	e3a02000 	mov	r2, #0	; 0x0
   10e48:	e3e03000 	mvn	r3, #0	; 0x0
   10e4c:	e5032fcf 	str	r2, [r3, #-4047]
}
   10e50:	e49de004 	pop	{lr}		; (ldr lr, [sp], #4)
   10e54:	e12fff1e 	bx	lr
   10e58:	e0008000 	.word	0xe0008000

00010e5c <startMP3Player>:
  vs1002Finish(); // Restore the SPI I/O lines
}

// Start playing.
//
void startMP3Player(void) {
   10e5c:	e92d4010 	push	{r4, lr}
  vs1002Config();                       // Enable the MP3 Comm. Lines
   10e60:	eb001209 	bl	1568c <vs1002Config>
  vs1002SCIWrite(SCI_MODE, SM_SDINEW);  // Make sure the MP3 player is in the right mode.
  vs1002Finish();                       // Disable the MP3 Comm. Lines
  ledBlueOn();
   10e64:	e59f4050 	ldr	r4, [pc, #80]	; 10ebc <startMP3Player+0x60>

// Start playing.
//
void startMP3Player(void) {
  vs1002Config();                       // Enable the MP3 Comm. Lines
  vs1002SCIWrite(SCI_MODE, SM_SDINEW);  // Make sure the MP3 player is in the right mode.
   10e68:	e3a00000 	mov	r0, #0	; 0x0
   10e6c:	e3a01b02 	mov	r1, #2048	; 0x800
   10e70:	eb00124f 	bl	157b4 <vs1002SCIWrite>
  vs1002Finish();                       // Disable the MP3 Comm. Lines
   10e74:	eb00120e 	bl	156b4 <vs1002Finish>
  ledBlueOn();
   10e78:	e3a03202 	mov	r3, #536870912	; 0x20000000
   10e7c:	e584300c 	str	r3, [r4, #12]
  sendMP3Data();                        // Send first song data
   10e80:	ebffffcd 	bl	10dbc <sendMP3Data>
  PINSEL1 |= 0x00000C00;
   10e84:	e59f2034 	ldr	r2, [pc, #52]	; 10ec0 <startMP3Player+0x64>
   10e88:	e5923004 	ldr	r3, [r2, #4]
   10e8c:	e3833b03 	orr	r3, r3, #3072	; 0xc00
   10e90:	e5823004 	str	r3, [r2, #4]
}

// Enable the MP3 interrupt.
//
void enableMP3Interrupt(void) {
  VICIntEnable |= 0x20;
   10e94:	e3e02000 	mvn	r2, #0	; 0x0
   10e98:	e5123fef 	ldr	r3, [r2, #-4079]
   10e9c:	e3833020 	orr	r3, r3, #32	; 0x20
   10ea0:	e5023fef 	str	r3, [r2, #-4079]
  vs1002Finish();                       // Disable the MP3 Comm. Lines
  ledBlueOn();
  sendMP3Data();                        // Send first song data
  PINSEL1 |= 0x00000C00;
  enableMP3Interrupt();
  IODIR0 |= (LCD_DIO | LCD_SCK | LCD_CS | LCD_RES); // Assign LCD pins as Outputs
   10ea4:	e5943008 	ldr	r3, [r4, #8]
   10ea8:	e3833703 	orr	r3, r3, #786432	; 0xc0000
   10eac:	e3833050 	orr	r3, r3, #80	; 0x50
   10eb0:	e5843008 	str	r3, [r4, #8]
}
   10eb4:	e8bd4010 	pop	{r4, lr}
   10eb8:	e12fff1e 	bx	lr
   10ebc:	e0028000 	.word	0xe0028000
   10ec0:	e002c000 	.word	0xe002c000

00010ec4 <initializeMP3Player>:
// MP3
//

// Initialize the MP3 player with double clock speed and lower volume.
//
void initializeMP3Player(void) {
   10ec4:	e52de004 	push	{lr}		; (str lr, [sp, #-4]!)
  vs1002Config(); // Configure MP3 I/O
   10ec8:	eb0011ef 	bl	1568c <vs1002Config>
  vs1002Reset();  // Reset MP3 Player
   10ecc:	eb0011ff 	bl	156d0 <vs1002Reset>
  vs1002Init();   // Double the clock speed and set to "New" mode
   10ed0:	eb001251 	bl	1581c <vs1002Init>
  lowerVolume(5); // Lower the Volume a bit
   10ed4:	e3a00005 	mov	r0, #5	; 0x5
   10ed8:	ebffff5f 	bl	10c5c <lowerVolume>
  vs1002Finish(); // Restore the SPI I/O lines
   10edc:	eb0011f4 	bl	156b4 <vs1002Finish>
}
   10ee0:	e49de004 	pop	{lr}		; (ldr lr, [sp], #4)
   10ee4:	e12fff1e 	bx	lr

00010ee8 <changeRadioFrequency>:
}

// Change the radio frequency by f where change is 0.1 times f Mhz.
//
void changeRadioFrequency(int f) {
  if ((885 < radio_channel) && (radio_channel < 1075)) {
   10ee8:	e59f1030 	ldr	r1, [pc, #48]	; 10f20 <changeRadioFrequency+0x38>
   10eec:	e5912000 	ldr	r2, [r1]
   10ef0:	e2423fdd 	sub	r3, r2, #884	; 0x374
   10ef4:	e2433002 	sub	r3, r3, #2	; 0x2
   10ef8:	e35300bc 	cmp	r3, #188	; 0xbc
    radio_channel += f;
   10efc:	90803002 	addls	r3, r0, r2
   10f00:	95813000 	strls	r3, [r1]
  deselectRadio();   // Unselect the FM transmitter
}

// Change the radio frequency by f where change is 0.1 times f Mhz.
//
void changeRadioFrequency(int f) {
   10f04:	e52de004 	push	{lr}		; (str lr, [sp, #-4]!)
  if ((885 < radio_channel) && (radio_channel < 1075)) {
    radio_channel += f;
  }
  displayRadioMenu();
   10f08:	ebfffe07 	bl	1072c <displayRadioMenu>
  ns73SetChannel(radio_channel); // TODO or setRadioFrequency?
   10f0c:	e59f300c 	ldr	r3, [pc, #12]	; 10f20 <changeRadioFrequency+0x38>
   10f10:	e5930000 	ldr	r0, [r3]
   10f14:	eb0012fa 	bl	15b04 <ns73SetChannel>
}
   10f18:	e49de004 	pop	{lr}		; (ldr lr, [sp], #4)
   10f1c:	e12fff1e 	bx	lr
   10f20:	40000004 	.word	0x40000004

00010f24 <setRadioFrequency>:
  PINSEL0 &= 0xFFFFC00F;
}

// Hand over SPI lines to radio talk.
void selectRadio(void) {
  IOCLR1 |= FM_CS;
   10f24:	e59f204c 	ldr	r2, [pc, #76]	; 10f78 <setRadioFrequency+0x54>
   10f28:	e592301c 	ldr	r3, [r2, #28]
   10f2c:	e3833201 	orr	r3, r3, #268435456	; 0x10000000
   10f30:	e582301c 	str	r3, [r2, #28]
// The function will cause the firmware to delay for "count" milleseconds.
void delay_ms(int count)
{
  int i;
  count *= 10000;
  for (i = 0; i < count; i++) { asm volatile ("nop"); }
   10f34:	e59f2040 	ldr	r2, [pc, #64]	; 10f7c <setRadioFrequency+0x58>
  deselectRadio();      //Unselect the FM transmitter
}

// Set the radio frequency to f where f is i.e. 1000 for 100.0 Mhz.
//
void setRadioFrequency(int f) {
   10f38:	e92d4010 	push	{r4, lr}
  PINSEL0 &= 0xFFFFC00F;
}

// Hand over SPI lines to radio talk.
void selectRadio(void) {
  IOCLR1 |= FM_CS;
   10f3c:	e3a03000 	mov	r3, #0	; 0x0
  deselectRadio();      //Unselect the FM transmitter
}

// Set the radio frequency to f where f is i.e. 1000 for 100.0 Mhz.
//
void setRadioFrequency(int f) {
   10f40:	e1a04000 	mov	r4, r0
// The function will cause the firmware to delay for "count" milleseconds.
void delay_ms(int count)
{
  int i;
  count *= 10000;
  for (i = 0; i < count; i++) { asm volatile ("nop"); }
   10f44:	e1a00000 	nop			(mov r0,r0)
   10f48:	e2833001 	add	r3, r3, #1	; 0x1
   10f4c:	e1530002 	cmp	r3, r2
   10f50:	1afffffb 	bne	10f44 <setRadioFrequency+0x20>

// Set the radio frequency to f where f is i.e. 1000 for 100.0 Mhz.
//
void setRadioFrequency(int f) {
  selectRadio();     // Select the FM transmitter
  ns73Config();      // Configure the FM Trans. I/O
   10f54:	eb00131c 	bl	15bcc <ns73Config>
  ns73SetChannel(f); // Set the channel	
   10f58:	e1a00004 	mov	r0, r4
   10f5c:	eb0012e8 	bl	15b04 <ns73SetChannel>
  // In enableRadio: delay_ms(900); // TODO Does this really need to be 900?
}

// Hand off SPI lines from radio talk.
void deselectRadio(void) {
  IOSET1 |= FM_CS;
   10f60:	e59f2010 	ldr	r2, [pc, #16]	; 10f78 <setRadioFrequency+0x54>
   10f64:	e5923014 	ldr	r3, [r2, #20]
   10f68:	e3833201 	orr	r3, r3, #268435456	; 0x10000000
   10f6c:	e5823014 	str	r3, [r2, #20]
void setRadioFrequency(int f) {
  selectRadio();     // Select the FM transmitter
  ns73Config();      // Configure the FM Trans. I/O
  ns73SetChannel(f); // Set the channel	
  deselectRadio();   // Unselect the FM transmitter
}
   10f70:	e8bd4010 	pop	{r4, lr}
   10f74:	e12fff1e 	bx	lr
   10f78:	e0028000 	.word	0xe0028000
   10f7c:	000f4240 	.word	0x000f4240

00010f80 <disableRadio>:
  deselectRadio();        // Unselect the FM transmitter
}

// Disables the radio.
//
void disableRadio(void) {
   10f80:	e92d4030 	push	{r4, r5, lr}
  radio_enable = OFF;
   10f84:	e59f3098 	ldr	r3, [pc, #152]	; 11024 <disableRadio+0xa4>
  
  // graphics
  LCDSetRowColor(2, 0, current_display->back_color, current_display->orientation);
   10f88:	e59f5098 	ldr	r5, [pc, #152]	; 11028 <disableRadio+0xa8>
}

// Disables the radio.
//
void disableRadio(void) {
  radio_enable = OFF;
   10f8c:	e3a04000 	mov	r4, #0	; 0x0
   10f90:	e5c34000 	strb	r4, [r3]
  
  // graphics
  LCDSetRowColor(2, 0, current_display->back_color, current_display->orientation);
   10f94:	e5952000 	ldr	r2, [r5]
  deselectRadio();        // Unselect the FM transmitter
}

// Disables the radio.
//
void disableRadio(void) {
   10f98:	e24dd008 	sub	sp, sp, #8	; 0x8
  radio_enable = OFF;
  
  // graphics
  LCDSetRowColor(2, 0, current_display->back_color, current_display->orientation);
   10f9c:	e5d23002 	ldrb	r3, [r2, #2]
   10fa0:	e3a00002 	mov	r0, #2	; 0x2
   10fa4:	e1a01004 	mov	r1, r4
   10fa8:	e5d22004 	ldrb	r2, [r2, #4]
   10fac:	eb001106 	bl	153cc <LCDSetRowColor>
  LCDPrintString("Off", 0, current_display->text_color, 2,0,current_display->orientation);
   10fb0:	e5953000 	ldr	r3, [r5]
   10fb4:	e5d32003 	ldrb	r2, [r3, #3]
   10fb8:	e58d4000 	str	r4, [sp]
   10fbc:	e5d3c002 	ldrb	ip, [r3, #2]
   10fc0:	e59f0064 	ldr	r0, [pc, #100]	; 1102c <disableRadio+0xac>
   10fc4:	e3a03002 	mov	r3, #2	; 0x2
   10fc8:	e1a01004 	mov	r1, r4
   10fcc:	e58dc004 	str	ip, [sp, #4]
   10fd0:	eb00102b 	bl	15084 <LCDPrintString>
  PINSEL0 &= 0xFFFFC00F;
}

// Hand over SPI lines to radio talk.
void selectRadio(void) {
  IOCLR1 |= FM_CS;
   10fd4:	e59f2054 	ldr	r2, [pc, #84]	; 11030 <disableRadio+0xb0>
   10fd8:	e592301c 	ldr	r3, [r2, #28]
   10fdc:	e3833201 	orr	r3, r3, #268435456	; 0x10000000
   10fe0:	e582301c 	str	r3, [r2, #28]
// The function will cause the firmware to delay for "count" milleseconds.
void delay_ms(int count)
{
  int i;
  count *= 10000;
  for (i = 0; i < count; i++) { asm volatile ("nop"); }
   10fe4:	e59f3048 	ldr	r3, [pc, #72]	; 11034 <disableRadio+0xb4>
   10fe8:	e1a00000 	nop			(mov r0,r0)
   10fec:	e2844001 	add	r4, r4, #1	; 0x1
   10ff0:	e1540003 	cmp	r4, r3
   10ff4:	1afffffb 	bne	10fe8 <disableRadio+0x68>
  LCDSetRowColor(2, 0, current_display->back_color, current_display->orientation);
  LCDPrintString("Off", 0, current_display->text_color, 2,0,current_display->orientation);
  
  // send data
  selectRadio();      //Select the FM transmitter
  ns73Config();         //Configure the FM Trans. I/O
   10ff8:	eb0012f3 	bl	15bcc <ns73Config>
  ns73Send(R0, MUTE);   // Mute the radio	
   10ffc:	e3a00000 	mov	r0, #0	; 0x0
   11000:	e3a01004 	mov	r1, #4	; 0x4
   11004:	eb00127b 	bl	159f8 <ns73Send>
  // In enableRadio: delay_ms(900); // TODO Does this really need to be 900?
}

// Hand off SPI lines from radio talk.
void deselectRadio(void) {
  IOSET1 |= FM_CS;
   11008:	e59f2020 	ldr	r2, [pc, #32]	; 11030 <disableRadio+0xb0>
   1100c:	e5923014 	ldr	r3, [r2, #20]
   11010:	e3833201 	orr	r3, r3, #268435456	; 0x10000000
   11014:	e5823014 	str	r3, [r2, #20]
  // send data
  selectRadio();      //Select the FM transmitter
  ns73Config();         //Configure the FM Trans. I/O
  ns73Send(R0, MUTE);   // Mute the radio	
  deselectRadio();      //Unselect the FM transmitter
}
   11018:	e28dd008 	add	sp, sp, #8	; 0x8
   1101c:	e8bd4030 	pop	{r4, r5, lr}
   11020:	e12fff1e 	bx	lr
   11024:	40000894 	.word	0x40000894
   11028:	40000d10 	.word	0x40000d10
   1102c:	00019357 	.word	0x00019357
   11030:	e0028000 	.word	0xe0028000
   11034:	000f4240 	.word	0x000f4240

00011038 <enableRadio>:
  delay_ms(100);
}

// Enables the radio.
//
void enableRadio(void) {
   11038:	e92d4010 	push	{r4, lr}
  radio_enable = ON;
   1103c:	e59f309c 	ldr	r3, [pc, #156]	; 110e0 <enableRadio+0xa8>
  
  // graphics
  LCDSetRowColor(2, 0, current_display->back_color, current_display->orientation);
   11040:	e59f409c 	ldr	r4, [pc, #156]	; 110e4 <enableRadio+0xac>
}

// Enables the radio.
//
void enableRadio(void) {
  radio_enable = ON;
   11044:	e3a02001 	mov	r2, #1	; 0x1
   11048:	e5c32000 	strb	r2, [r3]
  
  // graphics
  LCDSetRowColor(2, 0, current_display->back_color, current_display->orientation);
   1104c:	e5942000 	ldr	r2, [r4]
  delay_ms(100);
}

// Enables the radio.
//
void enableRadio(void) {
   11050:	e24dd008 	sub	sp, sp, #8	; 0x8
  radio_enable = ON;
  
  // graphics
  LCDSetRowColor(2, 0, current_display->back_color, current_display->orientation);
   11054:	e5d23002 	ldrb	r3, [r2, #2]
   11058:	e3a00002 	mov	r0, #2	; 0x2
   1105c:	e3a01000 	mov	r1, #0	; 0x0
   11060:	e5d22004 	ldrb	r2, [r2, #4]
   11064:	eb0010d8 	bl	153cc <LCDSetRowColor>
  LCDPrintString("On", 0, current_display->text_color, 2,0,current_display->orientation);
   11068:	e5943000 	ldr	r3, [r4]
   1106c:	e3a04000 	mov	r4, #0	; 0x0
   11070:	e5d32003 	ldrb	r2, [r3, #3]
   11074:	e58d4000 	str	r4, [sp]
   11078:	e5d3c002 	ldrb	ip, [r3, #2]
   1107c:	e59f0064 	ldr	r0, [pc, #100]	; 110e8 <enableRadio+0xb0>
   11080:	e3a03002 	mov	r3, #2	; 0x2
   11084:	e1a01004 	mov	r1, r4
   11088:	e58dc004 	str	ip, [sp, #4]
   1108c:	eb000ffc 	bl	15084 <LCDPrintString>
  PINSEL0 &= 0xFFFFC00F;
}

// Hand over SPI lines to radio talk.
void selectRadio(void) {
  IOCLR1 |= FM_CS;
   11090:	e59f2054 	ldr	r2, [pc, #84]	; 110ec <enableRadio+0xb4>
   11094:	e592301c 	ldr	r3, [r2, #28]
   11098:	e3833201 	orr	r3, r3, #268435456	; 0x10000000
   1109c:	e582301c 	str	r3, [r2, #28]
// The function will cause the firmware to delay for "count" milleseconds.
void delay_ms(int count)
{
  int i;
  count *= 10000;
  for (i = 0; i < count; i++) { asm volatile ("nop"); }
   110a0:	e59f3048 	ldr	r3, [pc, #72]	; 110f0 <enableRadio+0xb8>
   110a4:	e1a00000 	nop			(mov r0,r0)
   110a8:	e2844001 	add	r4, r4, #1	; 0x1
   110ac:	e1540003 	cmp	r4, r3
   110b0:	1afffffb 	bne	110a4 <enableRadio+0x6c>
  LCDSetRowColor(2, 0, current_display->back_color, current_display->orientation);
  LCDPrintString("On", 0, current_display->text_color, 2,0,current_display->orientation);
  
  // send data
  selectRadio();          //Select the FM transmitter
  ns73Config();           // Configure the FM Trans. I/O
   110b4:	eb0012c4 	bl	15bcc <ns73Config>
  ns73Send(R0, PE | AG);  // Power up the radio
   110b8:	e3a00000 	mov	r0, #0	; 0x0
   110bc:	e3a01081 	mov	r1, #129	; 0x81
   110c0:	eb00124c 	bl	159f8 <ns73Send>
  // In enableRadio: delay_ms(900); // TODO Does this really need to be 900?
}

// Hand off SPI lines from radio talk.
void deselectRadio(void) {
  IOSET1 |= FM_CS;
   110c4:	e59f2020 	ldr	r2, [pc, #32]	; 110ec <enableRadio+0xb4>
   110c8:	e5923014 	ldr	r3, [r2, #20]
   110cc:	e3833201 	orr	r3, r3, #268435456	; 0x10000000
   110d0:	e5823014 	str	r3, [r2, #20]
  // send data
  selectRadio();          //Select the FM transmitter
  ns73Config();           // Configure the FM Trans. I/O
  ns73Send(R0, PE | AG);  // Power up the radio
  deselectRadio();        // Unselect the FM transmitter
}
   110d4:	e28dd008 	add	sp, sp, #8	; 0x8
   110d8:	e8bd4010 	pop	{r4, lr}
   110dc:	e12fff1e 	bx	lr
   110e0:	40000894 	.word	0x40000894
   110e4:	40000d10 	.word	0x40000d10
   110e8:	0001935b 	.word	0x0001935b
   110ec:	e0028000 	.word	0xe0028000
   110f0:	000f4240 	.word	0x000f4240

000110f4 <initializeRadio>:
  PINSEL0 &= 0xFFFFC00F;
}

// Hand over SPI lines to radio talk.
void selectRadio(void) {
  IOCLR1 |= FM_CS;
   110f4:	e59f2068 	ldr	r2, [pc, #104]	; 11164 <initializeRadio+0x70>
   110f8:	e592301c 	ldr	r3, [r2, #28]
   110fc:	e3833201 	orr	r3, r3, #268435456	; 0x10000000
   11100:	e582301c 	str	r3, [r2, #28]
// The function will cause the firmware to delay for "count" milleseconds.
void delay_ms(int count)
{
  int i;
  count *= 10000;
  for (i = 0; i < count; i++) { asm volatile ("nop"); }
   11104:	e59f205c 	ldr	r2, [pc, #92]	; 11168 <initializeRadio+0x74>
//

// initializes the FM transmitter to a given frequency.
// Frequency is given in tenths of a MHz. So 973 means 97.3 MHz.
//
void initializeRadio(int frequency) {
   11108:	e92d4010 	push	{r4, lr}
  PINSEL0 &= 0xFFFFC00F;
}

// Hand over SPI lines to radio talk.
void selectRadio(void) {
  IOCLR1 |= FM_CS;
   1110c:	e3a03000 	mov	r3, #0	; 0x0
//

// initializes the FM transmitter to a given frequency.
// Frequency is given in tenths of a MHz. So 973 means 97.3 MHz.
//
void initializeRadio(int frequency) {
   11110:	e1a04000 	mov	r4, r0
// The function will cause the firmware to delay for "count" milleseconds.
void delay_ms(int count)
{
  int i;
  count *= 10000;
  for (i = 0; i < count; i++) { asm volatile ("nop"); }
   11114:	e1a00000 	nop			(mov r0,r0)
   11118:	e2833001 	add	r3, r3, #1	; 0x1
   1111c:	e1530002 	cmp	r3, r2
   11120:	1afffffb 	bne	11114 <initializeRadio+0x20>
//
void initializeRadio(int frequency) {
  selectRadio();        // Select SPI for FM Transmitter
  
  // TODO use setRadioFrequency here?
  ns73Config();         // Configure the FM Trans. I/O
   11124:	eb0012a8 	bl	15bcc <ns73Config>
  ns73Init();           // Setup the Default Register Values
   11128:	eb001288 	bl	15b50 <ns73Init>
  ns73SetChannel(frequency); // Transmit
   1112c:	e1a00004 	mov	r0, r4
   11130:	eb001273 	bl	15b04 <ns73SetChannel>
  // In enableRadio: delay_ms(900); // TODO Does this really need to be 900?
}

// Hand off SPI lines from radio talk.
void deselectRadio(void) {
  IOSET1 |= FM_CS;
   11134:	e59f2028 	ldr	r2, [pc, #40]	; 11164 <initializeRadio+0x70>
   11138:	e5923014 	ldr	r3, [r2, #20]
   1113c:	e3833201 	orr	r3, r3, #268435456	; 0x10000000
   11140:	e5823014 	str	r3, [r2, #20]
// The function will cause the firmware to delay for "count" milleseconds.
void delay_ms(int count)
{
  int i;
  count *= 10000;
  for (i = 0; i < count; i++) { asm volatile ("nop"); }
   11144:	e59f201c 	ldr	r2, [pc, #28]	; 11168 <initializeRadio+0x74>
  // In enableRadio: delay_ms(900); // TODO Does this really need to be 900?
}

// Hand off SPI lines from radio talk.
void deselectRadio(void) {
  IOSET1 |= FM_CS;
   11148:	e3a03000 	mov	r3, #0	; 0x0
// The function will cause the firmware to delay for "count" milleseconds.
void delay_ms(int count)
{
  int i;
  count *= 10000;
  for (i = 0; i < count; i++) { asm volatile ("nop"); }
   1114c:	e1a00000 	nop			(mov r0,r0)
   11150:	e2833001 	add	r3, r3, #1	; 0x1
   11154:	e1530002 	cmp	r3, r2
   11158:	1afffffb 	bne	1114c <initializeRadio+0x58>
  ns73Init();           // Setup the Default Register Values
  ns73SetChannel(frequency); // Transmit
  
  deselectRadio();      // Remove FM Transmitter from SPI bus
  delay_ms(100);
}
   1115c:	e8bd4010 	pop	{r4, lr}
   11160:	e12fff1e 	bx	lr
   11164:	e0028000 	.word	0xe0028000
   11168:	000f4240 	.word	0x000f4240

0001116c <closeSong>:
}

// Usage: CloseSong(&current_song);
// Inputs: SongStruct *song: Pointer to a song structure to be closed
// Function closes a song that is currently open.
void closeSong(SongStruct *song){
   1116c:	e92d4010 	push	{r4, lr}
}

// Hand over SPI lines to SD talk.
//
void selectSD(void) {
  PINSEL0 |= (SCLK_PINSEL | MISO_PINSEL | MOSI_PINSEL);
   11170:	e59f4028 	ldr	r4, [pc, #40]	; 111a0 <closeSong+0x34>
   11174:	e5943000 	ldr	r3, [r4]
   11178:	e3833c15 	orr	r3, r3, #5376	; 0x1500
   1117c:	e5843000 	str	r3, [r4]
// Usage: CloseSong(&current_song);
// Inputs: SongStruct *song: Pointer to a song structure to be closed
// Function closes a song that is currently open.
void closeSong(SongStruct *song){
  selectSD(); // Open SPI line for the SD Card.
  fat16_close_file(song->handle);
   11180:	e5900034 	ldr	r0, [r0, #52]
   11184:	eb000ca3 	bl	14418 <fat16_close_file>
}

// Hand over SPI lines to LCD talk.
//
void selectLCD(void) {
  PINSEL0 &= 0xFFFFC00F;
   11188:	e5943000 	ldr	r3, [r4]
   1118c:	e3c33dff 	bic	r3, r3, #16320	; 0x3fc0
   11190:	e3c33030 	bic	r3, r3, #48	; 0x30
   11194:	e5843000 	str	r3, [r4]
// Function closes a song that is currently open.
void closeSong(SongStruct *song){
  selectSD(); // Open SPI line for the SD Card.
  fat16_close_file(song->handle);
  selectLCD(); // Return SPI line to LCD.
}
   11198:	e8bd4010 	pop	{r4, lr}
   1119c:	e12fff1e 	bx	lr
   111a0:	e002c000 	.word	0xe002c000

000111a4 <stopMP3Player>:
}

// Disable the MP3 interrupt.
//
void disableMP3Interrupt(void) {
  VICIntEnClr = 0x20;
   111a4:	e3a02020 	mov	r2, #32	; 0x20
   111a8:	e3e03000 	mvn	r3, #0	; 0x0
   111ac:	e5032feb 	str	r2, [r3, #-4075]
// Stop playing.
//
void stopMP3Player(void) {
  disableMP3Interrupt();
  
  ledBlueOff();
   111b0:	e59f3074 	ldr	r3, [pc, #116]	; 1122c <stopMP3Player+0x88>
   111b4:	e3a02202 	mov	r2, #536870912	; 0x20000000
  vs1002Finish();                                         // Disable MP3 Comm. Lines
}

// Stop playing.
//
void stopMP3Player(void) {
   111b8:	e92d4010 	push	{r4, lr}
  disableMP3Interrupt();
  
  ledBlueOff();
   111bc:	e5832004 	str	r2, [r3, #4]
  vs1002Config();                                         // Enable the MP3 Comm Lines
   111c0:	eb001131 	bl	1568c <vs1002Config>
  vs1002SCIWrite(SCI_MODE, SM_OUTOFWAV);                  // Tell the MP3 Player to jump out of WAV decoding
   111c4:	e3a00000 	mov	r0, #0	; 0x0
   111c8:	e3a01008 	mov	r1, #8	; 0x8
   111cc:	eb001178 	bl	157b4 <vs1002SCIWrite>
   111d0:	e3a04000 	mov	r4, #0	; 0x0
  for(int i=0; i<150; i++) { vs1002SCIWrite(SCI_MODE, 0x00); } // Send 150 zeroes to the player to clear it's FIFO.
   111d4:	e3a00000 	mov	r0, #0	; 0x0
   111d8:	e2844001 	add	r4, r4, #1	; 0x1
   111dc:	e1a01000 	mov	r1, r0
   111e0:	eb001173 	bl	157b4 <vs1002SCIWrite>
   111e4:	e3540096 	cmp	r4, #150	; 0x96
   111e8:	1afffff9 	bne	111d4 <stopMP3Player+0x30>
  vs1002Finish();                                         // Disable the MP3 Comm. Lines
   111ec:	eb001130 	bl	156b4 <vs1002Finish>
  IODIR0 |= (LCD_DIO | LCD_SCK | LCD_CS | LCD_RES);       // Assign LCD pins as Outputs
   111f0:	e59f2034 	ldr	r2, [pc, #52]	; 1122c <stopMP3Player+0x88>
   111f4:	e5923008 	ldr	r3, [r2, #8]
   111f8:	e3833703 	orr	r3, r3, #786432	; 0xc0000
   111fc:	e3833050 	orr	r3, r3, #80	; 0x50
   11200:	e5823008 	str	r3, [r2, #8]
  closeSong(&current_song);                               // Close the current song
   11204:	e59f0024 	ldr	r0, [pc, #36]	; 11230 <stopMP3Player+0x8c>
   11208:	ebffffd7 	bl	1116c <closeSong>
  file_is_open = 0;                                       // Clear the global flag
   1120c:	e59f3020 	ldr	r3, [pc, #32]	; 11234 <stopMP3Player+0x90>
   11210:	e3a02000 	mov	r2, #0	; 0x0
   11214:	e5c32000 	strb	r2, [r3]
}

// Exclusively listen to the UI interrupt.
//
void exclusiveUIInterrupt(void) {
  VICIntEnable = 0x10;
   11218:	e2822010 	add	r2, r2, #16	; 0x10
   1121c:	e3e03000 	mvn	r3, #0	; 0x0
   11220:	e5032fef 	str	r2, [r3, #-4079]
  IODIR0 |= (LCD_DIO | LCD_SCK | LCD_CS | LCD_RES);       // Assign LCD pins as Outputs
  closeSong(&current_song);                               // Close the current song
  file_is_open = 0;                                       // Clear the global flag
  
  exclusiveUIInterrupt();
}
   11224:	e8bd4010 	pop	{r4, lr}
   11228:	e12fff1e 	bx	lr
   1122c:	e0028000 	.word	0xe0028000
   11230:	400008a8 	.word	0x400008a8
   11234:	40000895 	.word	0x40000895

00011238 <loadSongInfo>:
//
// The function takes the currently selected file name from the selected_song structure and loads
// the vital file information into the song structure.  The function also opens the song and prepares
// it to be played.  If the function succesfully opens the song, a 1 is returned, else a 0 is returned.
//
char loadSongInfo(SongStruct *song, DisplayStruct *selected_song){
   11238:	e92d4070 	push	{r4, r5, r6, lr}
   1123c:	e3a02000 	mov	r2, #0	; 0x0
   11240:	e1a04000 	mov	r4, r0
  // Get the selected songs file name
  for(int i=0; i < MAXFILENAMELEN; i++) {
    song->file_name[i] = selected_song->list[selected_song->current_index].file_name[i];
   11244:	e5913008 	ldr	r3, [r1, #8]
   11248:	e0813283 	add	r3, r1, r3, lsl #5
   1124c:	e0833002 	add	r3, r3, r2
   11250:	e5d3300c 	ldrb	r3, [r3, #12]
// the vital file information into the song structure.  The function also opens the song and prepares
// it to be played.  If the function succesfully opens the song, a 1 is returned, else a 0 is returned.
//
char loadSongInfo(SongStruct *song, DisplayStruct *selected_song){
  // Get the selected songs file name
  for(int i=0; i < MAXFILENAMELEN; i++) {
   11254:	e2822001 	add	r2, r2, #1	; 0x1
   11258:	e352001e 	cmp	r2, #30	; 0x1e
    song->file_name[i] = selected_song->list[selected_song->current_index].file_name[i];
   1125c:	e5c03016 	strb	r3, [r0, #22]
// the vital file information into the song structure.  The function also opens the song and prepares
// it to be played.  If the function succesfully opens the song, a 1 is returned, else a 0 is returned.
//
char loadSongInfo(SongStruct *song, DisplayStruct *selected_song){
  // Get the selected songs file name
  for(int i=0; i < MAXFILENAMELEN; i++) {
   11260:	e2800001 	add	r0, r0, #1	; 0x1
   11264:	1afffff6 	bne	11244 <loadSongInfo+0xc>
   11268:	e3a02000 	mov	r2, #0	; 0x0
    song->file_name[i] = selected_song->list[selected_song->current_index].file_name[i];
  }
  // Get the selected songs display name
  for(int i=0; i<MAXDISPLEN; i++){
    if((song->file_name[i] == '.') || (i==MAXDISPLEN-1)){
      song->name[i] = '\0';
   1126c:	e1a01002 	mov	r1, r2
  for(int i=0; i < MAXFILENAMELEN; i++) {
    song->file_name[i] = selected_song->list[selected_song->current_index].file_name[i];
  }
  // Get the selected songs display name
  for(int i=0; i<MAXDISPLEN; i++){
    if((song->file_name[i] == '.') || (i==MAXDISPLEN-1)){
   11270:	e0843002 	add	r3, r4, r2
   11274:	e5d33016 	ldrb	r3, [r3, #22]
   11278:	e3520015 	cmp	r2, #21	; 0x15
   1127c:	1353002e 	cmpne	r3, #46	; 0x2e
      song->name[i] = '\0';
   11280:	07c41002 	strbeq	r1, [r4, r2]
   11284:	03a02016 	moveq	r2, #22	; 0x16
      i = MAXDISPLEN;
    } else {
      song->name[i]=song->file_name[i];
   11288:	17c43002 	strbne	r3, [r4, r2]
  // Get the selected songs file name
  for(int i=0; i < MAXFILENAMELEN; i++) {
    song->file_name[i] = selected_song->list[selected_song->current_index].file_name[i];
  }
  // Get the selected songs display name
  for(int i=0; i<MAXDISPLEN; i++){
   1128c:	e2822001 	add	r2, r2, #1	; 0x1
   11290:	e3520015 	cmp	r2, #21	; 0x15
   11294:	dafffff5 	ble	11270 <loadSongInfo+0x38>
}

// Hand over SPI lines to SD talk.
//
void selectSD(void) {
  PINSEL0 |= (SCLK_PINSEL | MISO_PINSEL | MOSI_PINSEL);
   11298:	e59f606c 	ldr	r6, [pc, #108]	; 1130c <loadSongInfo+0xd4>
   1129c:	e5963000 	ldr	r3, [r6]
  }
  
  selectSD(); // Make sure SPI is selected for reading the card
  
  // Check to see if the selected song is valid
  if(!root_file_exists(song->file_name)) {
   112a0:	e2845016 	add	r5, r4, #22	; 0x16
}

// Hand over SPI lines to SD talk.
//
void selectSD(void) {
  PINSEL0 |= (SCLK_PINSEL | MISO_PINSEL | MOSI_PINSEL);
   112a4:	e3833c15 	orr	r3, r3, #5376	; 0x1500
  }
  
  selectSD(); // Make sure SPI is selected for reading the card
  
  // Check to see if the selected song is valid
  if(!root_file_exists(song->file_name)) {
   112a8:	e1a00005 	mov	r0, r5
}

// Hand over SPI lines to SD talk.
//
void selectSD(void) {
  PINSEL0 |= (SCLK_PINSEL | MISO_PINSEL | MOSI_PINSEL);
   112ac:	e5863000 	str	r3, [r6]
  }
  
  selectSD(); // Make sure SPI is selected for reading the card
  
  // Check to see if the selected song is valid
  if(!root_file_exists(song->file_name)) {
   112b0:	eb000397 	bl	12114 <root_file_exists>
   112b4:	e3500000 	cmp	r0, #0	; 0x0
}

// Hand over SPI lines to LCD talk.
//
void selectLCD(void) {
  PINSEL0 &= 0xFFFFC00F;
   112b8:	05963000 	ldreq	r3, [r6]
   112bc:	03c33dff 	biceq	r3, r3, #16320	; 0x3fc0
   112c0:	03c33030 	biceq	r3, r3, #48	; 0x30
   112c4:	05863000 	streq	r3, [r6]
   112c8:	0a00000d 	beq	11304 <loadSongInfo+0xcc>
  if(!root_file_exists(song->file_name)) {
    selectLCD();
    return 0;
  } else {
    // open the selected song
    song->handle = root_open(song->file_name);
   112cc:	e1a00005 	mov	r0, r5
   112d0:	eb000459 	bl	1243c <root_open>
   112d4:	e5840034 	str	r0, [r4, #52]
    song->size = fat16_file_size(song->handle);
   112d8:	eb0009f2 	bl	13aa8 <fat16_file_size>
    fat16_read_file(song->handle, song->data, MAXBUFFERSIZE);
   112dc:	e284103d 	add	r1, r4, #61	; 0x3d
    selectLCD();
    return 0;
  } else {
    // open the selected song
    song->handle = root_open(song->file_name);
    song->size = fat16_file_size(song->handle);
   112e0:	e5840038 	str	r0, [r4, #56]
    fat16_read_file(song->handle, song->data, MAXBUFFERSIZE);
   112e4:	e3a02020 	mov	r2, #32	; 0x20
   112e8:	e5940034 	ldr	r0, [r4, #52]
   112ec:	eb00090a 	bl	1371c <fat16_read_file>
}

// Hand over SPI lines to LCD talk.
//
void selectLCD(void) {
  PINSEL0 &= 0xFFFFC00F;
   112f0:	e5963000 	ldr	r3, [r6]
   112f4:	e3c33dff 	bic	r3, r3, #16320	; 0x3fc0
   112f8:	e3c33030 	bic	r3, r3, #48	; 0x30
   112fc:	e5863000 	str	r3, [r6]
   11300:	e3a00001 	mov	r0, #1	; 0x1
    fat16_read_file(song->handle, song->data, MAXBUFFERSIZE);
  }
  
  selectLCD();
  return 1;
}
   11304:	e8bd4070 	pop	{r4, r5, r6, lr}
   11308:	e12fff1e 	bx	lr
   1130c:	e002c000 	.word	0xe002c000

00011310 <handleMiddleButton>:
//Description: This function is called when the middle button is pressed.
//  The function performs an action based on the current state of the MP3 player.
//	(1.-If the file menu is displayed, and a song is not being played, the function starts the currently highlighted song.)
//	(2.-If the file menu is displayed and a song IS being played, the fucntion stops the currently playing song)
//	(3.-If the settings menu is displayed, the function opens the selected setting and allows the user to edit the setting.)
void handleMiddleButton(void){
   11310:	e92d40f0 	push	{r4, r5, r6, r7, lr}
}

// Stop the UI interrupt from triggering. (And stabilize/debounce for t miliseconds)
//
void disableUIInterrupt(int t) {
  VICIntEnClr = 0x10;
   11314:	e3a02010 	mov	r2, #16	; 0x10
   11318:	e3e03000 	mvn	r3, #0	; 0x0
   1131c:	e5032feb 	str	r2, [r3, #-4075]
// The function will cause the firmware to delay for "count" milleseconds.
void delay_ms(int count)
{
  int i;
  count *= 10000;
  for (i = 0; i < count; i++) { asm volatile ("nop"); }
   11320:	e59f2304 	ldr	r2, [pc, #772]	; 1162c <handleMiddleButton+0x31c>
//Description: This function is called when the middle button is pressed.
//  The function performs an action based on the current state of the MP3 player.
//	(1.-If the file menu is displayed, and a song is not being played, the function starts the currently highlighted song.)
//	(2.-If the file menu is displayed and a song IS being played, the fucntion stops the currently playing song)
//	(3.-If the settings menu is displayed, the function opens the selected setting and allows the user to edit the setting.)
void handleMiddleButton(void){
   11324:	e24dd008 	sub	sp, sp, #8	; 0x8
}

// Stop the UI interrupt from triggering. (And stabilize/debounce for t miliseconds)
//
void disableUIInterrupt(int t) {
  VICIntEnClr = 0x10;
   11328:	e2833001 	add	r3, r3, #1	; 0x1
// The function will cause the firmware to delay for "count" milleseconds.
void delay_ms(int count)
{
  int i;
  count *= 10000;
  for (i = 0; i < count; i++) { asm volatile ("nop"); }
   1132c:	e1a00000 	nop			(mov r0,r0)
   11330:	e2833001 	add	r3, r3, #1	; 0x1
   11334:	e1530002 	cmp	r3, r2
   11338:	1afffffb 	bne	1132c <handleMiddleButton+0x1c>
//	(3.-If the settings menu is displayed, the function opens the selected setting and allows the user to edit the setting.)
void handleMiddleButton(void){
  disableUIInterrupt(DEBOUNCE_SWITCH); // was 250
  
  // If the File Menu is being displayed, middle button acts like play/stop
  if (current_display == &file_manager) {
   1133c:	e59f72ec 	ldr	r7, [pc, #748]	; 11630 <handleMiddleButton+0x320>
   11340:	e59f32ec 	ldr	r3, [pc, #748]	; 11634 <handleMiddleButton+0x324>
   11344:	e5971000 	ldr	r1, [r7]
   11348:	e1510003 	cmp	r1, r3
   1134c:	1a000025 	bne	113e8 <handleMiddleButton+0xd8>
    if (!file_is_open) { // If a file isn't already playing then this acts like a play button
   11350:	e59f52e0 	ldr	r5, [pc, #736]	; 11638 <handleMiddleButton+0x328>
   11354:	e5d53000 	ldrb	r3, [r5]
   11358:	e3530000 	cmp	r3, #0	; 0x0
   1135c:	1a00001f 	bne	113e0 <handleMiddleButton+0xd0>
      file_is_open = loadSongInfo(&current_song, &file_manager); // Get the current song info.
   11360:	e59f02d4 	ldr	r0, [pc, #724]	; 1163c <handleMiddleButton+0x32c>
   11364:	ebffffb3 	bl	11238 <loadSongInfo>
      if (!file_is_open) { // Make sure this is a valid file
   11368:	e3500000 	cmp	r0, #0	; 0x0
  disableUIInterrupt(DEBOUNCE_SWITCH); // was 250
  
  // If the File Menu is being displayed, middle button acts like play/stop
  if (current_display == &file_manager) {
    if (!file_is_open) { // If a file isn't already playing then this acts like a play button
      file_is_open = loadSongInfo(&current_song, &file_manager); // Get the current song info.
   1136c:	e1a04000 	mov	r4, r0
   11370:	e5c50000 	strb	r0, [r5]
      if (!file_is_open) { // Make sure this is a valid file
   11374:	1a000017 	bne	113d8 <handleMiddleButton+0xc8>
        LCDClear(white);
   11378:	e59f32c0 	ldr	r3, [pc, #704]	; 11640 <handleMiddleButton+0x330>
   1137c:	e5d30000 	ldrb	r0, [r3]
   11380:	eb000e81 	bl	14d8c <LCDClear>
        LCDPrintString(NotFound, 0, black, 1,0,current_display->orientation);
   11384:	e58d4000 	str	r4, [sp]
   11388:	e5971000 	ldr	r1, [r7]
   1138c:	e59f32b0 	ldr	r3, [pc, #688]	; 11644 <handleMiddleButton+0x334>
   11390:	e5d1c002 	ldrb	ip, [r1, #2]
   11394:	e5d32000 	ldrb	r2, [r3]
   11398:	e59f02a8 	ldr	r0, [pc, #680]	; 11648 <handleMiddleButton+0x338>
   1139c:	e3a03001 	mov	r3, #1	; 0x1
   113a0:	e1a01004 	mov	r1, r4
   113a4:	e58dc004 	str	ip, [sp, #4]
   113a8:	eb000f35 	bl	15084 <LCDPrintString>
// The function will cause the firmware to delay for "count" milleseconds.
void delay_ms(int count)
{
  int i;
  count *= 10000;
  for (i = 0; i < count; i++) { asm volatile ("nop"); }
   113ac:	e59f3298 	ldr	r3, [pc, #664]	; 1164c <handleMiddleButton+0x33c>
  if (current_display == &file_manager) {
    if (!file_is_open) { // If a file isn't already playing then this acts like a play button
      file_is_open = loadSongInfo(&current_song, &file_manager); // Get the current song info.
      if (!file_is_open) { // Make sure this is a valid file
        LCDClear(white);
        LCDPrintString(NotFound, 0, black, 1,0,current_display->orientation);
   113b0:	e1a00004 	mov	r0, r4
// The function will cause the firmware to delay for "count" milleseconds.
void delay_ms(int count)
{
  int i;
  count *= 10000;
  for (i = 0; i < count; i++) { asm volatile ("nop"); }
   113b4:	e1a00000 	nop			(mov r0,r0)
   113b8:	e2800001 	add	r0, r0, #1	; 0x1
   113bc:	e1500003 	cmp	r0, r3
   113c0:	1afffffb 	bne	113b4 <handleMiddleButton+0xa4>
      file_is_open = loadSongInfo(&current_song, &file_manager); // Get the current song info.
      if (!file_is_open) { // Make sure this is a valid file
        LCDClear(white);
        LCDPrintString(NotFound, 0, black, 1,0,current_display->orientation);
        delay_ms(1000);
        LCDClear(black);
   113c4:	e59f3278 	ldr	r3, [pc, #632]	; 11644 <handleMiddleButton+0x334>
   113c8:	e5d30000 	ldrb	r0, [r3]
   113cc:	eb000e6e 	bl	14d8c <LCDClear>
        printMenu(&file_manager);
   113d0:	e59f025c 	ldr	r0, [pc, #604]	; 11634 <handleMiddleButton+0x324>
   113d4:	ea00008c 	b	1160c <handleMiddleButton+0x2fc>
      } else {
        startMP3Player();
   113d8:	ebfffe9f 	bl	10e5c <startMP3Player>
   113dc:	ea00008b 	b	11610 <handleMiddleButton+0x300>
      }
    } else { // If a file is already open then this acts like a stop button
      stopMP3Player();
   113e0:	ebffff6f 	bl	111a4 <stopMP3Player>
   113e4:	ea000089 	b	11610 <handleMiddleButton+0x300>
    }
  } else { // Else we are on the Settings menu, and we need to handle the settins options
    clearScreen();
   113e8:	ebfffdc4 	bl	10b00 <clearScreen>
    LCDPrintString(current_display->list[current_display->current_index].file_name,0,current_display->text_color,1,0,current_display->orientation);
   113ec:	e5973000 	ldr	r3, [r7]
   113f0:	e3a06000 	mov	r6, #0	; 0x0
   113f4:	e5930008 	ldr	r0, [r3, #8]
   113f8:	e5d32003 	ldrb	r2, [r3, #3]
   113fc:	e58d6000 	str	r6, [sp]
   11400:	e0830280 	add	r0, r3, r0, lsl #5
   11404:	e5d3c002 	ldrb	ip, [r3, #2]
}

// Start the interrupts again.
//
void enableUIInterrupt(void) {
  VICIntEnable |= 0x10;
   11408:	e3e05000 	mvn	r5, #0	; 0x0
    } else { // If a file is already open then this acts like a stop button
      stopMP3Player();
    }
  } else { // Else we are on the Settings menu, and we need to handle the settins options
    clearScreen();
    LCDPrintString(current_display->list[current_display->current_index].file_name,0,current_display->text_color,1,0,current_display->orientation);
   1140c:	e3a03001 	mov	r3, #1	; 0x1
   11410:	e280000c 	add	r0, r0, #12	; 0xc
   11414:	e1a01006 	mov	r1, r6
   11418:	e58dc004 	str	ip, [sp, #4]
   1141c:	eb000f18 	bl	15084 <LCDPrintString>
}

// Start the interrupts again.
//
void enableUIInterrupt(void) {
  VICIntEnable |= 0x10;
   11420:	e5153fef 	ldr	r3, [r5, #-4079]
   11424:	e3833010 	orr	r3, r3, #16	; 0x10
   11428:	e5053fef 	str	r3, [r5, #-4079]
    }
  } else { // Else we are on the Settings menu, and we need to handle the settins options
    clearScreen();
    LCDPrintString(current_display->list[current_display->current_index].file_name,0,current_display->text_color,1,0,current_display->orientation);
		enableUIInterrupt();
		if (current_display->current_row == VOLUMEMENU) {
   1142c:	e5972000 	ldr	r2, [r7]
   11430:	e5d24000 	ldrb	r4, [r2]
   11434:	e3540001 	cmp	r4, #1	; 0x1
   11438:	1a00002b 	bne	114ec <handleMiddleButton+0x1dc>
}

// Start the interrupts again.
//
void enableUIInterrupt(void) {
  VICIntEnable |= 0x10;
   1143c:	e5153fef 	ldr	r3, [r5, #-4079]
   11440:	e3833010 	orr	r3, r3, #16	; 0x10
   11444:	e5053fef 	str	r3, [r5, #-4079]
    clearScreen();
    LCDPrintString(current_display->list[current_display->current_index].file_name,0,current_display->text_color,1,0,current_display->orientation);
		enableUIInterrupt();
		if (current_display->current_row == VOLUMEMENU) {
			enableUIInterrupt();
			LCDSetRowColor(2, 0, current_display->back_color, current_display->orientation);
   11448:	e1a01006 	mov	r1, r6
   1144c:	e5d23002 	ldrb	r3, [r2, #2]
   11450:	e3a00002 	mov	r0, #2	; 0x2
   11454:	e5d22004 	ldrb	r2, [r2, #4]
   11458:	eb000fdb 	bl	153cc <LCDSetRowColor>
			LCDPrintString("%d", volume_setting, white, 2, 0, current_display->orientation);
   1145c:	e58d6000 	str	r6, [sp]
   11460:	e59f31d8 	ldr	r3, [pc, #472]	; 11640 <handleMiddleButton+0x330>
   11464:	e5971000 	ldr	r1, [r7]
   11468:	e5d32000 	ldrb	r2, [r3]
   1146c:	e59f31dc 	ldr	r3, [pc, #476]	; 11650 <handleMiddleButton+0x340>
   11470:	e5d1c002 	ldrb	ip, [r1, #2]
   11474:	e59f01d8 	ldr	r0, [pc, #472]	; 11654 <handleMiddleButton+0x344>
   11478:	e5931000 	ldr	r1, [r3]
   1147c:	e3a03002 	mov	r3, #2	; 0x2
   11480:	e58dc004 	str	ip, [sp, #4]
}

// Stop the UI interrupt from triggering. (And stabilize/debounce for t miliseconds)
//
void disableUIInterrupt(int t) {
  VICIntEnClr = 0x10;
   11484:	e1a04005 	mov	r4, r5
    LCDPrintString(current_display->list[current_display->current_index].file_name,0,current_display->text_color,1,0,current_display->orientation);
		enableUIInterrupt();
		if (current_display->current_row == VOLUMEMENU) {
			enableUIInterrupt();
			LCDSetRowColor(2, 0, current_display->back_color, current_display->orientation);
			LCDPrintString("%d", volume_setting, white, 2, 0, current_display->orientation);
   11488:	eb000efd 	bl	15084 <LCDPrintString>
			while(button_pressed < MID_BUT){
   1148c:	e59f71c4 	ldr	r7, [pc, #452]	; 11658 <handleMiddleButton+0x348>
}

// Stop the UI interrupt from triggering. (And stabilize/debounce for t miliseconds)
//
void disableUIInterrupt(int t) {
  VICIntEnClr = 0x10;
   11490:	e2866010 	add	r6, r6, #16	; 0x10
// The function will cause the firmware to delay for "count" milleseconds.
void delay_ms(int count)
{
  int i;
  count *= 10000;
  for (i = 0; i < count; i++) { asm volatile ("nop"); }
   11494:	e59f5190 	ldr	r5, [pc, #400]	; 1162c <handleMiddleButton+0x31c>
   11498:	ea00000f 	b	114dc <handleMiddleButton+0x1cc>
}

// Stop the UI interrupt from triggering. (And stabilize/debounce for t miliseconds)
//
void disableUIInterrupt(int t) {
  VICIntEnClr = 0x10;
   1149c:	e5046feb 	str	r6, [r4, #-4075]
   114a0:	e3a03000 	mov	r3, #0	; 0x0
// The function will cause the firmware to delay for "count" milleseconds.
void delay_ms(int count)
{
  int i;
  count *= 10000;
  for (i = 0; i < count; i++) { asm volatile ("nop"); }
   114a4:	e1a00000 	nop			(mov r0,r0)
   114a8:	e2833001 	add	r3, r3, #1	; 0x1
   114ac:	e1530005 	cmp	r3, r5
   114b0:	1afffffb 	bne	114a4 <handleMiddleButton+0x194>
			enableUIInterrupt();
			LCDSetRowColor(2, 0, current_display->back_color, current_display->orientation);
			LCDPrintString("%d", volume_setting, white, 2, 0, current_display->orientation);
			while(button_pressed < MID_BUT){
        disableUIInterrupt(DEBOUNCE_SWITCH); // was 150
        if (button_pressed==UP_BUT) {
   114b4:	e3500002 	cmp	r0, #2	; 0x2
   114b8:	1a000002 	bne	114c8 <handleMiddleButton+0x1b8>
          raiseVolume(1);
   114bc:	e3a00001 	mov	r0, #1	; 0x1
   114c0:	ebfffe12 	bl	10d10 <raiseVolume>
   114c4:	ea000001 	b	114d0 <handleMiddleButton+0x1c0>
        } else if (button_pressed==DWN_BUT) {
   114c8:	e3500001 	cmp	r0, #1	; 0x1
          lowerVolume(1);
   114cc:	0bfffde2 	bleq	10c5c <lowerVolume>
}

// Start the interrupts again.
//
void enableUIInterrupt(void) {
  VICIntEnable |= 0x10;
   114d0:	e5143fef 	ldr	r3, [r4, #-4079]
   114d4:	e3833010 	orr	r3, r3, #16	; 0x10
   114d8:	e5043fef 	str	r3, [r4, #-4079]
		enableUIInterrupt();
		if (current_display->current_row == VOLUMEMENU) {
			enableUIInterrupt();
			LCDSetRowColor(2, 0, current_display->back_color, current_display->orientation);
			LCDPrintString("%d", volume_setting, white, 2, 0, current_display->orientation);
			while(button_pressed < MID_BUT){
   114dc:	e5d70000 	ldrb	r0, [r7]
   114e0:	e3500002 	cmp	r0, #2	; 0x2
   114e4:	9affffec 	bls	1149c <handleMiddleButton+0x18c>
   114e8:	ea000044 	b	11600 <handleMiddleButton+0x2f0>
          lowerVolume(1);
        }
        enableUIInterrupt();
			}
		}	
    else if (current_display->current_row == RADIOCMENU) {
   114ec:	e3540003 	cmp	r4, #3	; 0x3
   114f0:	1a000013 	bne	11544 <handleMiddleButton+0x234>
      displayRadioMenu();
   114f4:	ebfffc8c 	bl	1072c <displayRadioMenu>
}

// Start the interrupts again.
//
void enableUIInterrupt(void) {
  VICIntEnable |= 0x10;
   114f8:	e5153fef 	ldr	r3, [r5, #-4079]
        enableUIInterrupt();
			}
		}	
    else if (current_display->current_row == RADIOCMENU) {
      displayRadioMenu();
      button_pressed = NO_BUT;
   114fc:	e59f2154 	ldr	r2, [pc, #340]	; 11658 <handleMiddleButton+0x348>
}

// Start the interrupts again.
//
void enableUIInterrupt(void) {
  VICIntEnable |= 0x10;
   11500:	e3833010 	orr	r3, r3, #16	; 0x10
        enableUIInterrupt();
			}
		}	
    else if (current_display->current_row == RADIOCMENU) {
      displayRadioMenu();
      button_pressed = NO_BUT;
   11504:	e5c26000 	strb	r6, [r2]
}

// Stop the UI interrupt from triggering. (And stabilize/debounce for t miliseconds)
//
void disableUIInterrupt(int t) {
  VICIntEnClr = 0x10;
   11508:	e3a00010 	mov	r0, #16	; 0x10
}

// Start the interrupts again.
//
void enableUIInterrupt(void) {
  VICIntEnable |= 0x10;
   1150c:	e5053fef 	str	r3, [r5, #-4079]
}

// Stop the UI interrupt from triggering. (And stabilize/debounce for t miliseconds)
//
void disableUIInterrupt(int t) {
  VICIntEnClr = 0x10;
   11510:	e1a02005 	mov	r2, r5
// The function will cause the firmware to delay for "count" milleseconds.
void delay_ms(int count)
{
  int i;
  count *= 10000;
  for (i = 0; i < count; i++) { asm volatile ("nop"); }
   11514:	e59f1110 	ldr	r1, [pc, #272]	; 1162c <handleMiddleButton+0x31c>
   11518:	ea000006 	b	11538 <handleMiddleButton+0x228>
   1151c:	e1a00000 	nop			(mov r0,r0)
   11520:	e2833001 	add	r3, r3, #1	; 0x1
   11524:	e1530001 	cmp	r3, r1
   11528:	1afffffb 	bne	1151c <handleMiddleButton+0x20c>
}

// Start the interrupts again.
//
void enableUIInterrupt(void) {
  VICIntEnable |= 0x10;
   1152c:	e5123fef 	ldr	r3, [r2, #-4079]
   11530:	e3833010 	orr	r3, r3, #16	; 0x10
   11534:	e5023fef 	str	r3, [r2, #-4079]
}

// Stop the UI interrupt from triggering. (And stabilize/debounce for t miliseconds)
//
void disableUIInterrupt(int t) {
  VICIntEnClr = 0x10;
   11538:	e5020feb 	str	r0, [r2, #-4075]
   1153c:	e3a03000 	mov	r3, #0	; 0x0
   11540:	eafffff5 	b	1151c <handleMiddleButton+0x20c>
          changeRadioFrequency(-2);
        }
        enableUIInterrupt();
      }
      setRadioFrequency(radio_channel); // TODO Not really necessary, is it?
    } else if (current_display->current_row == RADIOPMENU) {
   11544:	e3540002 	cmp	r4, #2	; 0x2
   11548:	1a00002c 	bne	11600 <handleMiddleButton+0x2f0>
      LCDSetRowColor(2, 0, current_display->back_color, current_display->orientation);
   1154c:	e5d23002 	ldrb	r3, [r2, #2]
   11550:	e1a01006 	mov	r1, r6
   11554:	e1a00004 	mov	r0, r4
   11558:	e5d22004 	ldrb	r2, [r2, #4]
   1155c:	eb000f9a 	bl	153cc <LCDSetRowColor>
      if (radio_enable) {
   11560:	e59f30f4 	ldr	r3, [pc, #244]	; 1165c <handleMiddleButton+0x34c>
   11564:	e5d31000 	ldrb	r1, [r3]
   11568:	e3510000 	cmp	r1, #0	; 0x0
   1156c:	0a000007 	beq	11590 <handleMiddleButton+0x280>
        LCDPrintString("On", 0, current_display->text_color, 2,0,current_display->orientation);
   11570:	e5973000 	ldr	r3, [r7]
   11574:	e5d32003 	ldrb	r2, [r3, #3]
   11578:	e58d6000 	str	r6, [sp]
   1157c:	e1a01006 	mov	r1, r6
   11580:	e5d3c002 	ldrb	ip, [r3, #2]
   11584:	e59f00d4 	ldr	r0, [pc, #212]	; 11660 <handleMiddleButton+0x350>
   11588:	e1a03004 	mov	r3, r4
   1158c:	ea000005 	b	115a8 <handleMiddleButton+0x298>
      } else {
        LCDPrintString("Off", 0, current_display->text_color, 2,0,current_display->orientation);
   11590:	e5973000 	ldr	r3, [r7]
   11594:	e5d32003 	ldrb	r2, [r3, #3]
   11598:	e58d1000 	str	r1, [sp]
   1159c:	e59f00c0 	ldr	r0, [pc, #192]	; 11664 <handleMiddleButton+0x354>
   115a0:	e5d3c002 	ldrb	ip, [r3, #2]
   115a4:	e1a03004 	mov	r3, r4
   115a8:	e58dc004 	str	ip, [sp, #4]
   115ac:	eb000eb4 	bl	15084 <LCDPrintString>
}

// Start the interrupts again.
//
void enableUIInterrupt(void) {
  VICIntEnable |= 0x10;
   115b0:	e3e01000 	mvn	r1, #0	; 0x0
   115b4:	e5112fef 	ldr	r2, [r1, #-4079]
      if (radio_enable) {
        LCDPrintString("On", 0, current_display->text_color, 2,0,current_display->orientation);
      } else {
        LCDPrintString("Off", 0, current_display->text_color, 2,0,current_display->orientation);
      }
      button_pressed = NO_BUT;
   115b8:	e59f3098 	ldr	r3, [pc, #152]	; 11658 <handleMiddleButton+0x348>
}

// Start the interrupts again.
//
void enableUIInterrupt(void) {
  VICIntEnable |= 0x10;
   115bc:	e3822010 	orr	r2, r2, #16	; 0x10
      if (radio_enable) {
        LCDPrintString("On", 0, current_display->text_color, 2,0,current_display->orientation);
      } else {
        LCDPrintString("Off", 0, current_display->text_color, 2,0,current_display->orientation);
      }
      button_pressed = NO_BUT;
   115c0:	e3a00000 	mov	r0, #0	; 0x0
   115c4:	e5c30000 	strb	r0, [r3]
}

// Start the interrupts again.
//
void enableUIInterrupt(void) {
  VICIntEnable |= 0x10;
   115c8:	e5012fef 	str	r2, [r1, #-4079]
}

// Stop the UI interrupt from triggering. (And stabilize/debounce for t miliseconds)
//
void disableUIInterrupt(int t) {
  VICIntEnClr = 0x10;
   115cc:	e2800010 	add	r0, r0, #16	; 0x10
// The function will cause the firmware to delay for "count" milleseconds.
void delay_ms(int count)
{
  int i;
  count *= 10000;
  for (i = 0; i < count; i++) { asm volatile ("nop"); }
   115d0:	e59f2054 	ldr	r2, [pc, #84]	; 1162c <handleMiddleButton+0x31c>
   115d4:	ea000006 	b	115f4 <handleMiddleButton+0x2e4>
   115d8:	e1a00000 	nop			(mov r0,r0)
   115dc:	e2833001 	add	r3, r3, #1	; 0x1
   115e0:	e1530002 	cmp	r3, r2
   115e4:	1afffffb 	bne	115d8 <handleMiddleButton+0x2c8>
}

// Start the interrupts again.
//
void enableUIInterrupt(void) {
  VICIntEnable |= 0x10;
   115e8:	e5113fef 	ldr	r3, [r1, #-4079]
   115ec:	e3833010 	orr	r3, r3, #16	; 0x10
   115f0:	e5013fef 	str	r3, [r1, #-4079]
}

// Stop the UI interrupt from triggering. (And stabilize/debounce for t miliseconds)
//
void disableUIInterrupt(int t) {
  VICIntEnClr = 0x10;
   115f4:	e5010feb 	str	r0, [r1, #-4075]
   115f8:	e3a03000 	mov	r3, #0	; 0x0
   115fc:	eafffff5 	b	115d8 <handleMiddleButton+0x2c8>
          disableRadio();
        }
        enableUIInterrupt();
      }
    }
    clearScreen();
   11600:	ebfffd3e 	bl	10b00 <clearScreen>
    printMenu(current_display);
   11604:	e59f3024 	ldr	r3, [pc, #36]	; 11630 <handleMiddleButton+0x320>
   11608:	e5930000 	ldr	r0, [r3]
   1160c:	ebfffc95 	bl	10868 <printMenu>
}

// Start the interrupts again.
//
void enableUIInterrupt(void) {
  VICIntEnable |= 0x10;
   11610:	e3e02000 	mvn	r2, #0	; 0x0
   11614:	e5123fef 	ldr	r3, [r2, #-4079]
   11618:	e3833010 	orr	r3, r3, #16	; 0x10
   1161c:	e5023fef 	str	r3, [r2, #-4079]
    }
    clearScreen();
    printMenu(current_display);
  }
  enableUIInterrupt();
}
   11620:	e28dd008 	add	sp, sp, #8	; 0x8
   11624:	e8bd40f0 	pop	{r4, r5, r6, r7, lr}
   11628:	e12fff1e 	bx	lr
   1162c:	000f4240 	.word	0x000f4240
   11630:	40000d10 	.word	0x40000d10
   11634:	40000908 	.word	0x40000908
   11638:	40000895 	.word	0x40000895
   1163c:	400008a8 	.word	0x400008a8
   11640:	40000f28 	.word	0x40000f28
   11644:	40000009 	.word	0x40000009
   11648:	00018c8e 	.word	0x00018c8e
   1164c:	00989680 	.word	0x00989680
   11650:	40000000 	.word	0x40000000
   11654:	00019354 	.word	0x00019354
   11658:	4000089c 	.word	0x4000089c
   1165c:	40000894 	.word	0x40000894
   11660:	0001935b 	.word	0x0001935b
   11664:	00019357 	.word	0x00019357

00011668 <bootUp>:

// Usage: bootUp();
// Inputs: None
// This function initializes the serial port, the SD card, the I/O pins and the interrupts
void bootUp(void)
{
   11668:	e52de004 	push	{lr}		; (str lr, [sp, #-4]!)
    rprintf_devopen(putc_serial0); //Init rprintf
   1166c:	e59f0190 	ldr	r0, [pc, #400]	; 11804 <bootUp+0x19c>
   11670:	eb00019d 	bl	11cec <rprintf_devopen>
// The function will cause the firmware to delay for "count" milleseconds.
void delay_ms(int count)
{
  int i;
  count *= 10000;
  for (i = 0; i < count; i++) { asm volatile ("nop"); }
   11674:	e59f218c 	ldr	r2, [pc, #396]	; 11808 <bootUp+0x1a0>
// Usage: bootUp();
// Inputs: None
// This function initializes the serial port, the SD card, the I/O pins and the interrupts
void bootUp(void)
{
    rprintf_devopen(putc_serial0); //Init rprintf
   11678:	e3a03000 	mov	r3, #0	; 0x0
// The function will cause the firmware to delay for "count" milleseconds.
void delay_ms(int count)
{
  int i;
  count *= 10000;
  for (i = 0; i < count; i++) { asm volatile ("nop"); }
   1167c:	e1a00000 	nop			(mov r0,r0)
   11680:	e2833001 	add	r3, r3, #1	; 0x1
   11684:	e1530002 	cmp	r3, r2
   11688:	1afffffb 	bne	1167c <bootUp+0x14>
{
    rprintf_devopen(putc_serial0); //Init rprintf
    delay_ms(10); //Delay for power to stablize

    //Bring up SD and FAT
    if(!sd_raw_init())
   1168c:	eb0005dd 	bl	12e08 <sd_raw_init>
   11690:	e3500000 	cmp	r0, #0	; 0x0
    {
        rprintf("SD Init Error\n");
   11694:	059f0170 	ldreq	r0, [pc, #368]	; 1180c <bootUp+0x1a4>
   11698:	0b0001a7 	bleq	11d3c <rprintf>
    }
    if(openroot())
   1169c:	eb000383 	bl	124b0 <openroot>
   116a0:	e3500000 	cmp	r0, #0	; 0x0
    {
        rprintf("SD OpenRoot Error\n");
   116a4:	159f0164 	ldrne	r0, [pc, #356]	; 11810 <bootUp+0x1a8>
   116a8:	1b0001a3 	blne	11d3c <rprintf>
    }
     
  //Initialize I/O Ports and Peripherals
  //Setup the MP3 I/O Lines
  IODIR0 |= MP3_XCS;
   116ac:	e59f2160 	ldr	r2, [pc, #352]	; 11814 <bootUp+0x1ac>
   116b0:	e5923008 	ldr	r3, [r2, #8]
   116b4:	e3833601 	orr	r3, r3, #1048576	; 0x100000
   116b8:	e5823008 	str	r3, [r2, #8]
  IODIR0 &= ~MP3_DREQ;
   116bc:	e5923008 	ldr	r3, [r2, #8]
   116c0:	e3c33602 	bic	r3, r3, #2097152	; 0x200000
   116c4:	e5823008 	str	r3, [r2, #8]
  PINSEL1 |= 0x00000C00;	//Set the MP3_DREQ Pin to be a capture pin
   116c8:	e59f1148 	ldr	r1, [pc, #328]	; 11818 <bootUp+0x1b0>
   116cc:	e5913004 	ldr	r3, [r1, #4]
   116d0:	e3833b03 	orr	r3, r3, #3072	; 0xc00
   116d4:	e5813004 	str	r3, [r1, #4]
  IODIR1 |= MP3_XDCS | MP3_GPIO0 | MP3_XRES;	
   116d8:	e5923018 	ldr	r3, [r2, #24]
   116dc:	e3833401 	orr	r3, r3, #16777216	; 0x1000000
   116e0:	e3833803 	orr	r3, r3, #196608	; 0x30000
   116e4:	e5823018 	str	r3, [r2, #24]
  
  //Setupt the FM Trans. Lines
  IODIR1 |= FM_LA; 												//FM Trans Outputs (Leave SPI pins unconfigured for now)
   116e8:	e5923018 	ldr	r3, [r2, #24]
   116ec:	e3833402 	orr	r3, r3, #33554432	; 0x2000000
   116f0:	e5823018 	str	r3, [r2, #24]
  IODIR1 |= FM_CS;
   116f4:	e5923018 	ldr	r3, [r2, #24]
   116f8:	e3833201 	orr	r3, r3, #268435456	; 0x10000000
   116fc:	e5823018 	str	r3, [r2, #24]
  
  //Setup the SD Card I/O Lines
  IODIR0 |= SD_CS;												//SD Card Outputs
   11700:	e5923008 	ldr	r3, [r2, #8]
   11704:	e3833080 	orr	r3, r3, #128	; 0x80
   11708:	e5823008 	str	r3, [r2, #8]
  
  //Setup the Accelerometer I/O Lines
  IODIR0 |= (GS1 | GS2);											//Accelerometer Outputs
   1170c:	e5923008 	ldr	r3, [r2, #8]
   11710:	e3833b03 	orr	r3, r3, #3072	; 0xc00
   11714:	e5823008 	str	r3, [r2, #8]
  PINSEL0 |= (MMA_X_PINSEL | MMA_Y_PINSEL | MMA_Z_PINSEL);		//Make sure that ADC pins have ADC Functions selected
   11718:	e5913000 	ldr	r3, [r1]
   1171c:	e38334cf 	orr	r3, r3, #-822083584	; 0xcf000000
   11720:	e5813000 	str	r3, [r1]
  IOCLR0 = (GS1 | GS2);											//Init. Accel. to 1.5G Mode
   11724:	e3a03b03 	mov	r3, #3072	; 0xc00
   11728:	e582300c 	str	r3, [r2, #12]
  
  //Setup the LCD I/O Lines
  IODIR0 |= (LCD_RES | LCD_CS);									//LCD Outputs
   1172c:	e5923008 	ldr	r3, [r2, #8]
   11730:	e3833703 	orr	r3, r3, #786432	; 0xc0000
   11734:	e5823008 	str	r3, [r2, #8]
//

// Initializes the LEDs to an off state.
//
void initializeLEDs(void) {
  IODIR0 |= (LED_BLU | LED_RED | LED_GRN);
   11738:	e5923008 	ldr	r3, [r2, #8]
   1173c:	e3833207 	orr	r3, r3, #1879048192	; 0x70000000
   11740:	e5823008 	str	r3, [r2, #8]
  ledBlueOff();
   11744:	e3a03202 	mov	r3, #536870912	; 0x20000000
   11748:	e5823004 	str	r3, [r2, #4]
  ledRedOff();
   1174c:	e0833003 	add	r3, r3, r3
   11750:	e5823004 	str	r3, [r2, #4]
  ledGrnOff();
   11754:	e283320d 	add	r3, r3, #-805306368	; 0xd0000000
   11758:	e5823004 	str	r3, [r2, #4]
  IODIR0 |= (LCD_RES | LCD_CS);									//LCD Outputs
  
  initializeLEDs();
  
  //Setup the Buttons
  IODIR1 &= (~SW_UP & ~SW_DWN & ~SW_MID);		//Button Inputs
   1175c:	e5923018 	ldr	r3, [r2, #24]
   11760:	e3c3360e 	bic	r3, r3, #14680064	; 0xe00000
   11764:	e5823018 	str	r3, [r2, #24]
  
  IODIR0 &= ~(1<<23);							//Set the Vbus line as an input
   11768:	e5923008 	ldr	r3, [r2, #8]
   1176c:	e3c33502 	bic	r3, r3, #8388608	; 0x800000
   11770:	e5823008 	str	r3, [r2, #8]
//

// Initializes interrupts and timers.
//
void initializeInterrupts(void) {
  VPBDIV = 1;                              // Set PCLK equal to the System Clock	
   11774:	e59f30a0 	ldr	r3, [pc, #160]	; 1181c <bootUp+0x1b4>
   11778:	e3a02001 	mov	r2, #1	; 0x1
  VICIntSelect = ~0x30;                    // Timer 0 AND TIMER 1 interrupt is an IRQ interrupt
   1177c:	e3e01000 	mvn	r1, #0	; 0x0
//

// Initializes interrupts and timers.
//
void initializeInterrupts(void) {
  VPBDIV = 1;                              // Set PCLK equal to the System Clock	
   11780:	e5832100 	str	r2, [r3, #256]
  VICIntSelect = ~0x30;                    // Timer 0 AND TIMER 1 interrupt is an IRQ interrupt
   11784:	e3e03030 	mvn	r3, #48	; 0x30
   11788:	e5013ff3 	str	r3, [r1, #-4083]
}

// Exclusively listen to the UI interrupt.
//
void exclusiveUIInterrupt(void) {
  VICIntEnable = 0x10;
   1178c:	e2833041 	add	r3, r3, #65	; 0x41
   11790:	e5013fef 	str	r3, [r1, #-4079]
//
void initializeInterrupts(void) {
  VPBDIV = 1;                              // Set PCLK equal to the System Clock	
  VICIntSelect = ~0x30;                    // Timer 0 AND TIMER 1 interrupt is an IRQ interrupt
  exclusiveUIInterrupt();                  // Enable Timer 0 Interrupts (Don't start sending song data with Timer 1)
  VICVectCntl0= 0x25;                      // Use slot 0 for timer 1 interrupt
   11794:	e2833015 	add	r3, r3, #21	; 0x15
   11798:	e5013dff 	str	r3, [r1, #-3583]
  VICVectAddr0 = (unsigned int) timer1ISR; // Set the address of ISR for slot 1		
   1179c:	e59f307c 	ldr	r3, [pc, #124]	; 11820 <bootUp+0x1b8>
   117a0:	e5013eff 	str	r3, [r1, #-3839]
  VICVectCntl1 = 0x24;                     // Use slot 1 for timer 0 interrupt
   117a4:	e3a03024 	mov	r3, #36	; 0x24
   117a8:	e5013dfb 	str	r3, [r1, #-3579]
  VICVectAddr1 = (unsigned int) timer0ISR; // Set the address of ISR for slot 1
   117ac:	e59f3070 	ldr	r3, [pc, #112]	; 11824 <bootUp+0x1bc>
//

// Initialize the UI Timer.
//
void initializeUITimer(void) {
  T0PR = 300;     // Divide Clock by 300 for 40kHz PS
   117b0:	e59f0070 	ldr	r0, [pc, #112]	; 11828 <bootUp+0x1c0>
  VICIntSelect = ~0x30;                    // Timer 0 AND TIMER 1 interrupt is an IRQ interrupt
  exclusiveUIInterrupt();                  // Enable Timer 0 Interrupts (Don't start sending song data with Timer 1)
  VICVectCntl0= 0x25;                      // Use slot 0 for timer 1 interrupt
  VICVectAddr0 = (unsigned int) timer1ISR; // Set the address of ISR for slot 1		
  VICVectCntl1 = 0x24;                     // Use slot 1 for timer 0 interrupt
  VICVectAddr1 = (unsigned int) timer0ISR; // Set the address of ISR for slot 1
   117b4:	e5013efb 	str	r3, [r1, #-3835]
//

// Initialize the UI Timer.
//
void initializeUITimer(void) {
  T0PR = 300;     // Divide Clock by 300 for 40kHz PS
   117b8:	e3a03f4b 	mov	r3, #300	; 0x12c
   117bc:	e580300c 	str	r3, [r0, #12]
  T0TCR |= 0X01;  // Enable the clock
   117c0:	e5903004 	ldr	r3, [r0, #4]
   117c4:	e1833002 	orr	r3, r3, r2
   117c8:	e5803004 	str	r3, [r0, #4]
  T0CTCR = 0;     // Timer Mode
   117cc:	e3a03000 	mov	r3, #0	; 0x0
   117d0:	e5803070 	str	r3, [r0, #112]
  T0MCR = 0x0003; // Interrupt and Reset Timer on Match
   117d4:	e2833003 	add	r3, r3, #3	; 0x3
   117d8:	e5803014 	str	r3, [r0, #20]
  T0MR0 = 1000;   // Interrupt on 40Hz
   117dc:	e3a03ffa 	mov	r3, #1000	; 0x3e8
   117e0:	e5803018 	str	r3, [r0, #24]
  
  IODIR0 &= ~(1<<23);							//Set the Vbus line as an input
  
  initializeInterrupts();
  initializeUITimer();
  initializeMP3Player();
   117e4:	ebfffdb6 	bl	10ec4 <initializeMP3Player>
//

// Initialize the SPI port.
//
void initializeSPI(void) {
  S0SPCCR = 64;   // SCK = 1 MHz, counter > 8 and even
   117e8:	e59f203c 	ldr	r2, [pc, #60]	; 1182c <bootUp+0x1c4>
   117ec:	e3a03040 	mov	r3, #64	; 0x40
   117f0:	e582300c 	str	r3, [r2, #12]
  S0SPCR  = 0x20; // Master, no interrupt enable, 8 bits
   117f4:	e3a03020 	mov	r3, #32	; 0x20
   117f8:	e5823000 	str	r3, [r2]
  initializeInterrupts();
  initializeUITimer();
  initializeMP3Player();
  
  initializeSPI();
}
   117fc:	e49de004 	pop	{lr}		; (ldr lr, [sp], #4)
   11800:	e12fff1e 	bx	lr
   11804:	00012048 	.word	0x00012048
   11808:	000186a0 	.word	0x000186a0
   1180c:	0001935e 	.word	0x0001935e
   11810:	0001936d 	.word	0x0001936d
   11814:	e0028000 	.word	0xe0028000
   11818:	e002c000 	.word	0xe002c000
   1181c:	e01fc000 	.word	0xe01fc000
   11820:	00010e30 	.word	0x00010e30
   11824:	00010664 	.word	0x00010664
   11828:	e0004000 	.word	0xe0004000
   1182c:	e0020000 	.word	0xe0020000

00011830 <main>:
const char contrast[9] = "Contrast";
const char radio_power[11]= "Radio Power";
const char radio_channel_menu[13]= "Radio Channel";
const char settings[10]="Settings:";

int main (void) {
   11830:	e1a0c00d 	mov	ip, sp
   11834:	e92ddff0 	push	{r4, r5, r6, r7, r8, r9, sl, fp, ip, lr, pc}
   11838:	e24cb004 	sub	fp, ip, #4	; 0x4
   1183c:	e24dd008 	sub	sp, sp, #8	; 0x8
  //*******************************************************
  //					Main Code
  //*******************************************************
  
  // Initialize ARM I/O
  bootUp();
   11840:	ebffff88 	bl	11668 <bootUp>
  
  initializeMP3Player();
   11844:	ebfffd9e 	bl	10ec4 <initializeMP3Player>
  
  splashScreen();
   11848:	ebfffcfa 	bl	10c38 <splashScreen>
  
  initializeRadio(radio_channel);
   1184c:	e59f33e8 	ldr	r3, [pc, #1000]	; 11c3c <main+0x40c>
   11850:	e5930000 	ldr	r0, [r3]
   11854:	ebfffe26 	bl	110f4 <initializeRadio>
}

// Hand over SPI lines to SD talk.
//
void selectSD(void) {
  PINSEL0 |= (SCLK_PINSEL | MISO_PINSEL | MOSI_PINSEL);
   11858:	e59f23e0 	ldr	r2, [pc, #992]	; 11c40 <main+0x410>
   1185c:	e5923000 	ldr	r3, [r2]
   11860:	e3833c15 	orr	r3, r3, #5376	; 0x1500
   11864:	e5823000 	str	r3, [r2]
   11868:	e3a04000 	mov	r4, #0	; 0x0
  
  // Find Out how many files are on the SD card
  selectSD();	//Make sure SPI is selected for reading the card
  do {
    numberOfChars++;
  } while(rootDirectory_files_stream(0) != '\0'); // Get the total number of characters in the filenames on the SD card
   1186c:	e3a00000 	mov	r0, #0	; 0x0
   11870:	eb000289 	bl	1229c <rootDirectory_files_stream>
   11874:	e2506000 	subs	r6, r0, #0	; 0x0
  initializeRadio(radio_channel);
  
  // Find Out how many files are on the SD card
  selectSD();	//Make sure SPI is selected for reading the card
  do {
    numberOfChars++;
   11878:	e2844001 	add	r4, r4, #1	; 0x1
  } while(rootDirectory_files_stream(0) != '\0'); // Get the total number of characters in the filenames on the SD card
   1187c:	1afffffa 	bne	1186c <main+0x3c>
  char tempNames[numberOfChars];   // This is one array that contains all of the filenames in the SD card, seperated by '\0'
   11880:	e2843006 	add	r3, r4, #6	; 0x6
   11884:	e3c33003 	bic	r3, r3, #3	; 0x3
   11888:	e063d00d 	rsb	sp, r3, sp
   1188c:	e28d8008 	add	r8, sp, #8	; 0x8
  NUMBEROFFILES = rootDirectory_files(tempNames, numberOfChars + 1);
   11890:	e1a00008 	mov	r0, r8
   11894:	e2841001 	add	r1, r4, #1	; 0x1
   11898:	eb000253 	bl	121ec <rootDirectory_files>
  FileStruct Files[NUMBEROFFILES]; // Dynamically create an array for all of the filenames
   1189c:	e1a03280 	lsl	r3, r0, #5
   118a0:	e2833004 	add	r3, r3, #4	; 0x4
   118a4:	e063d00d 	rsb	sp, r3, sp
  selectSD();	//Make sure SPI is selected for reading the card
  do {
    numberOfChars++;
  } while(rootDirectory_files_stream(0) != '\0'); // Get the total number of characters in the filenames on the SD card
  char tempNames[numberOfChars];   // This is one array that contains all of the filenames in the SD card, seperated by '\0'
  NUMBEROFFILES = rootDirectory_files(tempNames, numberOfChars + 1);
   118a8:	e59f3394 	ldr	r3, [pc, #916]	; 11c44 <main+0x414>
   118ac:	e1a05000 	mov	r5, r0
   118b0:	e5835000 	str	r5, [r3]
  FileStruct Files[NUMBEROFFILES]; // Dynamically create an array for all of the filenames
  
  // Get all of the filenames into a Global Array
  int chartracker=0;	
  for(int j=0; j<NUMBEROFFILES; j++){
   118b4:	e1a00006 	mov	r0, r6
  do {
    numberOfChars++;
  } while(rootDirectory_files_stream(0) != '\0'); // Get the total number of characters in the filenames on the SD card
  char tempNames[numberOfChars];   // This is one array that contains all of the filenames in the SD card, seperated by '\0'
  NUMBEROFFILES = rootDirectory_files(tempNames, numberOfChars + 1);
  FileStruct Files[NUMBEROFFILES]; // Dynamically create an array for all of the filenames
   118b8:	e28d7008 	add	r7, sp, #8	; 0x8
  
  // Get all of the filenames into a Global Array
  int chartracker=0;	
  for(int j=0; j<NUMBEROFFILES; j++){
   118bc:	e1a0e006 	mov	lr, r6
   118c0:	ea000010 	b	11908 <main+0xd8>
   118c4:	e3a03000 	mov	r3, #0	; 0x0
  				i=MAXFILENAMELEN+1;
  			}
  			else Files[j].file_name[i] = tempNames[chartracker];
  			chartracker++;
  		}
  		else Files[j].file_name[i] ='\0';
   118c8:	e1a0c28e 	lsl	ip, lr, #5
  
  // Get all of the filenames into a Global Array
  int chartracker=0;	
  for(int j=0; j<NUMBEROFFILES; j++){
  	for(int i=0; i<=MAXFILENAMELEN+1; i++){
  		if(chartracker <= numberOfChars){
   118cc:	e1500004 	cmp	r0, r4
  				i=MAXFILENAMELEN+1;
  			}
  			else Files[j].file_name[i] = tempNames[chartracker];
  			chartracker++;
  		}
  		else Files[j].file_name[i] ='\0';
   118d0:	e08c2003 	add	r2, ip, r3
   118d4:	87c76002 	strbhi	r6, [r7, r2]
  
  // Get all of the filenames into a Global Array
  int chartracker=0;	
  for(int j=0; j<NUMBEROFFILES; j++){
  	for(int i=0; i<=MAXFILENAMELEN+1; i++){
  		if(chartracker <= numberOfChars){
   118d8:	8a000006 	bhi	118f8 <main+0xc8>
  			if(tempNames[chartracker]==','){
   118dc:	e7d81000 	ldrb	r1, [r8, r0]
   118e0:	e351002c 	cmp	r1, #44	; 0x2c
  				Files[j].file_name[i] = '\0';
   118e4:	01a03002 	moveq	r3, r2
  				i=MAXFILENAMELEN+1;
  			}
  			else Files[j].file_name[i] = tempNames[chartracker];
   118e8:	17c71002 	strbne	r1, [r7, r2]
  int chartracker=0;	
  for(int j=0; j<NUMBEROFFILES; j++){
  	for(int i=0; i<=MAXFILENAMELEN+1; i++){
  		if(chartracker <= numberOfChars){
  			if(tempNames[chartracker]==','){
  				Files[j].file_name[i] = '\0';
   118ec:	07c76003 	strbeq	r6, [r7, r3]
  				i=MAXFILENAMELEN+1;
  			}
  			else Files[j].file_name[i] = tempNames[chartracker];
  			chartracker++;
   118f0:	e2800001 	add	r0, r0, #1	; 0x1
  int chartracker=0;	
  for(int j=0; j<NUMBEROFFILES; j++){
  	for(int i=0; i<=MAXFILENAMELEN+1; i++){
  		if(chartracker <= numberOfChars){
  			if(tempNames[chartracker]==','){
  				Files[j].file_name[i] = '\0';
   118f4:	03a0301f 	moveq	r3, #31	; 0x1f
  FileStruct Files[NUMBEROFFILES]; // Dynamically create an array for all of the filenames
  
  // Get all of the filenames into a Global Array
  int chartracker=0;	
  for(int j=0; j<NUMBEROFFILES; j++){
  	for(int i=0; i<=MAXFILENAMELEN+1; i++){
   118f8:	e2833001 	add	r3, r3, #1	; 0x1
   118fc:	e3530020 	cmp	r3, #32	; 0x20
   11900:	1afffff1 	bne	118cc <main+0x9c>
  NUMBEROFFILES = rootDirectory_files(tempNames, numberOfChars + 1);
  FileStruct Files[NUMBEROFFILES]; // Dynamically create an array for all of the filenames
  
  // Get all of the filenames into a Global Array
  int chartracker=0;	
  for(int j=0; j<NUMBEROFFILES; j++){
   11904:	e28ee001 	add	lr, lr, #1	; 0x1
   11908:	e15e0005 	cmp	lr, r5
   1190c:	baffffec 	blt	118c4 <main+0x94>
  		else Files[j].file_name[i] ='\0';
  	}	
  }
	
	//Load the file manager with the songs/files on the SD card and set this as the current display
	file_manager.total_pages = (NUMBEROFFILES/NUMROWS)-1;
   11910:	e3a0100f 	mov	r1, #15	; 0xf
   11914:	e1a00005 	mov	r0, r5
   11918:	eb001c19 	bl	18984 <__aeabi_idiv>
   1191c:	e59f6324 	ldr	r6, [pc, #804]	; 11c48 <main+0x418>
   11920:	e20040ff 	and	r4, r0, #255	; 0xff
   11924:	e2443001 	sub	r3, r4, #1	; 0x1
	if(NUMBEROFFILES%NUMROWS != 0)file_manager.total_pages+=1;
   11928:	e1a00005 	mov	r0, r5
   1192c:	e3a0100f 	mov	r1, #15	; 0xf
  		else Files[j].file_name[i] ='\0';
  	}	
  }
	
	//Load the file manager with the songs/files on the SD card and set this as the current display
	file_manager.total_pages = (NUMBEROFFILES/NUMROWS)-1;
   11930:	e5c63005 	strb	r3, [r6, #5]
	if(NUMBEROFFILES%NUMROWS != 0)file_manager.total_pages+=1;
   11934:	eb001c95 	bl	18b90 <__modsi3>
	
	file_manager.orientation =ORIENTUP;
	file_manager.text_color=white;
   11938:	e59f330c 	ldr	r3, [pc, #780]	; 11c4c <main+0x41c>
   1193c:	e5d32000 	ldrb	r2, [r3]
	file_manager.back_color=black;
   11940:	e59f3308 	ldr	r3, [pc, #776]	; 11c50 <main+0x420>
  	}	
  }
	
	//Load the file manager with the songs/files on the SD card and set this as the current display
	file_manager.total_pages = (NUMBEROFFILES/NUMROWS)-1;
	if(NUMBEROFFILES%NUMROWS != 0)file_manager.total_pages+=1;
   11944:	e3500000 	cmp	r0, #0	; 0x0
	
	file_manager.orientation =ORIENTUP;
	file_manager.text_color=white;
	file_manager.back_color=black;
   11948:	e5d33000 	ldrb	r3, [r3]
  	}	
  }
	
	//Load the file manager with the songs/files on the SD card and set this as the current display
	file_manager.total_pages = (NUMBEROFFILES/NUMROWS)-1;
	if(NUMBEROFFILES%NUMROWS != 0)file_manager.total_pages+=1;
   1194c:	15c64005 	strbne	r4, [r6, #5]
	
	file_manager.orientation =ORIENTUP;
   11950:	e59f42f0 	ldr	r4, [pc, #752]	; 11c48 <main+0x418>
   11954:	e3a05000 	mov	r5, #0	; 0x0
	file_manager.text_color=white;
	file_manager.back_color=black;
   11958:	e5c43004 	strb	r3, [r4, #4]
	
	file_manager.current_page=0;
	file_manager.current_row=1;
   1195c:	e3a03001 	mov	r3, #1	; 0x1
	//Load the file manager with the songs/files on the SD card and set this as the current display
	file_manager.total_pages = (NUMBEROFFILES/NUMROWS)-1;
	if(NUMBEROFFILES%NUMROWS != 0)file_manager.total_pages+=1;
	
	file_manager.orientation =ORIENTUP;
	file_manager.text_color=white;
   11960:	e5c42003 	strb	r2, [r4, #3]
	file_manager.back_color=black;
	
	file_manager.current_page=0;
	file_manager.current_row=1;
	file_manager.current_index=0;	
	getNewFiles(&file_manager, &Files[0]);
   11964:	e1a00004 	mov	r0, r4
   11968:	e1a01007 	mov	r1, r7
	file_manager.orientation =ORIENTUP;
	file_manager.text_color=white;
	file_manager.back_color=black;
	
	file_manager.current_page=0;
	file_manager.current_row=1;
   1196c:	e5c43000 	strb	r3, [r4]
	
	//Load the file manager with the songs/files on the SD card and set this as the current display
	file_manager.total_pages = (NUMBEROFFILES/NUMROWS)-1;
	if(NUMBEROFFILES%NUMROWS != 0)file_manager.total_pages+=1;
	
	file_manager.orientation =ORIENTUP;
   11970:	e5c45002 	strb	r5, [r4, #2]
	file_manager.text_color=white;
	file_manager.back_color=black;
	
	file_manager.current_page=0;
   11974:	e5c45006 	strb	r5, [r4, #6]
	file_manager.current_row=1;
	file_manager.current_index=0;	
   11978:	e5845008 	str	r5, [r4, #8]
	getNewFiles(&file_manager, &Files[0]);
   1197c:	ebfffa1d 	bl	101f8 <getNewFiles>
	for(int i=0; i<MAXDISPLEN; i++) {
	  file_manager.title[i] = welcome[i];
   11980:	e59f22cc 	ldr	r2, [pc, #716]	; 11c54 <main+0x424>
   11984:	e7d23005 	ldrb	r3, [r2, r5]
	
	file_manager.current_page=0;
	file_manager.current_row=1;
	file_manager.current_index=0;	
	getNewFiles(&file_manager, &Files[0]);
	for(int i=0; i<MAXDISPLEN; i++) {
   11988:	e2855001 	add	r5, r5, #1	; 0x1
   1198c:	e3550016 	cmp	r5, #22	; 0x16
	  file_manager.title[i] = welcome[i];
   11990:	e5c431ec 	strb	r3, [r4, #492]
	
	file_manager.current_page=0;
	file_manager.current_row=1;
	file_manager.current_index=0;	
	getNewFiles(&file_manager, &Files[0]);
	for(int i=0; i<MAXDISPLEN; i++) {
   11994:	e2844001 	add	r4, r4, #1	; 0x1
   11998:	1afffff9 	bne	11984 <main+0x154>
	  file_manager.title[i] = welcome[i];
  }
	
	//Generate the settings menu and fill in default settings values
	fillSettings(&settings_menu);
   1199c:	e59f02b4 	ldr	r0, [pc, #692]	; 11c58 <main+0x428>
   119a0:	ebfffa4d 	bl	102dc <fillSettings>
}

// Hand over SPI lines to LCD talk.
//
void selectLCD(void) {
  PINSEL0 &= 0xFFFFC00F;
   119a4:	e59f1294 	ldr	r1, [pc, #660]	; 11c40 <main+0x410>
   119a8:	e5913000 	ldr	r3, [r1]
	
	//Generate the settings menu and fill in default settings values
	fillSettings(&settings_menu);
	
  // Setup the menu
  current_display = &file_manager;
   119ac:	e59f2294 	ldr	r2, [pc, #660]	; 11c48 <main+0x418>
   119b0:	e59f42a4 	ldr	r4, [pc, #676]	; 11c5c <main+0x42c>
}

// Hand over SPI lines to LCD talk.
//
void selectLCD(void) {
  PINSEL0 &= 0xFFFFC00F;
   119b4:	e3c33dff 	bic	r3, r3, #16320	; 0x3fc0
   119b8:	e3c33030 	bic	r3, r3, #48	; 0x30
	fillSettings(&settings_menu);
	
  // Setup the menu
  current_display = &file_manager;
  selectLCD();
  LCDClear(current_display->back_color);
   119bc:	e5d20004 	ldrb	r0, [r2, #4]
	
	//Generate the settings menu and fill in default settings values
	fillSettings(&settings_menu);
	
  // Setup the menu
  current_display = &file_manager;
   119c0:	e5842000 	str	r2, [r4]
}

// Hand over SPI lines to LCD talk.
//
void selectLCD(void) {
  PINSEL0 &= 0xFFFFC00F;
   119c4:	e5813000 	str	r3, [r1]
	fillSettings(&settings_menu);
	
  // Setup the menu
  current_display = &file_manager;
  selectLCD();
  LCDClear(current_display->back_color);
   119c8:	eb000cef 	bl	14d8c <LCDClear>
  
  // TODO Floere remove
  LCDPrintString("GO GO MP3!", 0, current_display->text_color, 2, 0, current_display->orientation);
   119cc:	e5943000 	ldr	r3, [r4]
   119d0:	e3a04000 	mov	r4, #0	; 0x0
   119d4:	e5d32003 	ldrb	r2, [r3, #3]
   119d8:	e58d4000 	str	r4, [sp]
   119dc:	e5d3c002 	ldrb	ip, [r3, #2]
   119e0:	e59f0278 	ldr	r0, [pc, #632]	; 11c60 <main+0x430>
   119e4:	e3a03002 	mov	r3, #2	; 0x2
   119e8:	e1a01004 	mov	r1, r4
   119ec:	e58dc004 	str	ip, [sp, #4]
   119f0:	eb000da3 	bl	15084 <LCDPrintString>
// The function will cause the firmware to delay for "count" milleseconds.
void delay_ms(int count)
{
  int i;
  count *= 10000;
  for (i = 0; i < count; i++) { asm volatile ("nop"); }
   119f4:	e59f3268 	ldr	r3, [pc, #616]	; 11c64 <main+0x434>
   119f8:	e1a00000 	nop			(mov r0,r0)
   119fc:	e2844001 	add	r4, r4, #1	; 0x1
   11a00:	e1540003 	cmp	r4, r3
   11a04:	1afffffb 	bne	119f8 <main+0x1c8>
  // TODO Floere remove
  LCDPrintString("GO GO MP3!", 0, current_display->text_color, 2, 0, current_display->orientation);
  delay_ms(500);
  //
  
  printMenu(current_display);
   11a08:	e59f424c 	ldr	r4, [pc, #588]	; 11c5c <main+0x42c>
   11a0c:	e5940000 	ldr	r0, [r4]
   11a10:	ebfffb94 	bl	10868 <printMenu>
//

// Returns if the USB is connected.
//
int isUSBConnected(void) {
  return IOPIN0 & (1<<23);
   11a14:	e59f824c 	ldr	r8, [pc, #588]	; 11c68 <main+0x438>
			reset();
		}
	
		//Wait for a button to be pressed or for the screen to be rotated.
		//while(!button_pressed && !update_screen){
		if (!button_pressed && !update_screen) {
   11a18:	e59f624c 	ldr	r6, [pc, #588]	; 11c6c <main+0x43c>
   11a1c:	e59fa24c 	ldr	sl, [pc, #588]	; 11c70 <main+0x440>
      // If the current song is done playing, start playing the next song if it's available.
      if (song_is_over) {
   11a20:	e59f924c 	ldr	r9, [pc, #588]	; 11c74 <main+0x444>
//

// Returns if the USB is connected.
//
int isUSBConnected(void) {
  return IOPIN0 & (1<<23);
   11a24:	e5983000 	ldr	r3, [r8]
  //
  
  printMenu(current_display);
	while(1){
	  // USB connected!
		if (isUSBConnected()) {
   11a28:	e3130502 	tst	r3, #8388608	; 0x800000
   11a2c:	0a000022 	beq	11abc <main+0x28c>
			LCDClear(white);
   11a30:	e59f1214 	ldr	r1, [pc, #532]	; 11c4c <main+0x41c>
   11a34:	e5d10000 	ldrb	r0, [r1]
   11a38:	eb000cd3 	bl	14d8c <LCDClear>
			LCDPrintString(USB, 0, black, 7,4,current_display->orientation);
   11a3c:	e3a03004 	mov	r3, #4	; 0x4
   11a40:	e58d3000 	str	r3, [sp]
   11a44:	e5943000 	ldr	r3, [r4]
   11a48:	e59f1200 	ldr	r1, [pc, #512]	; 11c50 <main+0x420>
   11a4c:	e5d3c002 	ldrb	ip, [r3, #2]
   11a50:	e5d12000 	ldrb	r2, [r1]
   11a54:	e3a03007 	mov	r3, #7	; 0x7
   11a58:	e59f0218 	ldr	r0, [pc, #536]	; 11c78 <main+0x448>
   11a5c:	e3a01000 	mov	r1, #0	; 0x0
   11a60:	e58dc004 	str	ip, [sp, #4]
   11a64:	eb000d86 	bl	15084 <LCDPrintString>
   11a68:	e3a03000 	mov	r3, #0	; 0x0
// The function will cause the firmware to delay for "count" milleseconds.
void delay_ms(int count)
{
  int i;
  count *= 10000;
  for (i = 0; i < count; i++) { asm volatile ("nop"); }
   11a6c:	e1a00000 	nop			(mov r0,r0)
   11a70:	e59f2204 	ldr	r2, [pc, #516]	; 11c7c <main+0x44c>
   11a74:	e2833001 	add	r3, r3, #1	; 0x1
   11a78:	e1530002 	cmp	r3, r2
   11a7c:	1afffffa 	bne	11a6c <main+0x23c>
}

// Stops all interrupts from triggering.
//
void stopAllInterrupts(void) {
  VICIntEnClr = 0x30;
   11a80:	e3a02030 	mov	r2, #48	; 0x30
   11a84:	e3e03000 	mvn	r3, #0	; 0x0
   11a88:	e5032feb 	str	r2, [r3, #-4075]
		if (isUSBConnected()) {
			LCDClear(white);
			LCDPrintString(USB, 0, black, 7,4,current_display->orientation);
      delay_ms(1000);
      stopAllInterrupts(); // To allow USB communication
			main_msc();
   11a8c:	eb001061 	bl	15c18 <main_msc>
}

// Intentionally faults Watchdog to trigger a reset condition
//
void reset(void) {
  WDMOD |= 3;
   11a90:	e3a0220e 	mov	r2, #-536870912	; 0xe0000000
   11a94:	e5923000 	ldr	r3, [r2]
   11a98:	e3833003 	orr	r3, r3, #3	; 0x3
   11a9c:	e5823000 	str	r3, [r2]
  WDFEED = 0xAA;
   11aa0:	e3a010aa 	mov	r1, #170	; 0xaa
  WDFEED = 0x55;
   11aa4:	e3a03055 	mov	r3, #85	; 0x55

// Intentionally faults Watchdog to trigger a reset condition
//
void reset(void) {
  WDMOD |= 3;
  WDFEED = 0xAA;
   11aa8:	e5821008 	str	r1, [r2, #8]
  WDFEED = 0x55;
   11aac:	e5823008 	str	r3, [r2, #8]
  WDFEED = 0xAA;
  WDFEED = 0x00;
   11ab0:	e3a03000 	mov	r3, #0	; 0x0
//
void reset(void) {
  WDMOD |= 3;
  WDFEED = 0xAA;
  WDFEED = 0x55;
  WDFEED = 0xAA;
   11ab4:	e5821008 	str	r1, [r2, #8]
  WDFEED = 0x00;
   11ab8:	e5823008 	str	r3, [r2, #8]
			reset();
		}
	
		//Wait for a button to be pressed or for the screen to be rotated.
		//while(!button_pressed && !update_screen){
		if (!button_pressed && !update_screen) {
   11abc:	e5d63000 	ldrb	r3, [r6]
   11ac0:	e3530000 	cmp	r3, #0	; 0x0
   11ac4:	1a000041 	bne	11bd0 <main+0x3a0>
   11ac8:	e5da5000 	ldrb	r5, [sl]
   11acc:	e3550000 	cmp	r5, #0	; 0x0
   11ad0:	1a00003e 	bne	11bd0 <main+0x3a0>
      // If the current song is done playing, start playing the next song if it's available.
      if (song_is_over) {
   11ad4:	e5d93000 	ldrb	r3, [r9]
   11ad8:	e3530000 	cmp	r3, #0	; 0x0
   11adc:	0a00003b 	beq	11bd0 <main+0x3a0>
}

// Disable the MP3 interrupt.
//
void disableMP3Interrupt(void) {
  VICIntEnClr = 0x20;
   11ae0:	e3a02020 	mov	r2, #32	; 0x20
   11ae4:	e3e03000 	mvn	r3, #0	; 0x0
   11ae8:	e5032feb 	str	r2, [r3, #-4075]
		//while(!button_pressed && !update_screen){
		if (!button_pressed && !update_screen) {
      // If the current song is done playing, start playing the next song if it's available.
      if (song_is_over) {
        disableMP3Interrupt();
        closeSong(&current_song); // Close the current song
   11aec:	e59f018c 	ldr	r0, [pc, #396]	; 11c80 <main+0x450>
   11af0:	ebfffd9d 	bl	1116c <closeSong>
        file_is_open = 0;         //change master flag
        ledBlueOff();
        // Get the next song on the page by changing rows
				if(file_manager.current_row < NUMROWS){
   11af4:	e59f114c 	ldr	r1, [pc, #332]	; 11c48 <main+0x418>
		if (!button_pressed && !update_screen) {
      // If the current song is done playing, start playing the next song if it's available.
      if (song_is_over) {
        disableMP3Interrupt();
        closeSong(&current_song); // Close the current song
        file_is_open = 0;         //change master flag
   11af8:	e59f3184 	ldr	r3, [pc, #388]	; 11c84 <main+0x454>
        ledBlueOff();
        // Get the next song on the page by changing rows
				if(file_manager.current_row < NUMROWS){
   11afc:	e5d12000 	ldrb	r2, [r1]
		if (!button_pressed && !update_screen) {
      // If the current song is done playing, start playing the next song if it's available.
      if (song_is_over) {
        disableMP3Interrupt();
        closeSong(&current_song); // Close the current song
        file_is_open = 0;         //change master flag
   11b00:	e5c35000 	strb	r5, [r3]
        ledBlueOff();
        // Get the next song on the page by changing rows
				if(file_manager.current_row < NUMROWS){
   11b04:	e352000e 	cmp	r2, #14	; 0xe
      // If the current song is done playing, start playing the next song if it's available.
      if (song_is_over) {
        disableMP3Interrupt();
        closeSong(&current_song); // Close the current song
        file_is_open = 0;         //change master flag
        ledBlueOff();
   11b08:	e3a03202 	mov	r3, #536870912	; 0x20000000
   11b0c:	e5883004 	str	r3, [r8, #4]
        // Get the next song on the page by changing rows
				if(file_manager.current_row < NUMROWS){
					file_manager.current_row++;
   11b10:	92822001 	addls	r2, r2, #1	; 0x1
					file_manager.current_index++;
   11b14:	95913008 	ldrls	r3, [r1, #8]
        closeSong(&current_song); // Close the current song
        file_is_open = 0;         //change master flag
        ledBlueOff();
        // Get the next song on the page by changing rows
				if(file_manager.current_row < NUMROWS){
					file_manager.current_row++;
   11b18:	95c12000 	strbls	r2, [r1]
					file_manager.current_index++;
				}
				//Go to the next page of songs if necessary
				if((file_manager.current_row == NUMROWS) && (file_manager.current_page < file_manager.total_pages)){
   11b1c:	e59fc124 	ldr	ip, [pc, #292]	; 11c48 <main+0x418>
        file_is_open = 0;         //change master flag
        ledBlueOff();
        // Get the next song on the page by changing rows
				if(file_manager.current_row < NUMROWS){
					file_manager.current_row++;
					file_manager.current_index++;
   11b20:	92833001 	addls	r3, r3, #1	; 0x1
   11b24:	95813008 	strls	r3, [r1, #8]
				}
				//Go to the next page of songs if necessary
				if((file_manager.current_row == NUMROWS) && (file_manager.current_page < file_manager.total_pages)){
   11b28:	e5dc3000 	ldrb	r3, [ip]
   11b2c:	e353000f 	cmp	r3, #15	; 0xf
   11b30:	1a00000c 	bne	11b68 <main+0x338>
   11b34:	e5dc2006 	ldrb	r2, [ip, #6]
   11b38:	e5dc3005 	ldrb	r3, [ip, #5]
   11b3c:	e1530002 	cmp	r3, r2
   11b40:	9a000008 	bls	11b68 <main+0x338>
					file_manager.current_row=1;
					file_manager.current_index=0;
					file_manager.current_page++;
   11b44:	e2823001 	add	r3, r2, #1	; 0x1
					file_manager.current_row++;
					file_manager.current_index++;
				}
				//Go to the next page of songs if necessary
				if((file_manager.current_row == NUMROWS) && (file_manager.current_page < file_manager.total_pages)){
					file_manager.current_row=1;
   11b48:	e3a02001 	mov	r2, #1	; 0x1
   11b4c:	e5cc2000 	strb	r2, [ip]
					file_manager.current_index=0;
   11b50:	e3a02000 	mov	r2, #0	; 0x0
					file_manager.current_page++;
					getNewFiles(&file_manager, &Files[0]);		//Get the next page of songs
   11b54:	e1a0000c 	mov	r0, ip
   11b58:	e1a01007 	mov	r1, r7
					file_manager.current_index++;
				}
				//Go to the next page of songs if necessary
				if((file_manager.current_row == NUMROWS) && (file_manager.current_page < file_manager.total_pages)){
					file_manager.current_row=1;
					file_manager.current_index=0;
   11b5c:	e58c2008 	str	r2, [ip, #8]
					file_manager.current_page++;
   11b60:	e5cc3006 	strb	r3, [ip, #6]
					getNewFiles(&file_manager, &Files[0]);		//Get the next page of songs
   11b64:	ebfff9a3 	bl	101f8 <getNewFiles>
				}
				//If there is another song in the list, get it and play it!
				if(file_manager.list[file_manager.current_row+1].file_name[0] != '\0'){	
   11b68:	e59f50d8 	ldr	r5, [pc, #216]	; 11c48 <main+0x418>
   11b6c:	e5d53000 	ldrb	r3, [r5]
   11b70:	e0853283 	add	r3, r5, r3, lsl #5
   11b74:	e5d3302c 	ldrb	r3, [r3, #44]
   11b78:	e3530000 	cmp	r3, #0	; 0x0
   11b7c:	0a000013 	beq	11bd0 <main+0x3a0>
					LCDClear(file_manager.back_color);
   11b80:	e5d50004 	ldrb	r0, [r5, #4]
   11b84:	eb000c80 	bl	14d8c <LCDClear>
					printMenu(&file_manager);									// Print the menu with the next song!
   11b88:	e1a00005 	mov	r0, r5
   11b8c:	ebfffb35 	bl	10868 <printMenu>
					file_is_open = loadSongInfo(&current_song, &file_manager);	// Get the current song info.					
   11b90:	e1a01005 	mov	r1, r5
   11b94:	e59f00e4 	ldr	r0, [pc, #228]	; 11c80 <main+0x450>
   11b98:	ebfffda6 	bl	11238 <loadSongInfo>
   11b9c:	e59f30e0 	ldr	r3, [pc, #224]	; 11c84 <main+0x454>
   11ba0:	e5c30000 	strb	r0, [r3]
					vs1002Config();												// Enable the MP3 Comm. Lines
   11ba4:	eb000eb8 	bl	1568c <vs1002Config>
					vs1002SCIWrite(SCI_MODE, SM_SDINEW);						// Make sure the MP3 player is in the right mode. TODO necessary?
   11ba8:	e3a00000 	mov	r0, #0	; 0x0
   11bac:	e3a01b02 	mov	r1, #2048	; 0x800
   11bb0:	eb000eff 	bl	157b4 <vs1002SCIWrite>
					vs1002Finish();												// Disable the MP3 Comm. Lines
   11bb4:	eb000ebe 	bl	156b4 <vs1002Finish>
					ledBlueOn();
   11bb8:	e3a03202 	mov	r3, #536870912	; 0x20000000
   11bbc:	e588300c 	str	r3, [r8, #12]
}

// Enable the MP3 interrupt.
//
void enableMP3Interrupt(void) {
  VICIntEnable |= 0x20;
   11bc0:	e3e02000 	mvn	r2, #0	; 0x0
   11bc4:	e5123fef 	ldr	r3, [r2, #-4079]
   11bc8:	e3833020 	orr	r3, r3, #32	; 0x20
   11bcc:	e5023fef 	str	r3, [r2, #-4079]
					enableMP3Interrupt();
				}	
			}
		}

		if (button_pressed == UP_BUT) {
   11bd0:	e5d63000 	ldrb	r3, [r6]
   11bd4:	e3530002 	cmp	r3, #2	; 0x2
   11bd8:	1a000003 	bne	11bec <main+0x3bc>
		  handleUpButton(current_display, &Files[0]);
   11bdc:	e5940000 	ldr	r0, [r4]
   11be0:	e1a01007 	mov	r1, r7
   11be4:	ebfffba8 	bl	10a8c <handleUpButton>
   11be8:	ea00000c 	b	11c20 <main+0x3f0>
	  } else if (button_pressed == DWN_BUT) {
   11bec:	e3530001 	cmp	r3, #1	; 0x1
   11bf0:	1a000003 	bne	11c04 <main+0x3d4>
	    handleDownButton(current_display, &Files[0]);
   11bf4:	e5940000 	ldr	r0, [r4]
   11bf8:	e1a01007 	mov	r1, r7
   11bfc:	ebfffb83 	bl	10a10 <handleDownButton>
   11c00:	ea000006 	b	11c20 <main+0x3f0>
    } else if (button_pressed == MID_BUT) {
   11c04:	e3530003 	cmp	r3, #3	; 0x3
   11c08:	1a000001 	bne	11c14 <main+0x3e4>
      handleMiddleButton();
   11c0c:	ebfffdbf 	bl	11310 <handleMiddleButton>
   11c10:	ea000002 	b	11c20 <main+0x3f0>
    } else if (update_screen) {
   11c14:	e5da3000 	ldrb	r3, [sl]
   11c18:	e3530000 	cmp	r3, #0	; 0x0
      handleAccelerometer();
   11c1c:	1bfffbc7 	blne	10b40 <handleAccelerometer>
}

// Start the interrupts again.
//
void enableUIInterrupt(void) {
  VICIntEnable |= 0x10;
   11c20:	e3e03000 	mvn	r3, #0	; 0x0
   11c24:	e5132fef 	ldr	r2, [r3, #-4079]
   11c28:	e3822010 	orr	r2, r2, #16	; 0x10
   11c2c:	e5032fef 	str	r2, [r3, #-4079]
    } else if (button_pressed == MID_BUT) {
      handleMiddleButton();
    } else if (update_screen) {
      handleAccelerometer();
    }
    button_pressed = NO_BUT;
   11c30:	e2833001 	add	r3, r3, #1	; 0x1
   11c34:	e5c63000 	strb	r3, [r6]
   11c38:	eaffff79 	b	11a24 <main+0x1f4>
   11c3c:	40000004 	.word	0x40000004
   11c40:	e002c000 	.word	0xe002c000
   11c44:	40000898 	.word	0x40000898
   11c48:	40000908 	.word	0x40000908
   11c4c:	40000f28 	.word	0x40000f28
   11c50:	40000009 	.word	0x40000009
   11c54:	00018c78 	.word	0x00018c78
   11c58:	40000b0c 	.word	0x40000b0c
   11c5c:	40000d10 	.word	0x40000d10
   11c60:	00019380 	.word	0x00019380
   11c64:	004c4b40 	.word	0x004c4b40
   11c68:	e0028000 	.word	0xe0028000
   11c6c:	4000089c 	.word	0x4000089c
   11c70:	4000089d 	.word	0x4000089d
   11c74:	40000896 	.word	0x40000896
   11c78:	00018c9d 	.word	0x00018c9d
   11c7c:	00989680 	.word	0x00989680
   11c80:	400008a8 	.word	0x400008a8
   11c84:	40000895 	.word	0x40000895

00011c88 <_read_r>:
   11c88:	e3a00000 	mov	r0, #0	; 0x0
   11c8c:	e12fff1e 	bx	lr

00011c90 <_write_r>:
   11c90:	e1a00003 	mov	r0, r3
   11c94:	e12fff1e 	bx	lr

00011c98 <_close_r>:
   11c98:	e3a00000 	mov	r0, #0	; 0x0
   11c9c:	e12fff1e 	bx	lr

00011ca0 <_lseek_r>:
   11ca0:	e3a00000 	mov	r0, #0	; 0x0
   11ca4:	e12fff1e 	bx	lr

00011ca8 <_fstat_r>:
   11ca8:	e3a03a02 	mov	r3, #8192	; 0x2000
   11cac:	e3a00000 	mov	r0, #0	; 0x0
   11cb0:	e5823004 	str	r3, [r2, #4]
   11cb4:	e12fff1e 	bx	lr

00011cb8 <isatty>:
   11cb8:	e3a00001 	mov	r0, #1	; 0x1
   11cbc:	e12fff1e 	bx	lr

00011cc0 <_sbrk_r>:
   11cc0:	e59f201c 	ldr	r2, [pc, #28]	; 11ce4 <_sbrk_r+0x24>
   11cc4:	e5923000 	ldr	r3, [r2]
   11cc8:	e3530000 	cmp	r3, #0	; 0x0
   11ccc:	059f3014 	ldreq	r3, [pc, #20]	; 11ce8 <_sbrk_r+0x28>
   11cd0:	05823000 	streq	r3, [r2]
   11cd4:	e5920000 	ldr	r0, [r2]
   11cd8:	e0803001 	add	r3, r0, r1
   11cdc:	e5823000 	str	r3, [r2]
   11ce0:	e12fff1e 	bx	lr
   11ce4:	40000d14 	.word	0x40000d14
   11ce8:	40001f00 	.word	0x40001f00

00011cec <rprintf_devopen>:
   11cec:	e59f3004 	ldr	r3, [pc, #4]	; 11cf8 <rprintf_devopen+0xc>
   11cf0:	e5830000 	str	r0, [r3]
   11cf4:	e12fff1e 	bx	lr
   11cf8:	40000d18 	.word	0x40000d18

00011cfc <myputchar>:
   11cfc:	e92d4010 	push	{r4, lr}
   11d00:	e20040ff 	and	r4, r0, #255	; 0xff
   11d04:	e354000a 	cmp	r4, #10	; 0xa
   11d08:	e3a0000d 	mov	r0, #13	; 0xd
   11d0c:	059f3024 	ldreq	r3, [pc, #36]	; 11d38 <myputchar+0x3c>
   11d10:	0593c000 	ldreq	ip, [r3]
   11d14:	01a0e00f 	moveq	lr, pc
   11d18:	012fff1c 	bxeq	ip
   11d1c:	e1a00004 	mov	r0, r4
   11d20:	e59f3010 	ldr	r3, [pc, #16]	; 11d38 <myputchar+0x3c>
   11d24:	e593c000 	ldr	ip, [r3]
   11d28:	e1a0e00f 	mov	lr, pc
   11d2c:	e12fff1c 	bx	ip
   11d30:	e8bd4010 	pop	{r4, lr}
   11d34:	e12fff1e 	bx	lr
   11d38:	40000d18 	.word	0x40000d18

00011d3c <rprintf>:
   11d3c:	e92d000f 	push	{r0, r1, r2, r3}
   11d40:	e92d45f0 	push	{r4, r5, r6, r7, r8, sl, lr}
   11d44:	e24dd010 	sub	sp, sp, #16	; 0x10
   11d48:	e28d3030 	add	r3, sp, #48	; 0x30
   11d4c:	e58d300c 	str	r3, [sp, #12]
   11d50:	e59d502c 	ldr	r5, [sp, #44]
   11d54:	e3a00001 	mov	r0, #1	; 0x1
   11d58:	ebfff90d 	bl	10194 <delay_ms>
   11d5c:	ea000002 	b	11d6c <rprintf+0x30>
   11d60:	e3530000 	cmp	r3, #0	; 0x0
   11d64:	0a00008e 	beq	11fa4 <rprintf+0x268>
   11d68:	ebffffe3 	bl	11cfc <myputchar>
   11d6c:	e4d53001 	ldrb	r3, [r5], #1
   11d70:	e3530025 	cmp	r3, #37	; 0x25
   11d74:	e1a00003 	mov	r0, r3
   11d78:	1afffff8 	bne	11d60 <rprintf+0x24>
   11d7c:	e4d52001 	ldrb	r2, [r5], #1
   11d80:	e3520020 	cmp	r2, #32	; 0x20
   11d84:	13520030 	cmpne	r2, #48	; 0x30
   11d88:	13a03000 	movne	r3, #0	; 0x0
   11d8c:	03a03001 	moveq	r3, #1	; 0x1
   11d90:	11a07003 	movne	r7, r3
   11d94:	11a00002 	movne	r0, r2
   11d98:	11a0a007 	movne	sl, r7
   11d9c:	1a000007 	bne	11dc0 <rprintf+0x84>
   11da0:	e4d50001 	ldrb	r0, [r5], #1
   11da4:	e2403030 	sub	r3, r0, #48	; 0x30
   11da8:	e20370ff 	and	r7, r3, #255	; 0xff
   11dac:	e3570009 	cmp	r7, #9	; 0x9
   11db0:	94d50001 	ldrbls	r0, [r5], #1
   11db4:	81a0a002 	movhi	sl, r2
   11db8:	83a07000 	movhi	r7, #0	; 0x0
   11dbc:	91a0a002 	movls	sl, r2
   11dc0:	e350004c 	cmp	r0, #76	; 0x4c
   11dc4:	1350006c 	cmpne	r0, #108	; 0x6c
   11dc8:	04d50001 	ldrbeq	r0, [r5], #1
   11dcc:	13a03000 	movne	r3, #0	; 0x0
   11dd0:	03a03001 	moveq	r3, #1	; 0x1
   11dd4:	03a03001 	moveq	r3, #1	; 0x1
   11dd8:	e3500058 	cmp	r0, #88	; 0x58
   11ddc:	0a00003e 	beq	11edc <rprintf+0x1a0>
   11de0:	8a00000b 	bhi	11e14 <rprintf+0xd8>
   11de4:	e3500049 	cmp	r0, #73	; 0x49
   11de8:	0a00006a 	beq	11f98 <rprintf+0x25c>
   11dec:	8a000003 	bhi	11e00 <rprintf+0xc4>
   11df0:	e3500043 	cmp	r0, #67	; 0x43
   11df4:	0a000015 	beq	11e50 <rprintf+0x114>
   11df8:	e3500044 	cmp	r0, #68	; 0x44
   11dfc:	ea00000a 	b	11e2c <rprintf+0xf0>
   11e00:	e3500053 	cmp	r0, #83	; 0x53
   11e04:	0a000017 	beq	11e68 <rprintf+0x12c>
   11e08:	e3500055 	cmp	r0, #85	; 0x55
   11e0c:	1a000013 	bne	11e60 <rprintf+0x124>
   11e10:	ea000020 	b	11e98 <rprintf+0x15c>
   11e14:	e3500069 	cmp	r0, #105	; 0x69
   11e18:	0a00005e 	beq	11f98 <rprintf+0x25c>
   11e1c:	8a000004 	bhi	11e34 <rprintf+0xf8>
   11e20:	e3500063 	cmp	r0, #99	; 0x63
   11e24:	0a000009 	beq	11e50 <rprintf+0x114>
   11e28:	e3500064 	cmp	r0, #100	; 0x64
   11e2c:	1a00000b 	bne	11e60 <rprintf+0x124>
   11e30:	ea000058 	b	11f98 <rprintf+0x25c>
   11e34:	e3500075 	cmp	r0, #117	; 0x75
   11e38:	0a000016 	beq	11e98 <rprintf+0x15c>
   11e3c:	e3500078 	cmp	r0, #120	; 0x78
   11e40:	0a000025 	beq	11edc <rprintf+0x1a0>
   11e44:	e3500073 	cmp	r0, #115	; 0x73
   11e48:	1a000004 	bne	11e60 <rprintf+0x124>
   11e4c:	ea000005 	b	11e68 <rprintf+0x12c>
   11e50:	e59d200c 	ldr	r2, [sp, #12]
   11e54:	e2823004 	add	r3, r2, #4	; 0x4
   11e58:	e58d300c 	str	r3, [sp, #12]
   11e5c:	e5d20000 	ldrb	r0, [r2]
   11e60:	ebffffa5 	bl	11cfc <myputchar>
   11e64:	eaffffba 	b	11d54 <rprintf+0x18>
   11e68:	e59d300c 	ldr	r3, [sp, #12]
   11e6c:	e5936000 	ldr	r6, [r3]
   11e70:	e3a04000 	mov	r4, #0	; 0x0
   11e74:	e2833004 	add	r3, r3, #4	; 0x4
   11e78:	e58d300c 	str	r3, [sp, #12]
   11e7c:	ea000000 	b	11e84 <rprintf+0x148>
   11e80:	ebffff9d 	bl	11cfc <myputchar>
   11e84:	e7d43006 	ldrb	r3, [r4, r6]
   11e88:	e2530000 	subs	r0, r3, #0	; 0x0
   11e8c:	e2844001 	add	r4, r4, #1	; 0x1
   11e90:	1afffffa 	bne	11e80 <rprintf+0x144>
   11e94:	eaffffae 	b	11d54 <rprintf+0x18>
   11e98:	e3a0800a 	mov	r8, #10	; 0xa
   11e9c:	ea00000f 	b	11ee0 <rprintf+0x1a4>
   11ea0:	e59d300c 	ldr	r3, [sp, #12]
   11ea4:	e5934000 	ldr	r4, [r3]
   11ea8:	e2833004 	add	r3, r3, #4	; 0x4
   11eac:	e58d300c 	str	r3, [sp, #12]
   11eb0:	ea000003 	b	11ec4 <rprintf+0x188>
   11eb4:	e59d200c 	ldr	r2, [sp, #12]
   11eb8:	e2823004 	add	r3, r2, #4	; 0x4
   11ebc:	e58d300c 	str	r3, [sp, #12]
   11ec0:	e5924000 	ldr	r4, [r2]
   11ec4:	e3540000 	cmp	r4, #0	; 0x0
   11ec8:	b3a0002d 	movlt	r0, #45	; 0x2d
   11ecc:	b2644000 	rsblt	r4, r4, #0	; 0x0
   11ed0:	bbffff89 	bllt	11cfc <myputchar>
   11ed4:	e3a0800a 	mov	r8, #10	; 0xa
   11ed8:	ea000008 	b	11f00 <rprintf+0x1c4>
   11edc:	e3a08010 	mov	r8, #16	; 0x10
   11ee0:	e59d200c 	ldr	r2, [sp, #12]
   11ee4:	e3530000 	cmp	r3, #0	; 0x0
   11ee8:	12823004 	addne	r3, r2, #4	; 0x4
   11eec:	02823004 	addeq	r3, r2, #4	; 0x4
   11ef0:	15924000 	ldrne	r4, [r2]
   11ef4:	158d300c 	strne	r3, [sp, #12]
   11ef8:	058d300c 	streq	r3, [sp, #12]
   11efc:	05924000 	ldreq	r4, [r2]
   11f00:	e3a03000 	mov	r3, #0	; 0x0
   11f04:	e5cd300b 	strb	r3, [sp, #11]
   11f08:	e28d600b 	add	r6, sp, #11	; 0xb
   11f0c:	e1a00004 	mov	r0, r4
   11f10:	e1a01008 	mov	r1, r8
   11f14:	eb001aea 	bl	18ac4 <__umodsi3>
   11f18:	e2800030 	add	r0, r0, #48	; 0x30
   11f1c:	e20030ff 	and	r3, r0, #255	; 0xff
   11f20:	e3530039 	cmp	r3, #57	; 0x39
   11f24:	e2832007 	add	r2, r3, #7	; 0x7
   11f28:	820230ff 	andhi	r3, r2, #255	; 0xff
   11f2c:	e5463001 	strb	r3, [r6, #-1]
   11f30:	e1a00004 	mov	r0, r4
   11f34:	e1a01008 	mov	r1, r8
   11f38:	eb001a4d 	bl	18874 <__aeabi_uidiv>
   11f3c:	e3570000 	cmp	r7, #0	; 0x0
   11f40:	e2473001 	sub	r3, r7, #1	; 0x1
   11f44:	120370ff 	andne	r7, r3, #255	; 0xff
   11f48:	e3500000 	cmp	r0, #0	; 0x0
   11f4c:	e2466001 	sub	r6, r6, #1	; 0x1
   11f50:	e1a04000 	mov	r4, r0
   11f54:	1affffec 	bne	11f0c <rprintf+0x1d0>
   11f58:	e1a01007 	mov	r1, r7
   11f5c:	e1a02006 	mov	r2, r6
   11f60:	ea000000 	b	11f68 <rprintf+0x22c>
   11f64:	e562a001 	strb	sl, [r2, #-1]!
   11f68:	e2473001 	sub	r3, r7, #1	; 0x1
   11f6c:	e20370ff 	and	r7, r3, #255	; 0xff
   11f70:	e35700ff 	cmp	r7, #255	; 0xff
   11f74:	1afffffa 	bne	11f64 <rprintf+0x228>
   11f78:	e0614006 	rsb	r4, r1, r6
   11f7c:	ea000000 	b	11f84 <rprintf+0x248>
   11f80:	ebffff5d 	bl	11cfc <myputchar>
   11f84:	e5d43000 	ldrb	r3, [r4]
   11f88:	e2530000 	subs	r0, r3, #0	; 0x0
   11f8c:	e2844001 	add	r4, r4, #1	; 0x1
   11f90:	1afffffa 	bne	11f80 <rprintf+0x244>
   11f94:	eaffff6e 	b	11d54 <rprintf+0x18>
   11f98:	e3530000 	cmp	r3, #0	; 0x0
   11f9c:	1affffbf 	bne	11ea0 <rprintf+0x164>
   11fa0:	eaffffc3 	b	11eb4 <rprintf+0x178>
   11fa4:	e28dd010 	add	sp, sp, #16	; 0x10
   11fa8:	e8bd45f0 	pop	{r4, r5, r6, r7, r8, sl, lr}
   11fac:	e28dd010 	add	sp, sp, #16	; 0x10
   11fb0:	e12fff1e 	bx	lr

00011fb4 <init_serial0>:
   11fb4:	e59f3040 	ldr	r3, [pc, #64]	; 11ffc <init_serial0+0x48>
   11fb8:	e92d4010 	push	{r4, lr}
   11fbc:	e3a02005 	mov	r2, #5	; 0x5
   11fc0:	e59f4038 	ldr	r4, [pc, #56]	; 12000 <init_serial0+0x4c>
   11fc4:	e5832000 	str	r2, [r3]
   11fc8:	e3a03083 	mov	r3, #131	; 0x83
   11fcc:	e1a01000 	mov	r1, r0
   11fd0:	e584300c 	str	r3, [r4, #12]
   11fd4:	e59f0028 	ldr	r0, [pc, #40]	; 12004 <init_serial0+0x50>
   11fd8:	eb001a25 	bl	18874 <__aeabi_uidiv>
   11fdc:	e20030ff 	and	r3, r0, #255	; 0xff
   11fe0:	e1a00420 	lsr	r0, r0, #8
   11fe4:	e5840004 	str	r0, [r4, #4]
   11fe8:	e5843000 	str	r3, [r4]
   11fec:	e3a03003 	mov	r3, #3	; 0x3
   11ff0:	e584300c 	str	r3, [r4, #12]
   11ff4:	e8bd4010 	pop	{r4, lr}
   11ff8:	e12fff1e 	bx	lr
   11ffc:	e002c000 	.word	0xe002c000
   12000:	e000c000 	.word	0xe000c000
   12004:	000e4e1c 	.word	0x000e4e1c

00012008 <putchar_serial0>:
   12008:	e350000a 	cmp	r0, #10	; 0xa
   1200c:	1a000005 	bne	12028 <putchar_serial0+0x20>
   12010:	e59f202c 	ldr	r2, [pc, #44]	; 12044 <putchar_serial0+0x3c>
   12014:	e5923014 	ldr	r3, [r2, #20]
   12018:	e3130020 	tst	r3, #32	; 0x20
   1201c:	0afffffb 	beq	12010 <putchar_serial0+0x8>
   12020:	e3a0300d 	mov	r3, #13	; 0xd
   12024:	e5823000 	str	r3, [r2]
   12028:	e59f2014 	ldr	r2, [pc, #20]	; 12044 <putchar_serial0+0x3c>
   1202c:	e5923014 	ldr	r3, [r2, #20]
   12030:	e3130020 	tst	r3, #32	; 0x20
   12034:	0afffffb 	beq	12028 <putchar_serial0+0x20>
   12038:	e5820000 	str	r0, [r2]
   1203c:	e5920000 	ldr	r0, [r2]
   12040:	e12fff1e 	bx	lr
   12044:	e000c000 	.word	0xe000c000

00012048 <putc_serial0>:
   12048:	e59f2014 	ldr	r2, [pc, #20]	; 12064 <putc_serial0+0x1c>
   1204c:	e5923014 	ldr	r3, [r2, #20]
   12050:	e3130020 	tst	r3, #32	; 0x20
   12054:	0afffffb 	beq	12048 <putc_serial0>
   12058:	e5820000 	str	r0, [r2]
   1205c:	e5920000 	ldr	r0, [r2]
   12060:	e12fff1e 	bx	lr
   12064:	e000c000 	.word	0xe000c000

00012068 <putstring_serial0>:
   12068:	e92d4010 	push	{r4, lr}
   1206c:	e1a04000 	mov	r4, r0
   12070:	ea000000 	b	12078 <putstring_serial0+0x10>
   12074:	ebffffe3 	bl	12008 <putchar_serial0>
   12078:	e5d43000 	ldrb	r3, [r4]
   1207c:	e2530000 	subs	r0, r3, #0	; 0x0
   12080:	e2844001 	add	r4, r4, #1	; 0x1
   12084:	1afffffa 	bne	12074 <putstring_serial0+0xc>
   12088:	e8bd4010 	pop	{r4, lr}
   1208c:	e12fff1e 	bx	lr

00012090 <getkey_serial0>:
   12090:	e59f2010 	ldr	r2, [pc, #16]	; 120a8 <getkey_serial0+0x18>
   12094:	e5923014 	ldr	r3, [r2, #20]
   12098:	e2133001 	ands	r3, r3, #1	; 0x1
   1209c:	e1a00003 	mov	r0, r3
   120a0:	15920000 	ldrne	r0, [r2]
   120a4:	e12fff1e 	bx	lr
   120a8:	e000c000 	.word	0xe000c000

000120ac <getc0>:
   120ac:	e59f2010 	ldr	r2, [pc, #16]	; 120c4 <getc0+0x18>
   120b0:	e5923014 	ldr	r3, [r2, #20]
   120b4:	e3130001 	tst	r3, #1	; 0x1
   120b8:	0afffffb 	beq	120ac <getc0>
   120bc:	e5920000 	ldr	r0, [r2]
   120c0:	e12fff1e 	bx	lr
   120c4:	e000c000 	.word	0xe000c000

000120c8 <SPI0_send_recv>:
   120c8:	e59f3024 	ldr	r3, [pc, #36]	; 120f4 <SPI0_send_recv+0x2c>
   120cc:	e20000ff 	and	r0, r0, #255	; 0xff
   120d0:	e5830008 	str	r0, [r3, #8]
   120d4:	e59f2018 	ldr	r2, [pc, #24]	; 120f4 <SPI0_send_recv+0x2c>
   120d8:	e5923004 	ldr	r3, [r2, #4]
   120dc:	e3130080 	tst	r3, #128	; 0x80
   120e0:	0afffffb 	beq	120d4 <SPI0_send_recv+0xc>
   120e4:	e5923004 	ldr	r3, [r2, #4]
   120e8:	e5920008 	ldr	r0, [r2, #8]
   120ec:	e20000ff 	and	r0, r0, #255	; 0xff
   120f0:	e12fff1e 	bx	lr
   120f4:	e0020000 	.word	0xe0020000

000120f8 <SPI0_recv>:
   120f8:	e52de004 	push	{lr}		; (str lr, [sp, #-4]!)
   120fc:	e3a000ff 	mov	r0, #255	; 0xff
   12100:	ebfffff0 	bl	120c8 <SPI0_send_recv>
   12104:	e49de004 	pop	{lr}		; (ldr lr, [sp], #4)
   12108:	e12fff1e 	bx	lr

0001210c <SPI0_send>:
   1210c:	e20000ff 	and	r0, r0, #255	; 0xff
   12110:	eaffffec 	b	120c8 <SPI0_send_recv>

00012114 <root_file_exists>:
   12114:	e59f3020 	ldr	r3, [pc, #32]	; 1213c <root_file_exists+0x28>
   12118:	e5931000 	ldr	r1, [r3]
   1211c:	e59f301c 	ldr	r3, [pc, #28]	; 12140 <root_file_exists+0x2c>
   12120:	e1a02000 	mov	r2, r0
   12124:	e52de004 	push	{lr}		; (str lr, [sp, #-4]!)
   12128:	e5930000 	ldr	r0, [r3]
   1212c:	e59f3010 	ldr	r3, [pc, #16]	; 12144 <root_file_exists+0x30>
   12130:	eb0006e4 	bl	13cc8 <find_file_in_dir>
   12134:	e49de004 	pop	{lr}		; (ldr lr, [sp], #4)
   12138:	e12fff1e 	bx	lr
   1213c:	40001270 	.word	0x40001270
   12140:	40001238 	.word	0x40001238
   12144:	4000123c 	.word	0x4000123c

00012148 <root_delete>:
   12148:	e92d4010 	push	{r4, lr}
   1214c:	e59f3038 	ldr	r3, [pc, #56]	; 1218c <root_delete+0x44>
   12150:	e59f4038 	ldr	r4, [pc, #56]	; 12190 <root_delete+0x48>
   12154:	e5931000 	ldr	r1, [r3]
   12158:	e1a02000 	mov	r2, r0
   1215c:	e59f3030 	ldr	r3, [pc, #48]	; 12194 <root_delete+0x4c>
   12160:	e5940000 	ldr	r0, [r4]
   12164:	eb0006d7 	bl	13cc8 <find_file_in_dir>
   12168:	e3500000 	cmp	r0, #0	; 0x0
   1216c:	e59f1020 	ldr	r1, [pc, #32]	; 12194 <root_delete+0x4c>
   12170:	e3a00001 	mov	r0, #1	; 0x1
   12174:	0a000002 	beq	12184 <root_delete+0x3c>
   12178:	e5940000 	ldr	r0, [r4]
   1217c:	eb0005d4 	bl	138d4 <fat16_delete_file>
   12180:	e3a00000 	mov	r0, #0	; 0x0
   12184:	e8bd4010 	pop	{r4, lr}
   12188:	e12fff1e 	bx	lr
   1218c:	40001270 	.word	0x40001270
   12190:	40001238 	.word	0x40001238
   12194:	4000123c 	.word	0x4000123c

00012198 <root_format>:
   12198:	e92d4010 	push	{r4, lr}
   1219c:	e59f303c 	ldr	r3, [pc, #60]	; 121e0 <root_format+0x48>
   121a0:	e5930000 	ldr	r0, [r3]
   121a4:	ea000003 	b	121b8 <root_format+0x20>
   121a8:	e59f3034 	ldr	r3, [pc, #52]	; 121e4 <root_format+0x4c>
   121ac:	e5930000 	ldr	r0, [r3]
   121b0:	eb0005c7 	bl	138d4 <fat16_delete_file>
   121b4:	e5940000 	ldr	r0, [r4]
   121b8:	e59f4020 	ldr	r4, [pc, #32]	; 121e0 <root_format+0x48>
   121bc:	eb0005bd 	bl	138b8 <fat16_reset_dir>
   121c0:	e59f1020 	ldr	r1, [pc, #32]	; 121e8 <root_format+0x50>
   121c4:	e5940000 	ldr	r0, [r4]
   121c8:	eb000638 	bl	13ab0 <fat16_read_dir>
   121cc:	e3500000 	cmp	r0, #0	; 0x0
   121d0:	e59f1010 	ldr	r1, [pc, #16]	; 121e8 <root_format+0x50>
   121d4:	1afffff3 	bne	121a8 <root_format+0x10>
   121d8:	e8bd4010 	pop	{r4, lr}
   121dc:	e12fff1e 	bx	lr
   121e0:	40001270 	.word	0x40001270
   121e4:	40001238 	.word	0x40001238
   121e8:	4000123c 	.word	0x4000123c

000121ec <rootDirectory_files>:
   121ec:	e59f30a0 	ldr	r3, [pc, #160]	; 12294 <rootDirectory_files+0xa8>
   121f0:	e92d4070 	push	{r4, r5, r6, lr}
   121f4:	e1a04000 	mov	r4, r0
   121f8:	e5930000 	ldr	r0, [r3]
   121fc:	e1a05001 	mov	r5, r1
   12200:	eb0005ac 	bl	138b8 <fat16_reset_dir>
   12204:	e3a06000 	mov	r6, #0	; 0x0
   12208:	ea000017 	b	1226c <rootDirectory_files+0x80>
   1220c:	e3520001 	cmp	r2, #1	; 0x1
   12210:	e5c41000 	strb	r1, [r4]
   12214:	e1a04000 	mov	r4, r0
   12218:	1a000004 	bne	12230 <rootDirectory_files+0x44>
   1221c:	e3a03000 	mov	r3, #0	; 0x0
   12220:	e1a06002 	mov	r6, r2
   12224:	e5c03000 	strb	r3, [r0]
   12228:	ea000016 	b	12288 <rootDirectory_files+0x9c>
   1222c:	e59f3064 	ldr	r3, [pc, #100]	; 12298 <rootDirectory_files+0xac>
   12230:	e5d31000 	ldrb	r1, [r3]
   12234:	e2452001 	sub	r2, r5, #1	; 0x1
   12238:	e3510000 	cmp	r1, #0	; 0x0
   1223c:	e2833001 	add	r3, r3, #1	; 0x1
   12240:	e1a05002 	mov	r5, r2
   12244:	e2840001 	add	r0, r4, #1	; 0x1
   12248:	1affffef 	bne	1220c <rootDirectory_files+0x20>
   1224c:	e3a0302c 	mov	r3, #44	; 0x2c
   12250:	e3520001 	cmp	r2, #1	; 0x1
   12254:	e5c43000 	strb	r3, [r4]
   12258:	e1a04000 	mov	r4, r0
   1225c:	01a06002 	moveq	r6, r2
   12260:	05c01000 	strbeq	r1, [r0]
   12264:	0a000007 	beq	12288 <rootDirectory_files+0x9c>
   12268:	e2866001 	add	r6, r6, #1	; 0x1
   1226c:	e59f3020 	ldr	r3, [pc, #32]	; 12294 <rootDirectory_files+0xa8>
   12270:	e59f1020 	ldr	r1, [pc, #32]	; 12298 <rootDirectory_files+0xac>
   12274:	e5930000 	ldr	r0, [r3]
   12278:	eb00060c 	bl	13ab0 <fat16_read_dir>
   1227c:	e3500000 	cmp	r0, #0	; 0x0
   12280:	1affffe9 	bne	1222c <rootDirectory_files+0x40>
   12284:	e5c40000 	strb	r0, [r4]
   12288:	e1a00006 	mov	r0, r6
   1228c:	e8bd4070 	pop	{r4, r5, r6, lr}
   12290:	e12fff1e 	bx	lr
   12294:	40001270 	.word	0x40001270
   12298:	4000123c 	.word	0x4000123c

0001229c <rootDirectory_files_stream>:
   1229c:	e3500000 	cmp	r0, #0	; 0x0
   122a0:	e52de004 	push	{lr}		; (str lr, [sp, #-4]!)
   122a4:	0a000004 	beq	122bc <rootDirectory_files_stream+0x20>
   122a8:	e59f3064 	ldr	r3, [pc, #100]	; 12314 <rootDirectory_files_stream+0x78>
   122ac:	e5930000 	ldr	r0, [r3]
   122b0:	eb000580 	bl	138b8 <fat16_reset_dir>
   122b4:	e3a00000 	mov	r0, #0	; 0x0
   122b8:	ea000013 	b	1230c <rootDirectory_files_stream+0x70>
   122bc:	e59f3054 	ldr	r3, [pc, #84]	; 12318 <rootDirectory_files_stream+0x7c>
   122c0:	e5933000 	ldr	r3, [r3]
   122c4:	e3530000 	cmp	r3, #0	; 0x0
   122c8:	e59f104c 	ldr	r1, [pc, #76]	; 1231c <rootDirectory_files_stream+0x80>
   122cc:	1a000004 	bne	122e4 <rootDirectory_files_stream+0x48>
   122d0:	e59f303c 	ldr	r3, [pc, #60]	; 12314 <rootDirectory_files_stream+0x78>
   122d4:	e5930000 	ldr	r0, [r3]
   122d8:	eb0005f4 	bl	13ab0 <fat16_read_dir>
   122dc:	e3500000 	cmp	r0, #0	; 0x0
   122e0:	0a000009 	beq	1230c <rootDirectory_files_stream+0x70>
   122e4:	e59f102c 	ldr	r1, [pc, #44]	; 12318 <rootDirectory_files_stream+0x7c>
   122e8:	e59f302c 	ldr	r3, [pc, #44]	; 1231c <rootDirectory_files_stream+0x80>
   122ec:	e5912000 	ldr	r2, [r1]
   122f0:	e7d33002 	ldrb	r3, [r3, r2]
   122f4:	e2822001 	add	r2, r2, #1	; 0x1
   122f8:	e3530000 	cmp	r3, #0	; 0x0
   122fc:	05813000 	streq	r3, [r1]
   12300:	15812000 	strne	r2, [r1]
   12304:	e3a0002c 	mov	r0, #44	; 0x2c
   12308:	11a00003 	movne	r0, r3
   1230c:	e49de004 	pop	{lr}		; (ldr lr, [sp], #4)
   12310:	e12fff1e 	bx	lr
   12314:	40001270 	.word	0x40001270
   12318:	40000d1c 	.word	0x40000d1c
   1231c:	4000123c 	.word	0x4000123c

00012320 <print_disk_info>:
   12320:	e92d4030 	push	{r4, r5, lr}
   12324:	e2505000 	subs	r5, r0, #0	; 0x0
   12328:	e24dd01c 	sub	sp, sp, #28	; 0x1c
   1232c:	e1a0400d 	mov	r4, sp
   12330:	e1a0000d 	mov	r0, sp
   12334:	0a00002d 	beq	123f0 <print_disk_info+0xd0>
   12338:	eb0000f2 	bl	12708 <sd_raw_get_info>
   1233c:	e3500000 	cmp	r0, #0	; 0x0
   12340:	e59f00b8 	ldr	r0, [pc, #184]	; 12400 <print_disk_info+0xe0>
   12344:	0a000029 	beq	123f0 <print_disk_info+0xd0>
   12348:	e5dd1000 	ldrb	r1, [sp]
   1234c:	ebfffe7a 	bl	11d3c <rprintf>
   12350:	e59f00ac 	ldr	r0, [pc, #172]	; 12404 <print_disk_info+0xe4>
   12354:	e28d1001 	add	r1, sp, #1	; 0x1
   12358:	ebfffe77 	bl	11d3c <rprintf>
   1235c:	e28d1004 	add	r1, sp, #4	; 0x4
   12360:	e59f00a0 	ldr	r0, [pc, #160]	; 12408 <print_disk_info+0xe8>
   12364:	ebfffe74 	bl	11d3c <rprintf>
   12368:	e59f009c 	ldr	r0, [pc, #156]	; 1240c <print_disk_info+0xec>
   1236c:	e5dd100a 	ldrb	r1, [sp, #10]
   12370:	ebfffe71 	bl	11d3c <rprintf>
   12374:	e59f0094 	ldr	r0, [pc, #148]	; 12410 <print_disk_info+0xf0>
   12378:	e59d100c 	ldr	r1, [sp, #12]
   1237c:	ebfffe6e 	bl	11d3c <rprintf>
   12380:	e5dd2010 	ldrb	r2, [sp, #16]
   12384:	e59f0088 	ldr	r0, [pc, #136]	; 12414 <print_disk_info+0xf4>
   12388:	e5dd1011 	ldrb	r1, [sp, #17]
   1238c:	ebfffe6a 	bl	11d3c <rprintf>
   12390:	e59f0080 	ldr	r0, [pc, #128]	; 12418 <print_disk_info+0xf8>
   12394:	e59d1014 	ldr	r1, [sp, #20]
   12398:	ebfffe67 	bl	11d3c <rprintf>
   1239c:	e59f0078 	ldr	r0, [pc, #120]	; 1241c <print_disk_info+0xfc>
   123a0:	e5dd1018 	ldrb	r1, [sp, #24]
   123a4:	ebfffe64 	bl	11d3c <rprintf>
   123a8:	e5dd2019 	ldrb	r2, [sp, #25]
   123ac:	e59f006c 	ldr	r0, [pc, #108]	; 12420 <print_disk_info+0x100>
   123b0:	e5dd101a 	ldrb	r1, [sp, #26]
   123b4:	ebfffe60 	bl	11d3c <rprintf>
   123b8:	e5dd101b 	ldrb	r1, [sp, #27]
   123bc:	e59f0060 	ldr	r0, [pc, #96]	; 12424 <print_disk_info+0x104>
   123c0:	ebfffe5d 	bl	11d3c <rprintf>
   123c4:	e1a00005 	mov	r0, r5
   123c8:	eb000575 	bl	139a4 <fat16_get_fs_free>
   123cc:	e1a04000 	mov	r4, r0
   123d0:	e1a00005 	mov	r0, r5
   123d4:	eb000569 	bl	13980 <fat16_get_fs_size>
   123d8:	e1a01004 	mov	r1, r4
   123dc:	e1a02000 	mov	r2, r0
   123e0:	e59f0040 	ldr	r0, [pc, #64]	; 12428 <print_disk_info+0x108>
   123e4:	ebfffe54 	bl	11d3c <rprintf>
   123e8:	e3a00001 	mov	r0, #1	; 0x1
   123ec:	ea000000 	b	123f4 <print_disk_info+0xd4>
   123f0:	e3a00000 	mov	r0, #0	; 0x0
   123f4:	e28dd01c 	add	sp, sp, #28	; 0x1c
   123f8:	e8bd4030 	pop	{r4, r5, lr}
   123fc:	e12fff1e 	bx	lr
   12400:	0001938c 	.word	0x0001938c
   12404:	000193a0 	.word	0x000193a0
   12408:	000193b0 	.word	0x000193b0
   1240c:	000193c0 	.word	0x000193c0
   12410:	000193d0 	.word	0x000193d0
   12414:	000193e4 	.word	0x000193e4
   12418:	000193f8 	.word	0x000193f8
   1241c:	00019408 	.word	0x00019408
   12420:	00019418 	.word	0x00019418
   12424:	00019428 	.word	0x00019428
   12428:	00019438 	.word	0x00019438

0001242c <root_disk_info>:
   1242c:	e59f3004 	ldr	r3, [pc, #4]	; 12438 <root_disk_info+0xc>
   12430:	e5930000 	ldr	r0, [r3]
   12434:	eaffffb9 	b	12320 <print_disk_info>
   12438:	40001238 	.word	0x40001238

0001243c <root_open>:
   1243c:	e59f301c 	ldr	r3, [pc, #28]	; 12460 <root_open+0x24>
   12440:	e5931000 	ldr	r1, [r3]
   12444:	e59f3018 	ldr	r3, [pc, #24]	; 12464 <root_open+0x28>
   12448:	e1a02000 	mov	r2, r0
   1244c:	e52de004 	push	{lr}		; (str lr, [sp, #-4]!)
   12450:	e5930000 	ldr	r0, [r3]
   12454:	eb000839 	bl	14540 <open_file_in_dir>
   12458:	e49de004 	pop	{lr}		; (ldr lr, [sp], #4)
   1245c:	e12fff1e 	bx	lr
   12460:	40001270 	.word	0x40001270
   12464:	40001238 	.word	0x40001238

00012468 <root_open_new>:
   12468:	e92d4030 	push	{r4, r5, lr}
   1246c:	e59f5030 	ldr	r5, [pc, #48]	; 124a4 <root_open_new+0x3c>
   12470:	e1a04000 	mov	r4, r0
   12474:	e1a01000 	mov	r1, r0
   12478:	e59f2028 	ldr	r2, [pc, #40]	; 124a8 <root_open_new+0x40>
   1247c:	e5950000 	ldr	r0, [r5]
   12480:	eb000905 	bl	1489c <fat16_create_file>
   12484:	e3500000 	cmp	r0, #0	; 0x0
   12488:	e1a02004 	mov	r2, r4
   1248c:	159f3018 	ldrne	r3, [pc, #24]	; 124ac <root_open_new+0x44>
   12490:	15951000 	ldrne	r1, [r5]
   12494:	15930000 	ldrne	r0, [r3]
   12498:	1b000828 	blne	14540 <open_file_in_dir>
   1249c:	e8bd4030 	pop	{r4, r5, lr}
   124a0:	e12fff1e 	bx	lr
   124a4:	40001270 	.word	0x40001270
   124a8:	4000123c 	.word	0x4000123c
   124ac:	40001238 	.word	0x40001238

000124b0 <openroot>:
   124b0:	e92d4030 	push	{r4, r5, lr}
   124b4:	e3a03000 	mov	r3, #0	; 0x0
   124b8:	e59f10ac 	ldr	r1, [pc, #172]	; 1256c <openroot+0xbc>
   124bc:	e59f20ac 	ldr	r2, [pc, #172]	; 12570 <openroot+0xc0>
   124c0:	e59f00ac 	ldr	r0, [pc, #172]	; 12574 <openroot+0xc4>
   124c4:	eb000970 	bl	14a8c <partition_open>
   124c8:	e59f40a8 	ldr	r4, [pc, #168]	; 12578 <openroot+0xc8>
   124cc:	e1a0c000 	mov	ip, r0
   124d0:	e35c0000 	cmp	ip, #0	; 0x0
   124d4:	e3e03000 	mvn	r3, #0	; 0x0
   124d8:	e59f108c 	ldr	r1, [pc, #140]	; 1256c <openroot+0xbc>
   124dc:	e59f208c 	ldr	r2, [pc, #140]	; 12570 <openroot+0xc0>
   124e0:	e59f008c 	ldr	r0, [pc, #140]	; 12574 <openroot+0xc4>
   124e4:	e59f5090 	ldr	r5, [pc, #144]	; 1257c <openroot+0xcc>
   124e8:	e584c000 	str	ip, [r4]
   124ec:	1a000005 	bne	12508 <openroot+0x58>
   124f0:	eb000965 	bl	14a8c <partition_open>
   124f4:	e1a03000 	mov	r3, r0
   124f8:	e3530000 	cmp	r3, #0	; 0x0
   124fc:	e59f007c 	ldr	r0, [pc, #124]	; 12580 <openroot+0xd0>
   12500:	e5843000 	str	r3, [r4]
   12504:	0a000013 	beq	12558 <openroot+0xa8>
   12508:	e59f3068 	ldr	r3, [pc, #104]	; 12578 <openroot+0xc8>
   1250c:	e5930000 	ldr	r0, [r3]
   12510:	eb000864 	bl	146a8 <fat16_open>
   12514:	e3500000 	cmp	r0, #0	; 0x0
   12518:	e5850000 	str	r0, [r5]
   1251c:	e59f2060 	ldr	r2, [pc, #96]	; 12584 <openroot+0xd4>
   12520:	e59f1060 	ldr	r1, [pc, #96]	; 12588 <openroot+0xd8>
   12524:	059f0060 	ldreq	r0, [pc, #96]	; 1258c <openroot+0xdc>
   12528:	0a00000a 	beq	12558 <openroot+0xa8>
   1252c:	eb000814 	bl	14584 <fat16_get_dir_entry_of_path>
   12530:	e59f104c 	ldr	r1, [pc, #76]	; 12584 <openroot+0xd4>
   12534:	e5950000 	ldr	r0, [r5]
   12538:	eb0007c0 	bl	14440 <fat16_open_dir>
   1253c:	e59f304c 	ldr	r3, [pc, #76]	; 12590 <openroot+0xe0>
   12540:	e1a02000 	mov	r2, r0
   12544:	e3500000 	cmp	r0, #0	; 0x0
   12548:	e3a01000 	mov	r1, #0	; 0x0
   1254c:	e59f0040 	ldr	r0, [pc, #64]	; 12594 <openroot+0xe4>
   12550:	e5832000 	str	r2, [r3]
   12554:	1a000001 	bne	12560 <openroot+0xb0>
   12558:	ebfffdf7 	bl	11d3c <rprintf>
   1255c:	e3a01001 	mov	r1, #1	; 0x1
   12560:	e1a00001 	mov	r0, r1
   12564:	e8bd4030 	pop	{r4, r5, lr}
   12568:	e12fff1e 	bx	lr
   1256c:	00012d58 	.word	0x00012d58
   12570:	00012afc 	.word	0x00012afc
   12574:	0001299c 	.word	0x0001299c
   12578:	4000126c 	.word	0x4000126c
   1257c:	40001238 	.word	0x40001238
   12580:	0001944c 	.word	0x0001944c
   12584:	4000123c 	.word	0x4000123c
   12588:	00019484 	.word	0x00019484
   1258c:	00019468 	.word	0x00019468
   12590:	40001270 	.word	0x40001270
   12594:	00019488 	.word	0x00019488

00012598 <sd_raw_available>:
   12598:	e59f2028 	ldr	r2, [pc, #40]	; 125c8 <sd_raw_available+0x30>
   1259c:	e5923008 	ldr	r3, [r2, #8]
   125a0:	e3c33080 	bic	r3, r3, #128	; 0x80
   125a4:	e5823008 	str	r3, [r2, #8]
   125a8:	e5921000 	ldr	r1, [r2]
   125ac:	e5923008 	ldr	r3, [r2, #8]
   125b0:	e3110080 	tst	r1, #128	; 0x80
   125b4:	e3833080 	orr	r3, r3, #128	; 0x80
   125b8:	03a00000 	moveq	r0, #0	; 0x0
   125bc:	13a00001 	movne	r0, #1	; 0x1
   125c0:	e5823008 	str	r3, [r2, #8]
   125c4:	e12fff1e 	bx	lr
   125c8:	e0028000 	.word	0xe0028000

000125cc <sd_raw_locked>:
   125cc:	e3a00001 	mov	r0, #1	; 0x1
   125d0:	e12fff1e 	bx	lr

000125d4 <sd_raw_rec_byte>:
   125d4:	e59f3020 	ldr	r3, [pc, #32]	; 125fc <sd_raw_rec_byte+0x28>
   125d8:	e3a020ff 	mov	r2, #255	; 0xff
   125dc:	e5832008 	str	r2, [r3, #8]
   125e0:	e59f2014 	ldr	r2, [pc, #20]	; 125fc <sd_raw_rec_byte+0x28>
   125e4:	e5923004 	ldr	r3, [r2, #4]
   125e8:	e3130080 	tst	r3, #128	; 0x80
   125ec:	0afffffb 	beq	125e0 <sd_raw_rec_byte+0xc>
   125f0:	e5920008 	ldr	r0, [r2, #8]
   125f4:	e20000ff 	and	r0, r0, #255	; 0xff
   125f8:	e12fff1e 	bx	lr
   125fc:	e0020000 	.word	0xe0020000

00012600 <sd_raw_send_command_r1>:
   12600:	e92d4030 	push	{r4, r5, lr}
   12604:	e20050ff 	and	r5, r0, #255	; 0xff
   12608:	e1a04001 	mov	r4, r1
   1260c:	ebfffff0 	bl	125d4 <sd_raw_rec_byte>
   12610:	e59f30c4 	ldr	r3, [pc, #196]	; 126dc <sd_raw_send_command_r1+0xdc>
   12614:	e3852040 	orr	r2, r5, #64	; 0x40
   12618:	e5832008 	str	r2, [r3, #8]
   1261c:	e59f20b8 	ldr	r2, [pc, #184]	; 126dc <sd_raw_send_command_r1+0xdc>
   12620:	e5923004 	ldr	r3, [r2, #4]
   12624:	e3130080 	tst	r3, #128	; 0x80
   12628:	0afffffb 	beq	1261c <sd_raw_send_command_r1+0x1c>
   1262c:	e1a03c24 	lsr	r3, r4, #24
   12630:	e5823008 	str	r3, [r2, #8]
   12634:	e59f20a0 	ldr	r2, [pc, #160]	; 126dc <sd_raw_send_command_r1+0xdc>
   12638:	e5923004 	ldr	r3, [r2, #4]
   1263c:	e3130080 	tst	r3, #128	; 0x80
   12640:	0afffffb 	beq	12634 <sd_raw_send_command_r1+0x34>
   12644:	e1a03824 	lsr	r3, r4, #16
   12648:	e20330ff 	and	r3, r3, #255	; 0xff
   1264c:	e5823008 	str	r3, [r2, #8]
   12650:	e59f2084 	ldr	r2, [pc, #132]	; 126dc <sd_raw_send_command_r1+0xdc>
   12654:	e5923004 	ldr	r3, [r2, #4]
   12658:	e3130080 	tst	r3, #128	; 0x80
   1265c:	0afffffb 	beq	12650 <sd_raw_send_command_r1+0x50>
   12660:	e1a03424 	lsr	r3, r4, #8
   12664:	e20330ff 	and	r3, r3, #255	; 0xff
   12668:	e5823008 	str	r3, [r2, #8]
   1266c:	e59f2068 	ldr	r2, [pc, #104]	; 126dc <sd_raw_send_command_r1+0xdc>
   12670:	e5923004 	ldr	r3, [r2, #4]
   12674:	e3130080 	tst	r3, #128	; 0x80
   12678:	0afffffb 	beq	1266c <sd_raw_send_command_r1+0x6c>
   1267c:	e20430ff 	and	r3, r4, #255	; 0xff
   12680:	e5823008 	str	r3, [r2, #8]
   12684:	e59f2050 	ldr	r2, [pc, #80]	; 126dc <sd_raw_send_command_r1+0xdc>
   12688:	e5923004 	ldr	r3, [r2, #4]
   1268c:	e3130080 	tst	r3, #128	; 0x80
   12690:	0afffffb 	beq	12684 <sd_raw_send_command_r1+0x84>
   12694:	e3550000 	cmp	r5, #0	; 0x0
   12698:	13a030ff 	movne	r3, #255	; 0xff
   1269c:	03a03095 	moveq	r3, #149	; 0x95
   126a0:	e5823008 	str	r3, [r2, #8]
   126a4:	e59f3030 	ldr	r3, [pc, #48]	; 126dc <sd_raw_send_command_r1+0xdc>
   126a8:	e5933004 	ldr	r3, [r3, #4]
   126ac:	e3130080 	tst	r3, #128	; 0x80
   126b0:	0afffffb 	beq	126a4 <sd_raw_send_command_r1+0xa4>
   126b4:	e3a04000 	mov	r4, #0	; 0x0
   126b8:	ebffffc5 	bl	125d4 <sd_raw_rec_byte>
   126bc:	e2843001 	add	r3, r4, #1	; 0x1
   126c0:	e35000ff 	cmp	r0, #255	; 0xff
   126c4:	e20340ff 	and	r4, r3, #255	; 0xff
   126c8:	1a000001 	bne	126d4 <sd_raw_send_command_r1+0xd4>
   126cc:	e354000a 	cmp	r4, #10	; 0xa
   126d0:	1afffff8 	bne	126b8 <sd_raw_send_command_r1+0xb8>
   126d4:	e8bd4030 	pop	{r4, r5, lr}
   126d8:	e12fff1e 	bx	lr
   126dc:	e0020000 	.word	0xe0020000

000126e0 <SDoff>:
   126e0:	e59f201c 	ldr	r2, [pc, #28]	; 12704 <SDoff+0x24>
   126e4:	e5923018 	ldr	r3, [r2, #24]
   126e8:	e3c33080 	bic	r3, r3, #128	; 0x80
   126ec:	e5823018 	str	r3, [r2, #24]
   126f0:	e2822901 	add	r2, r2, #16384	; 0x4000
   126f4:	e5923000 	ldr	r3, [r2]
   126f8:	e3c33c15 	bic	r3, r3, #5376	; 0x1500
   126fc:	e5823000 	str	r3, [r2]
   12700:	e12fff1e 	bx	lr
   12704:	e0028000 	.word	0xe0028000

00012708 <sd_raw_get_info>:
   12708:	e92d41f0 	push	{r4, r5, r6, r7, r8, lr}
   1270c:	e2504000 	subs	r4, r0, #0	; 0x0
   12710:	0a000097 	beq	12974 <sd_raw_get_info+0x26c>
   12714:	ebffff9f 	bl	12598 <sd_raw_available>
   12718:	e3500000 	cmp	r0, #0	; 0x0
   1271c:	0a000094 	beq	12974 <sd_raw_get_info+0x26c>
   12720:	e59f5270 	ldr	r5, [pc, #624]	; 12998 <sd_raw_get_info+0x290>
   12724:	e3a01000 	mov	r1, #0	; 0x0
   12728:	e3a0201c 	mov	r2, #28	; 0x1c
   1272c:	e1a00004 	mov	r0, r4
   12730:	eb0015ea 	bl	17ee0 <memset>
   12734:	e595300c 	ldr	r3, [r5, #12]
   12738:	e3833080 	orr	r3, r3, #128	; 0x80
   1273c:	e3a0000a 	mov	r0, #10	; 0xa
   12740:	e3a01000 	mov	r1, #0	; 0x0
   12744:	e585300c 	str	r3, [r5, #12]
   12748:	ebffffac 	bl	12600 <sd_raw_send_command_r1>
   1274c:	e3500000 	cmp	r0, #0	; 0x0
   12750:	15953004 	ldrne	r3, [r5, #4]
   12754:	13a00000 	movne	r0, #0	; 0x0
   12758:	13833080 	orrne	r3, r3, #128	; 0x80
   1275c:	15853004 	strne	r3, [r5, #4]
   12760:	1a00008a 	bne	12990 <sd_raw_get_info+0x288>
   12764:	ebffff9a 	bl	125d4 <sd_raw_rec_byte>
   12768:	e35000fe 	cmp	r0, #254	; 0xfe
   1276c:	1afffffc 	bne	12764 <sd_raw_get_info+0x5c>
   12770:	ebffff97 	bl	125d4 <sd_raw_rec_byte>
   12774:	e3a05000 	mov	r5, #0	; 0x0
   12778:	ea000012 	b	127c8 <sd_raw_get_info+0xc0>
   1277c:	ebffff94 	bl	125d4 <sd_raw_rec_byte>
   12780:	e355000e 	cmp	r5, #14	; 0xe
   12784:	979ff105 	ldrls	pc, [pc, r5, lsl #2]
   12788:	ea000026 	b	12828 <sd_raw_get_info+0x120>
   1278c:	000127c8 	.word	0x000127c8
   12790:	000127d0 	.word	0x000127d0
   12794:	000127d0 	.word	0x000127d0
   12798:	000127d8 	.word	0x000127d8
   1279c:	000127d8 	.word	0x000127d8
   127a0:	000127d8 	.word	0x000127d8
   127a4:	000127d8 	.word	0x000127d8
   127a8:	000127d8 	.word	0x000127d8
   127ac:	000127e4 	.word	0x000127e4
   127b0:	000127ec 	.word	0x000127ec
   127b4:	000127ec 	.word	0x000127ec
   127b8:	000127ec 	.word	0x000127ec
   127bc:	000127ec 	.word	0x000127ec
   127c0:	00012804 	.word	0x00012804
   127c4:	00012810 	.word	0x00012810
   127c8:	e5c40000 	strb	r0, [r4]
   127cc:	ea00006a 	b	1297c <sd_raw_get_info+0x274>
   127d0:	e7c50004 	strb	r0, [r5, r4]
   127d4:	ea000013 	b	12828 <sd_raw_get_info+0x120>
   127d8:	e0853004 	add	r3, r5, r4
   127dc:	e5c30001 	strb	r0, [r3, #1]
   127e0:	ea000010 	b	12828 <sd_raw_get_info+0x120>
   127e4:	e5c4000a 	strb	r0, [r4, #10]
   127e8:	ea000063 	b	1297c <sd_raw_get_info+0x274>
   127ec:	e594200c 	ldr	r2, [r4, #12]
   127f0:	e265300c 	rsb	r3, r5, #12	; 0xc
   127f4:	e1a03183 	lsl	r3, r3, #3
   127f8:	e1822310 	orr	r2, r2, r0, lsl r3
   127fc:	e584200c 	str	r2, [r4, #12]
   12800:	ea000008 	b	12828 <sd_raw_get_info+0x120>
   12804:	e1a03200 	lsl	r3, r0, #4
   12808:	e5c43010 	strb	r3, [r4, #16]
   1280c:	ea00005a 	b	1297c <sd_raw_get_info+0x274>
   12810:	e5d43010 	ldrb	r3, [r4, #16]
   12814:	e200200f 	and	r2, r0, #15	; 0xf
   12818:	e1833220 	orr	r3, r3, r0, lsr #4
   1281c:	e5c43010 	strb	r3, [r4, #16]
   12820:	e5c42011 	strb	r2, [r4, #17]
   12824:	ea000054 	b	1297c <sd_raw_get_info+0x274>
   12828:	e2853001 	add	r3, r5, #1	; 0x1
   1282c:	e20350ff 	and	r5, r3, #255	; 0xff
   12830:	e3550011 	cmp	r5, #17	; 0x11
   12834:	9affffd0 	bls	1277c <sd_raw_get_info+0x74>
   12838:	e3a00009 	mov	r0, #9	; 0x9
   1283c:	e3a01000 	mov	r1, #0	; 0x0
   12840:	ebffff6e 	bl	12600 <sd_raw_send_command_r1>
   12844:	e3500000 	cmp	r0, #0	; 0x0
   12848:	159f2148 	ldrne	r2, [pc, #328]	; 12998 <sd_raw_get_info+0x290>
   1284c:	15923004 	ldrne	r3, [r2, #4]
   12850:	13a00000 	movne	r0, #0	; 0x0
   12854:	13833080 	orrne	r3, r3, #128	; 0x80
   12858:	1a000043 	bne	1296c <sd_raw_get_info+0x264>
   1285c:	ebffff5c 	bl	125d4 <sd_raw_rec_byte>
   12860:	e35000fe 	cmp	r0, #254	; 0xfe
   12864:	1afffffc 	bne	1285c <sd_raw_get_info+0x154>
   12868:	ebffff59 	bl	125d4 <sd_raw_rec_byte>
   1286c:	e3a07000 	mov	r7, #0	; 0x0
   12870:	e3a05001 	mov	r5, #1	; 0x1
   12874:	e1a08007 	mov	r8, r7
   12878:	e1a06007 	mov	r6, r7
   1287c:	ebffff54 	bl	125d4 <sd_raw_rec_byte>
   12880:	e2453005 	sub	r3, r5, #5	; 0x5
   12884:	e2852001 	add	r2, r5, #1	; 0x1
   12888:	e3530009 	cmp	r3, #9	; 0x9
   1288c:	979ff103 	ldrls	pc, [pc, r3, lsl #2]
   12890:	ea00002e 	b	12950 <sd_raw_get_info+0x248>
   12894:	000128bc 	.word	0x000128bc
   12898:	000128c4 	.word	0x000128c4
   1289c:	000128d0 	.word	0x000128d0
   128a0:	000128dc 	.word	0x000128dc
   128a4:	000128f4 	.word	0x000128f4
   128a8:	00012900 	.word	0x00012900
   128ac:	00012950 	.word	0x00012950
   128b0:	00012950 	.word	0x00012950
   128b4:	00012950 	.word	0x00012950
   128b8:	0001291c 	.word	0x0001291c
   128bc:	e200800f 	and	r8, r0, #15	; 0xf
   128c0:	ea000030 	b	12988 <sd_raw_get_info+0x280>
   128c4:	e2003003 	and	r3, r0, #3	; 0x3
   128c8:	e1a06403 	lsl	r6, r3, #8
   128cc:	ea00002d 	b	12988 <sd_raw_get_info+0x280>
   128d0:	e1863000 	orr	r3, r6, r0
   128d4:	e1a03903 	lsl	r3, r3, #18
   128d8:	ea000003 	b	128ec <sd_raw_get_info+0x1e4>
   128dc:	e1a03900 	lsl	r3, r0, #18
   128e0:	e1863c23 	orr	r3, r6, r3, lsr #24
   128e4:	e2833001 	add	r3, r3, #1	; 0x1
   128e8:	e1a03803 	lsl	r3, r3, #16
   128ec:	e1a06823 	lsr	r6, r3, #16
   128f0:	ea000024 	b	12988 <sd_raw_get_info+0x280>
   128f4:	e2003003 	and	r3, r0, #3	; 0x3
   128f8:	e1a07083 	lsl	r7, r3, #1
   128fc:	ea000021 	b	12988 <sd_raw_get_info+0x280>
   12900:	e18733a0 	orr	r3, r7, r0, lsr #7
   12904:	e20370ff 	and	r7, r3, #255	; 0xff
   12908:	e2883002 	add	r3, r8, #2	; 0x2
   1290c:	e0873003 	add	r3, r7, r3
   12910:	e1a03316 	lsl	r3, r6, r3
   12914:	e5843014 	str	r3, [r4, #20]
   12918:	ea00001a 	b	12988 <sd_raw_get_info+0x280>
   1291c:	e3100040 	tst	r0, #64	; 0x40
   12920:	13a03001 	movne	r3, #1	; 0x1
   12924:	15c43018 	strbne	r3, [r4, #24]
   12928:	e3100020 	tst	r0, #32	; 0x20
   1292c:	13a03001 	movne	r3, #1	; 0x1
   12930:	15c43019 	strbne	r3, [r4, #25]
   12934:	e3100010 	tst	r0, #16	; 0x10
   12938:	13a03001 	movne	r3, #1	; 0x1
   1293c:	15c4301a 	strbne	r3, [r4, #26]
   12940:	e200300c 	and	r3, r0, #12	; 0xc
   12944:	e1a03143 	asr	r3, r3, #2
   12948:	e5c4301b 	strb	r3, [r4, #27]
   1294c:	ea00000d 	b	12988 <sd_raw_get_info+0x280>
   12950:	e20250ff 	and	r5, r2, #255	; 0xff
   12954:	e3550011 	cmp	r5, #17	; 0x11
   12958:	9affffc7 	bls	1287c <sd_raw_get_info+0x174>
   1295c:	e59f2034 	ldr	r2, [pc, #52]	; 12998 <sd_raw_get_info+0x290>
   12960:	e5923004 	ldr	r3, [r2, #4]
   12964:	e3a00001 	mov	r0, #1	; 0x1
   12968:	e3833080 	orr	r3, r3, #128	; 0x80
   1296c:	e5823004 	str	r3, [r2, #4]
   12970:	ea000006 	b	12990 <sd_raw_get_info+0x288>
   12974:	e3a00000 	mov	r0, #0	; 0x0
   12978:	ea000004 	b	12990 <sd_raw_get_info+0x288>
   1297c:	e2853001 	add	r3, r5, #1	; 0x1
   12980:	e20350ff 	and	r5, r3, #255	; 0xff
   12984:	eaffff7c 	b	1277c <sd_raw_get_info+0x74>
   12988:	e20250ff 	and	r5, r2, #255	; 0xff
   1298c:	eaffffba 	b	1287c <sd_raw_get_info+0x174>
   12990:	e8bd41f0 	pop	{r4, r5, r6, r7, r8, lr}
   12994:	e12fff1e 	bx	lr
   12998:	e0028000 	.word	0xe0028000

0001299c <sd_raw_read>:
   1299c:	e92d47f0 	push	{r4, r5, r6, r7, r8, r9, sl, lr}
   129a0:	e1a02802 	lsl	r2, r2, #16
   129a4:	e1a09000 	mov	r9, r0
   129a8:	e1a0a001 	mov	sl, r1
   129ac:	e1a08822 	lsr	r8, r2, #16
   129b0:	ea000046 	b	12ad0 <sd_raw_read+0x134>
   129b4:	e1a06b89 	lsl	r6, r9, #23
   129b8:	e1a06ba6 	lsr	r6, r6, #23
   129bc:	e59f3120 	ldr	r3, [pc, #288]	; 12ae4 <sd_raw_read+0x148>
   129c0:	e2662c02 	rsb	r2, r6, #512	; 0x200
   129c4:	e1a02802 	lsl	r2, r2, #16
   129c8:	e5930000 	ldr	r0, [r3]
   129cc:	e3c95f7f 	bic	r5, r9, #508	; 0x1fc
   129d0:	e3c55003 	bic	r5, r5, #3	; 0x3
   129d4:	e1a02822 	lsr	r2, r2, #16
   129d8:	e1580002 	cmp	r8, r2
   129dc:	31a07008 	movcc	r7, r8
   129e0:	21a07002 	movcs	r7, r2
   129e4:	e1550000 	cmp	r5, r0
   129e8:	0a00002f 	beq	12aac <sd_raw_read+0x110>
   129ec:	e59f30f4 	ldr	r3, [pc, #244]	; 12ae8 <sd_raw_read+0x14c>
   129f0:	e5d33000 	ldrb	r3, [r3]
   129f4:	e3530000 	cmp	r3, #0	; 0x0
   129f8:	1a000004 	bne	12a10 <sd_raw_read+0x74>
   129fc:	e59f10e8 	ldr	r1, [pc, #232]	; 12aec <sd_raw_read+0x150>
   12a00:	e3a02c02 	mov	r2, #512	; 0x200
   12a04:	eb00003c 	bl	12afc <sd_raw_write>
   12a08:	e3500000 	cmp	r0, #0	; 0x0
   12a0c:	0a000032 	beq	12adc <sd_raw_read+0x140>
   12a10:	e59f40d8 	ldr	r4, [pc, #216]	; 12af0 <sd_raw_read+0x154>
   12a14:	e594300c 	ldr	r3, [r4, #12]
   12a18:	e3833080 	orr	r3, r3, #128	; 0x80
   12a1c:	e3a00011 	mov	r0, #17	; 0x11
   12a20:	e1a01005 	mov	r1, r5
   12a24:	e584300c 	str	r3, [r4, #12]
   12a28:	ebfffef4 	bl	12600 <sd_raw_send_command_r1>
   12a2c:	e3500000 	cmp	r0, #0	; 0x0
   12a30:	15943004 	ldrne	r3, [r4, #4]
   12a34:	13a00000 	movne	r0, #0	; 0x0
   12a38:	13833080 	orrne	r3, r3, #128	; 0x80
   12a3c:	15843004 	strne	r3, [r4, #4]
   12a40:	1a000025 	bne	12adc <sd_raw_read+0x140>
   12a44:	ebfffee2 	bl	125d4 <sd_raw_rec_byte>
   12a48:	e35000fe 	cmp	r0, #254	; 0xfe
   12a4c:	1afffffc 	bne	12a44 <sd_raw_read+0xa8>
   12a50:	e59f409c 	ldr	r4, [pc, #156]	; 12af4 <sd_raw_read+0x158>
   12a54:	ebfffede 	bl	125d4 <sd_raw_rec_byte>
   12a58:	e59f3098 	ldr	r3, [pc, #152]	; 12af8 <sd_raw_read+0x15c>
   12a5c:	e5440001 	strb	r0, [r4, #-1]
   12a60:	e2844001 	add	r4, r4, #1	; 0x1
   12a64:	e1540003 	cmp	r4, r3
   12a68:	1afffff9 	bne	12a54 <sd_raw_read+0xb8>
   12a6c:	e59f3070 	ldr	r3, [pc, #112]	; 12ae4 <sd_raw_read+0x148>
   12a70:	e59f1074 	ldr	r1, [pc, #116]	; 12aec <sd_raw_read+0x150>
   12a74:	e1a02007 	mov	r2, r7
   12a78:	e5835000 	str	r5, [r3]
   12a7c:	e0861001 	add	r1, r6, r1
   12a80:	e1a0000a 	mov	r0, sl
   12a84:	eb0014d6 	bl	17de4 <memcpy>
   12a88:	ebfffed1 	bl	125d4 <sd_raw_rec_byte>
   12a8c:	ebfffed0 	bl	125d4 <sd_raw_rec_byte>
   12a90:	e59f2058 	ldr	r2, [pc, #88]	; 12af0 <sd_raw_read+0x154>
   12a94:	e5923004 	ldr	r3, [r2, #4]
   12a98:	e3833080 	orr	r3, r3, #128	; 0x80
   12a9c:	e5823004 	str	r3, [r2, #4]
   12aa0:	e08aa007 	add	sl, sl, r7
   12aa4:	ebfffeca 	bl	125d4 <sd_raw_rec_byte>
   12aa8:	ea000004 	b	12ac0 <sd_raw_read+0x124>
   12aac:	e59f1038 	ldr	r1, [pc, #56]	; 12aec <sd_raw_read+0x150>
   12ab0:	e1a0000a 	mov	r0, sl
   12ab4:	e0861001 	add	r1, r6, r1
   12ab8:	e1a02007 	mov	r2, r7
   12abc:	eb0014c8 	bl	17de4 <memcpy>
   12ac0:	e0673008 	rsb	r3, r7, r8
   12ac4:	e1a03803 	lsl	r3, r3, #16
   12ac8:	e0899007 	add	r9, r9, r7
   12acc:	e1a08823 	lsr	r8, r3, #16
   12ad0:	e3580000 	cmp	r8, #0	; 0x0
   12ad4:	1affffb6 	bne	129b4 <sd_raw_read+0x18>
   12ad8:	e3a00001 	mov	r0, #1	; 0x1
   12adc:	e8bd47f0 	pop	{r4, r5, r6, r7, r8, r9, sl, lr}
   12ae0:	e12fff1e 	bx	lr
   12ae4:	40000f20 	.word	0x40000f20
   12ae8:	40000f24 	.word	0x40000f24
   12aec:	40000d20 	.word	0x40000d20
   12af0:	e0028000 	.word	0xe0028000
   12af4:	40000d21 	.word	0x40000d21
   12af8:	40000f21 	.word	0x40000f21

00012afc <sd_raw_write>:
   12afc:	e92d47f0 	push	{r4, r5, r6, r7, r8, r9, sl, lr}
   12b00:	e1a02802 	lsl	r2, r2, #16
   12b04:	e1a0a000 	mov	sl, r0
   12b08:	e1a08001 	mov	r8, r1
   12b0c:	e1a07822 	lsr	r7, r2, #16
   12b10:	ea000069 	b	12cbc <sd_raw_write+0x1c0>
   12b14:	e1a04b8a 	lsl	r4, sl, #23
   12b18:	e1a04ba4 	lsr	r4, r4, #23
   12b1c:	e59f91cc 	ldr	r9, [pc, #460]	; 12cf0 <sd_raw_write+0x1f4>
   12b20:	e2643c02 	rsb	r3, r4, #512	; 0x200
   12b24:	e1a03803 	lsl	r3, r3, #16
   12b28:	e3ca5f7f 	bic	r5, sl, #508	; 0x1fc
   12b2c:	e5990000 	ldr	r0, [r9]
   12b30:	e3c55003 	bic	r5, r5, #3	; 0x3
   12b34:	e1a03823 	lsr	r3, r3, #16
   12b38:	e1570003 	cmp	r7, r3
   12b3c:	31a06007 	movcc	r6, r7
   12b40:	21a06003 	movcs	r6, r3
   12b44:	e1550000 	cmp	r5, r0
   12b48:	0a000017 	beq	12bac <sd_raw_write+0xb0>
   12b4c:	e59f31a0 	ldr	r3, [pc, #416]	; 12cf4 <sd_raw_write+0x1f8>
   12b50:	e5d33000 	ldrb	r3, [r3]
   12b54:	e3530000 	cmp	r3, #0	; 0x0
   12b58:	1a000004 	bne	12b70 <sd_raw_write+0x74>
   12b5c:	e59f1194 	ldr	r1, [pc, #404]	; 12cf8 <sd_raw_write+0x1fc>
   12b60:	e3a02c02 	mov	r2, #512	; 0x200
   12b64:	ebffffe4 	bl	12afc <sd_raw_write>
   12b68:	e3500000 	cmp	r0, #0	; 0x0
   12b6c:	0a000055 	beq	12cc8 <sd_raw_write+0x1cc>
   12b70:	e59f3184 	ldr	r3, [pc, #388]	; 12cfc <sd_raw_write+0x200>
   12b74:	e1560003 	cmp	r6, r3
   12b78:	83a03000 	movhi	r3, #0	; 0x0
   12b7c:	93a03001 	movls	r3, #1	; 0x1
   12b80:	e3540000 	cmp	r4, #0	; 0x0
   12b84:	13833001 	orrne	r3, r3, #1	; 0x1
   12b88:	e3530000 	cmp	r3, #0	; 0x0
   12b8c:	0a000005 	beq	12ba8 <sd_raw_write+0xac>
   12b90:	e1a00005 	mov	r0, r5
   12b94:	e59f115c 	ldr	r1, [pc, #348]	; 12cf8 <sd_raw_write+0x1fc>
   12b98:	e3a02c02 	mov	r2, #512	; 0x200
   12b9c:	ebffff7e 	bl	1299c <sd_raw_read>
   12ba0:	e3500000 	cmp	r0, #0	; 0x0
   12ba4:	0a000047 	beq	12cc8 <sd_raw_write+0x1cc>
   12ba8:	e5895000 	str	r5, [r9]
   12bac:	e59f3144 	ldr	r3, [pc, #324]	; 12cf8 <sd_raw_write+0x1fc>
   12bb0:	e1580003 	cmp	r8, r3
   12bb4:	0a000008 	beq	12bdc <sd_raw_write+0xe0>
   12bb8:	e0840003 	add	r0, r4, r3
   12bbc:	e1a02006 	mov	r2, r6
   12bc0:	e1a01008 	mov	r1, r8
   12bc4:	eb001486 	bl	17de4 <memcpy>
   12bc8:	e59f3124 	ldr	r3, [pc, #292]	; 12cf4 <sd_raw_write+0x1f8>
   12bcc:	e3a02000 	mov	r2, #0	; 0x0
   12bd0:	e1570006 	cmp	r7, r6
   12bd4:	e5c32000 	strb	r2, [r3]
   12bd8:	0a000041 	beq	12ce4 <sd_raw_write+0x1e8>
   12bdc:	e59f411c 	ldr	r4, [pc, #284]	; 12d00 <sd_raw_write+0x204>
   12be0:	e594300c 	ldr	r3, [r4, #12]
   12be4:	e3833080 	orr	r3, r3, #128	; 0x80
   12be8:	e1a01005 	mov	r1, r5
   12bec:	e3a00018 	mov	r0, #24	; 0x18
   12bf0:	e584300c 	str	r3, [r4, #12]
   12bf4:	ebfffe81 	bl	12600 <sd_raw_send_command_r1>
   12bf8:	e3500000 	cmp	r0, #0	; 0x0
   12bfc:	1a000033 	bne	12cd0 <sd_raw_write+0x1d4>
   12c00:	e59f30fc 	ldr	r3, [pc, #252]	; 12d04 <sd_raw_write+0x208>
   12c04:	e3a020fe 	mov	r2, #254	; 0xfe
   12c08:	e5832008 	str	r2, [r3, #8]
   12c0c:	e59f30f0 	ldr	r3, [pc, #240]	; 12d04 <sd_raw_write+0x208>
   12c10:	e5933004 	ldr	r3, [r3, #4]
   12c14:	e3130080 	tst	r3, #128	; 0x80
   12c18:	0afffffb 	beq	12c0c <sd_raw_write+0x110>
   12c1c:	e59f10e4 	ldr	r1, [pc, #228]	; 12d08 <sd_raw_write+0x20c>
   12c20:	e5512001 	ldrb	r2, [r1, #-1]
   12c24:	e59f30d8 	ldr	r3, [pc, #216]	; 12d04 <sd_raw_write+0x208>
   12c28:	e5832008 	str	r2, [r3, #8]
   12c2c:	e59f20d0 	ldr	r2, [pc, #208]	; 12d04 <sd_raw_write+0x208>
   12c30:	e5923004 	ldr	r3, [r2, #4]
   12c34:	e3130080 	tst	r3, #128	; 0x80
   12c38:	0afffffb 	beq	12c2c <sd_raw_write+0x130>
   12c3c:	e59f30c8 	ldr	r3, [pc, #200]	; 12d0c <sd_raw_write+0x210>
   12c40:	e2811001 	add	r1, r1, #1	; 0x1
   12c44:	e1510003 	cmp	r1, r3
   12c48:	1afffff4 	bne	12c20 <sd_raw_write+0x124>
   12c4c:	e3a030ff 	mov	r3, #255	; 0xff
   12c50:	e5823008 	str	r3, [r2, #8]
   12c54:	e59f20a8 	ldr	r2, [pc, #168]	; 12d04 <sd_raw_write+0x208>
   12c58:	e5923004 	ldr	r3, [r2, #4]
   12c5c:	e3130080 	tst	r3, #128	; 0x80
   12c60:	0afffffb 	beq	12c54 <sd_raw_write+0x158>
   12c64:	e3a030ff 	mov	r3, #255	; 0xff
   12c68:	e5823008 	str	r3, [r2, #8]
   12c6c:	e59f3090 	ldr	r3, [pc, #144]	; 12d04 <sd_raw_write+0x208>
   12c70:	e5933004 	ldr	r3, [r3, #4]
   12c74:	e3130080 	tst	r3, #128	; 0x80
   12c78:	0afffffb 	beq	12c6c <sd_raw_write+0x170>
   12c7c:	ebfffe54 	bl	125d4 <sd_raw_rec_byte>
   12c80:	e35000ff 	cmp	r0, #255	; 0xff
   12c84:	1afffffc 	bne	12c7c <sd_raw_write+0x180>
   12c88:	ebfffe51 	bl	125d4 <sd_raw_rec_byte>
   12c8c:	e59f206c 	ldr	r2, [pc, #108]	; 12d00 <sd_raw_write+0x204>
   12c90:	e5923004 	ldr	r3, [r2, #4]
   12c94:	e3833080 	orr	r3, r3, #128	; 0x80
   12c98:	e5823004 	str	r3, [r2, #4]
   12c9c:	e59f3050 	ldr	r3, [pc, #80]	; 12cf4 <sd_raw_write+0x1f8>
   12ca0:	e0661007 	rsb	r1, r6, r7
   12ca4:	e3a02001 	mov	r2, #1	; 0x1
   12ca8:	e1a01801 	lsl	r1, r1, #16
   12cac:	e5c32000 	strb	r2, [r3]
   12cb0:	e08aa006 	add	sl, sl, r6
   12cb4:	e0888006 	add	r8, r8, r6
   12cb8:	e1a07821 	lsr	r7, r1, #16
   12cbc:	e3570000 	cmp	r7, #0	; 0x0
   12cc0:	1affff93 	bne	12b14 <sd_raw_write+0x18>
   12cc4:	ea000006 	b	12ce4 <sd_raw_write+0x1e8>
   12cc8:	e3a00000 	mov	r0, #0	; 0x0
   12ccc:	ea000005 	b	12ce8 <sd_raw_write+0x1ec>
   12cd0:	e5943004 	ldr	r3, [r4, #4]
   12cd4:	e3a00000 	mov	r0, #0	; 0x0
   12cd8:	e3833080 	orr	r3, r3, #128	; 0x80
   12cdc:	e5843004 	str	r3, [r4, #4]
   12ce0:	ea000000 	b	12ce8 <sd_raw_write+0x1ec>
   12ce4:	e3a00001 	mov	r0, #1	; 0x1
   12ce8:	e8bd47f0 	pop	{r4, r5, r6, r7, r8, r9, sl, lr}
   12cec:	e12fff1e 	bx	lr
   12cf0:	40000f20 	.word	0x40000f20
   12cf4:	40000f24 	.word	0x40000f24
   12cf8:	40000d20 	.word	0x40000d20
   12cfc:	000001ff 	.word	0x000001ff
   12d00:	e0028000 	.word	0xe0028000
   12d04:	e0020000 	.word	0xe0020000
   12d08:	40000d21 	.word	0x40000d21
   12d0c:	40000f21 	.word	0x40000f21

00012d10 <sd_raw_sync>:
   12d10:	e52de004 	push	{lr}		; (str lr, [sp, #-4]!)
   12d14:	e59f3030 	ldr	r3, [pc, #48]	; 12d4c <sd_raw_sync+0x3c>
   12d18:	e5d33000 	ldrb	r3, [r3]
   12d1c:	e3530000 	cmp	r3, #0	; 0x0
   12d20:	e59f1028 	ldr	r1, [pc, #40]	; 12d50 <sd_raw_sync+0x40>
   12d24:	e3a02c02 	mov	r2, #512	; 0x200
   12d28:	e3a00001 	mov	r0, #1	; 0x1
   12d2c:	1a000004 	bne	12d44 <sd_raw_sync+0x34>
   12d30:	e59f301c 	ldr	r3, [pc, #28]	; 12d54 <sd_raw_sync+0x44>
   12d34:	e5930000 	ldr	r0, [r3]
   12d38:	ebffff6f 	bl	12afc <sd_raw_write>
   12d3c:	e2500000 	subs	r0, r0, #0	; 0x0
   12d40:	13a00001 	movne	r0, #1	; 0x1
   12d44:	e49de004 	pop	{lr}		; (ldr lr, [sp], #4)
   12d48:	e12fff1e 	bx	lr
   12d4c:	40000f24 	.word	0x40000f24
   12d50:	40000d20 	.word	0x40000d20
   12d54:	40000f20 	.word	0x40000f20

00012d58 <sd_raw_read_interval>:
   12d58:	e1a02802 	lsl	r2, r2, #16
   12d5c:	e92d45f0 	push	{r4, r5, r6, r7, r8, sl, lr}
   12d60:	e1a03803 	lsl	r3, r3, #16
   12d64:	e3520000 	cmp	r2, #0	; 0x0
   12d68:	13510000 	cmpne	r1, #0	; 0x0
   12d6c:	e1a07001 	mov	r7, r1
   12d70:	e1a06000 	mov	r6, r0
   12d74:	e1a05823 	lsr	r5, r3, #16
   12d78:	e28d801c 	add	r8, sp, #28	; 0x1c
   12d7c:	e8980500 	ldm	r8, {r8, sl}
   12d80:	e1a04822 	lsr	r4, r2, #16
   12d84:	0a00001a 	beq	12df4 <sd_raw_read_interval+0x9c>
   12d88:	e2783001 	rsbs	r3, r8, #1	; 0x1
   12d8c:	33a03000 	movcc	r3, #0	; 0x0
   12d90:	e1550004 	cmp	r5, r4
   12d94:	33833001 	orrcc	r3, r3, #1	; 0x1
   12d98:	e3530000 	cmp	r3, #0	; 0x0
   12d9c:	0a00000e 	beq	12ddc <sd_raw_read_interval+0x84>
   12da0:	ea000013 	b	12df4 <sd_raw_read_interval+0x9c>
   12da4:	ebfffefc 	bl	1299c <sd_raw_read>
   12da8:	e3500000 	cmp	r0, #0	; 0x0
   12dac:	e1a01006 	mov	r1, r6
   12db0:	e1a0200a 	mov	r2, sl
   12db4:	e1a00007 	mov	r0, r7
   12db8:	e0866004 	add	r6, r6, r4
   12dbc:	0a00000c 	beq	12df4 <sd_raw_read_interval+0x9c>
   12dc0:	e1a0e00f 	mov	lr, pc
   12dc4:	e12fff18 	bx	r8
   12dc8:	e3500000 	cmp	r0, #0	; 0x0
   12dcc:	0a00000a 	beq	12dfc <sd_raw_read_interval+0xa4>
   12dd0:	e0643005 	rsb	r3, r4, r5
   12dd4:	e1a03803 	lsl	r3, r3, #16
   12dd8:	e1a05823 	lsr	r5, r3, #16
   12ddc:	e1550004 	cmp	r5, r4
   12de0:	e1a00006 	mov	r0, r6
   12de4:	e1a01007 	mov	r1, r7
   12de8:	e1a02004 	mov	r2, r4
   12dec:	2affffec 	bcs	12da4 <sd_raw_read_interval+0x4c>
   12df0:	ea000001 	b	12dfc <sd_raw_read_interval+0xa4>
   12df4:	e3a00000 	mov	r0, #0	; 0x0
   12df8:	ea000000 	b	12e00 <sd_raw_read_interval+0xa8>
   12dfc:	e3a00001 	mov	r0, #1	; 0x1
   12e00:	e8bd45f0 	pop	{r4, r5, r6, r7, r8, sl, lr}
   12e04:	e12fff1e 	bx	lr

00012e08 <sd_raw_init>:
   12e08:	e92d4030 	push	{r4, r5, lr}
   12e0c:	e59f41e4 	ldr	r4, [pc, #484]	; 12ff8 <sd_raw_init+0x1f0>
   12e10:	e5943008 	ldr	r3, [r4, #8]
   12e14:	e3833080 	orr	r3, r3, #128	; 0x80
   12e18:	e5843008 	str	r3, [r4, #8]
   12e1c:	e59f21d8 	ldr	r2, [pc, #472]	; 12ffc <sd_raw_init+0x1f4>
   12e20:	e5923000 	ldr	r3, [r2]
   12e24:	e3833a01 	orr	r3, r3, #4096	; 0x1000
   12e28:	e5823000 	str	r3, [r2]
   12e2c:	e5923000 	ldr	r3, [r2]
   12e30:	e3833b01 	orr	r3, r3, #1024	; 0x400
   12e34:	e5823000 	str	r3, [r2]
   12e38:	e5923000 	ldr	r3, [r2]
   12e3c:	e3833c01 	orr	r3, r3, #256	; 0x100
   12e40:	e5823000 	str	r3, [r2]
   12e44:	e5943004 	ldr	r3, [r4, #4]
   12e48:	e3833080 	orr	r3, r3, #128	; 0x80
   12e4c:	e5843004 	str	r3, [r4, #4]
   12e50:	e2422903 	sub	r2, r2, #49152	; 0xc000
   12e54:	e3a03096 	mov	r3, #150	; 0x96
   12e58:	e582300c 	str	r3, [r2, #12]
   12e5c:	e3a03038 	mov	r3, #56	; 0x38
   12e60:	e5823000 	str	r3, [r2]
   12e64:	ebfffdcb 	bl	12598 <sd_raw_available>
   12e68:	e2505000 	subs	r5, r0, #0	; 0x0
   12e6c:	1a000002 	bne	12e7c <sd_raw_init+0x74>
   12e70:	e59f0188 	ldr	r0, [pc, #392]	; 13000 <sd_raw_init+0x1f8>
   12e74:	ebfffbb0 	bl	11d3c <rprintf>
   12e78:	ea00004f 	b	12fbc <sd_raw_init+0x1b4>
   12e7c:	e5943008 	ldr	r3, [r4, #8]
   12e80:	e3833080 	orr	r3, r3, #128	; 0x80
   12e84:	e5843008 	str	r3, [r4, #8]
   12e88:	e5943004 	ldr	r3, [r4, #4]
   12e8c:	e3833080 	orr	r3, r3, #128	; 0x80
   12e90:	e5843004 	str	r3, [r4, #4]
   12e94:	e3a04000 	mov	r4, #0	; 0x0
   12e98:	ebfffdcd 	bl	125d4 <sd_raw_rec_byte>
   12e9c:	e2843001 	add	r3, r4, #1	; 0x1
   12ea0:	e1a03803 	lsl	r3, r3, #16
   12ea4:	e1a04823 	lsr	r4, r3, #16
   12ea8:	e354000a 	cmp	r4, #10	; 0xa
   12eac:	1afffff9 	bne	12e98 <sd_raw_init+0x90>
   12eb0:	e59f2140 	ldr	r2, [pc, #320]	; 12ff8 <sd_raw_init+0x1f0>
   12eb4:	e592300c 	ldr	r3, [r2, #12]
   12eb8:	e3833080 	orr	r3, r3, #128	; 0x80
   12ebc:	e582300c 	str	r3, [r2, #12]
   12ec0:	e3a05000 	mov	r5, #0	; 0x0
   12ec4:	e3a00000 	mov	r0, #0	; 0x0
   12ec8:	e1a01000 	mov	r1, r0
   12ecc:	ebfffdcb 	bl	12600 <sd_raw_send_command_r1>
   12ed0:	e1a04000 	mov	r4, r0
   12ed4:	e1a01005 	mov	r1, r5
   12ed8:	e59f0124 	ldr	r0, [pc, #292]	; 13004 <sd_raw_init+0x1fc>
   12edc:	e1a02004 	mov	r2, r4
   12ee0:	ebfffb95 	bl	11d3c <rprintf>
   12ee4:	e3540001 	cmp	r4, #1	; 0x1
   12ee8:	e2855001 	add	r5, r5, #1	; 0x1
   12eec:	0a00000a 	beq	12f1c <sd_raw_init+0x114>
   12ef0:	e3550c02 	cmp	r5, #512	; 0x200
   12ef4:	1afffff2 	bne	12ec4 <sd_raw_init+0xbc>
   12ef8:	e59f0108 	ldr	r0, [pc, #264]	; 13008 <sd_raw_init+0x200>
   12efc:	e1a01004 	mov	r1, r4
   12f00:	ebfffb8d 	bl	11d3c <rprintf>
   12f04:	e59f20ec 	ldr	r2, [pc, #236]	; 12ff8 <sd_raw_init+0x1f0>
   12f08:	e5923004 	ldr	r3, [r2, #4]
   12f0c:	e3a00000 	mov	r0, #0	; 0x0
   12f10:	e3833080 	orr	r3, r3, #128	; 0x80
   12f14:	e5823004 	str	r3, [r2, #4]
   12f18:	ea000034 	b	12ff0 <sd_raw_init+0x1e8>
   12f1c:	e3a04000 	mov	r4, #0	; 0x0
   12f20:	e3a01000 	mov	r1, #0	; 0x0
   12f24:	e3a00001 	mov	r0, #1	; 0x1
   12f28:	ebfffdb4 	bl	12600 <sd_raw_send_command_r1>
   12f2c:	e2843001 	add	r3, r4, #1	; 0x1
   12f30:	e3100001 	tst	r0, #1	; 0x1
   12f34:	e1a02803 	lsl	r2, r3, #16
   12f38:	0a000004 	beq	12f50 <sd_raw_init+0x148>
   12f3c:	e59f30c8 	ldr	r3, [pc, #200]	; 1300c <sd_raw_init+0x204>
   12f40:	e1540003 	cmp	r4, r3
   12f44:	e1a04822 	lsr	r4, r2, #16
   12f48:	0a00001d 	beq	12fc4 <sd_raw_init+0x1bc>
   12f4c:	eafffff3 	b	12f20 <sd_raw_init+0x118>
   12f50:	e3a00010 	mov	r0, #16	; 0x10
   12f54:	e3a01c02 	mov	r1, #512	; 0x200
   12f58:	ebfffda8 	bl	12600 <sd_raw_send_command_r1>
   12f5c:	e3500000 	cmp	r0, #0	; 0x0
   12f60:	159f2090 	ldrne	r2, [pc, #144]	; 12ff8 <sd_raw_init+0x1f0>
   12f64:	15923004 	ldrne	r3, [r2, #4]
   12f68:	159f00a0 	ldrne	r0, [pc, #160]	; 13010 <sd_raw_init+0x208>
   12f6c:	13833080 	orrne	r3, r3, #128	; 0x80
   12f70:	1a000017 	bne	12fd4 <sd_raw_init+0x1cc>
   12f74:	e59fc07c 	ldr	ip, [pc, #124]	; 12ff8 <sd_raw_init+0x1f0>
   12f78:	e59c3004 	ldr	r3, [ip, #4]
   12f7c:	e3833080 	orr	r3, r3, #128	; 0x80
   12f80:	e58c3004 	str	r3, [ip, #4]
   12f84:	e59f3088 	ldr	r3, [pc, #136]	; 13014 <sd_raw_init+0x20c>
   12f88:	e3e0c000 	mvn	ip, #0	; 0x0
   12f8c:	e583c000 	str	ip, [r3]
   12f90:	e59f3080 	ldr	r3, [pc, #128]	; 13018 <sd_raw_init+0x210>
   12f94:	e28cc03d 	add	ip, ip, #61	; 0x3d
   12f98:	e583c00c 	str	ip, [r3, #12]
   12f9c:	e59f3078 	ldr	r3, [pc, #120]	; 1301c <sd_raw_init+0x214>
   12fa0:	e3a05001 	mov	r5, #1	; 0x1
   12fa4:	e59f1074 	ldr	r1, [pc, #116]	; 13020 <sd_raw_init+0x218>
   12fa8:	e3a02c02 	mov	r2, #512	; 0x200
   12fac:	e5c35000 	strb	r5, [r3]
   12fb0:	ebfffe79 	bl	1299c <sd_raw_read>
   12fb4:	e2504000 	subs	r4, r0, #0	; 0x0
   12fb8:	0a000009 	beq	12fe4 <sd_raw_init+0x1dc>
   12fbc:	e1a00005 	mov	r0, r5
   12fc0:	ea00000a 	b	12ff0 <sd_raw_init+0x1e8>
   12fc4:	e59f202c 	ldr	r2, [pc, #44]	; 12ff8 <sd_raw_init+0x1f0>
   12fc8:	e5923004 	ldr	r3, [r2, #4]
   12fcc:	e59f0050 	ldr	r0, [pc, #80]	; 13024 <sd_raw_init+0x21c>
   12fd0:	e3833080 	orr	r3, r3, #128	; 0x80
   12fd4:	e5823004 	str	r3, [r2, #4]
   12fd8:	ebfffb57 	bl	11d3c <rprintf>
   12fdc:	e3a00000 	mov	r0, #0	; 0x0
   12fe0:	ea000002 	b	12ff0 <sd_raw_init+0x1e8>
   12fe4:	e59f003c 	ldr	r0, [pc, #60]	; 13028 <sd_raw_init+0x220>
   12fe8:	ebfffb53 	bl	11d3c <rprintf>
   12fec:	e1a00004 	mov	r0, r4
   12ff0:	e8bd4030 	pop	{r4, r5, lr}
   12ff4:	e12fff1e 	bx	lr
   12ff8:	e0028000 	.word	0xe0028000
   12ffc:	e002c000 	.word	0xe002c000
   13000:	000194a8 	.word	0x000194a8
   13004:	000194c0 	.word	0x000194c0
   13008:	000194d4 	.word	0x000194d4
   1300c:	00007fff 	.word	0x00007fff
   13010:	000194f8 	.word	0x000194f8
   13014:	40000f20 	.word	0x40000f20
   13018:	e0020000 	.word	0xe0020000
   1301c:	40000f24 	.word	0x40000f24
   13020:	40000d20 	.word	0x40000d20
   13024:	000194e8 	.word	0x000194e8
   13028:	00019510 	.word	0x00019510

0001302c <format_card>:
   1302c:	e92d47f0 	push	{r4, r5, r6, r7, r8, r9, sl, lr}
   13030:	e20000ff 	and	r0, r0, #255	; 0xff
   13034:	e35000aa 	cmp	r0, #170	; 0xaa
   13038:	e24ddc02 	sub	sp, sp, #512	; 0x200
   1303c:	13a00000 	movne	r0, #0	; 0x0
   13040:	1a00006d 	bne	131fc <format_card+0x1d0>
   13044:	e3a04000 	mov	r4, #0	; 0x0
   13048:	e3a06000 	mov	r6, #0	; 0x0
   1304c:	e7c4600d 	strb	r6, [r4, sp]
   13050:	e2844001 	add	r4, r4, #1	; 0x1
   13054:	e3540c02 	cmp	r4, #512	; 0x200
   13058:	1afffffa 	bne	13048 <format_card+0x1c>
   1305c:	ebffff69 	bl	12e08 <sd_raw_init>
   13060:	ebffff2a 	bl	12d10 <sd_raw_sync>
   13064:	e1a02004 	mov	r2, r4
   13068:	e1a0100d 	mov	r1, sp
   1306c:	e1a00006 	mov	r0, r6
   13070:	ebfffea1 	bl	12afc <sd_raw_write>
   13074:	ebffff25 	bl	12d10 <sd_raw_sync>
   13078:	e1a02004 	mov	r2, r4
   1307c:	e1a0100d 	mov	r1, sp
   13080:	e3a00702 	mov	r0, #524288	; 0x80000
   13084:	ebfffe9c 	bl	12afc <sd_raw_write>
   13088:	e3a04703 	mov	r4, #786432	; 0xc0000
   1308c:	ebffff1f 	bl	12d10 <sd_raw_sync>
   13090:	e1a00004 	mov	r0, r4
   13094:	e1a0100d 	mov	r1, sp
   13098:	e3a02c02 	mov	r2, #512	; 0x200
   1309c:	ebfffe96 	bl	12afc <sd_raw_write>
   130a0:	e59f3160 	ldr	r3, [pc, #352]	; 13208 <format_card+0x1dc>
   130a4:	e2844c02 	add	r4, r4, #512	; 0x200
   130a8:	e1540003 	cmp	r4, r3
   130ac:	e1a0900d 	mov	r9, sp
   130b0:	1afffff5 	bne	1308c <format_card+0x60>
   130b4:	e3a03006 	mov	r3, #6	; 0x6
   130b8:	e5cd31c2 	strb	r3, [sp, #450]
   130bc:	e2833019 	add	r3, r3, #25	; 0x19
   130c0:	e5cd31c3 	strb	r3, [sp, #451]
   130c4:	e3e0301f 	mvn	r3, #31	; 0x1f
   130c8:	e3a04000 	mov	r4, #0	; 0x0
   130cc:	e3a02001 	mov	r2, #1	; 0x1
   130d0:	e3a05055 	mov	r5, #85	; 0x55
   130d4:	e3a06004 	mov	r6, #4	; 0x4
   130d8:	e3a0704c 	mov	r7, #76	; 0x4c
   130dc:	e3a0800f 	mov	r8, #15	; 0xf
   130e0:	e3e0a055 	mvn	sl, #85	; 0x55
   130e4:	e5cd31c4 	strb	r3, [sp, #452]
   130e8:	e3e0302c 	mvn	r3, #44	; 0x2c
   130ec:	e5cd31c5 	strb	r3, [sp, #453]
   130f0:	e5cd21c1 	strb	r2, [sp, #449]
   130f4:	e5cd21c0 	strb	r2, [sp, #448]
   130f8:	e5cd41be 	strb	r4, [sp, #446]
   130fc:	e5cd41bf 	strb	r4, [sp, #447]
   13100:	e5cd41c6 	strb	r4, [sp, #454]
   13104:	e5cd61c7 	strb	r6, [sp, #455]
   13108:	e5cd41c8 	strb	r4, [sp, #456]
   1310c:	e5cd41c9 	strb	r4, [sp, #457]
   13110:	e5cd41ca 	strb	r4, [sp, #458]
   13114:	e5cd71cb 	strb	r7, [sp, #459]
   13118:	e5cd81cc 	strb	r8, [sp, #460]
   1311c:	e5cd51fe 	strb	r5, [sp, #510]
   13120:	e5cda1ff 	strb	sl, [sp, #511]
   13124:	ebfffef9 	bl	12d10 <sd_raw_sync>
   13128:	e1a0100d 	mov	r1, sp
   1312c:	e3a02c02 	mov	r2, #512	; 0x200
   13130:	e1a00004 	mov	r0, r4
   13134:	ebfffe70 	bl	12afc <sd_raw_write>
   13138:	ebfffef4 	bl	12d10 <sd_raw_sync>
   1313c:	e3e03014 	mvn	r3, #20	; 0x14
   13140:	e5cd3000 	strb	r3, [sp]
   13144:	e2833013 	add	r3, r3, #19	; 0x13
   13148:	e5cd3001 	strb	r3, [sp, #1]
   1314c:	e3e0306f 	mvn	r3, #111	; 0x6f
   13150:	e5cd3002 	strb	r3, [sp, #2]
   13154:	e2833080 	add	r3, r3, #128	; 0x80
   13158:	e5cd300d 	strb	r3, [sp, #13]
   1315c:	e2833006 	add	r3, r3, #6	; 0x6
   13160:	e5cd300e 	strb	r3, [sp, #14]
   13164:	e3e03007 	mvn	r3, #7	; 0x7
   13168:	e5cd3015 	strb	r3, [sp, #21]
   1316c:	e3e0300a 	mvn	r3, #10	; 0xa
   13170:	e5cd3016 	strb	r3, [sp, #22]
   13174:	e2833034 	add	r3, r3, #52	; 0x34
   13178:	e5cd3026 	strb	r3, [sp, #38]
   1317c:	e283301d 	add	r3, r3, #29	; 0x1d
   13180:	e5cd3036 	strb	r3, [sp, #54]
   13184:	e3a03041 	mov	r3, #65	; 0x41
   13188:	e5cd3037 	strb	r3, [sp, #55]
   1318c:	e2833013 	add	r3, r3, #19	; 0x13
   13190:	e5cd3038 	strb	r3, [sp, #56]
   13194:	e3a03031 	mov	r3, #49	; 0x31
   13198:	e3a02020 	mov	r2, #32	; 0x20
   1319c:	e3a01002 	mov	r1, #2	; 0x2
   131a0:	e5cd3039 	strb	r3, [sp, #57]
   131a4:	e2833005 	add	r3, r3, #5	; 0x5
   131a8:	e5cd303a 	strb	r3, [sp, #58]
   131ac:	e5cd1012 	strb	r1, [sp, #18]
   131b0:	e5cd203d 	strb	r2, [sp, #61]
   131b4:	e5cd100c 	strb	r1, [sp, #12]
   131b8:	e5cd1010 	strb	r1, [sp, #16]
   131bc:	e5cd2018 	strb	r2, [sp, #24]
   131c0:	e5cd201a 	strb	r2, [sp, #26]
   131c4:	e5cd203b 	strb	r2, [sp, #59]
   131c8:	e5cd203c 	strb	r2, [sp, #60]
   131cc:	e5cd601d 	strb	r6, [sp, #29]
   131d0:	e5cd7021 	strb	r7, [sp, #33]
   131d4:	e5cd8022 	strb	r8, [sp, #34]
   131d8:	e5cda1ff 	strb	sl, [sp, #511]
   131dc:	e5cd51fe 	strb	r5, [sp, #510]
   131e0:	ebfffeca 	bl	12d10 <sd_raw_sync>
   131e4:	e1a0100d 	mov	r1, sp
   131e8:	e3a02c02 	mov	r2, #512	; 0x200
   131ec:	e3a00702 	mov	r0, #524288	; 0x80000
   131f0:	ebfffe41 	bl	12afc <sd_raw_write>
   131f4:	ebfffec5 	bl	12d10 <sd_raw_sync>
   131f8:	e1a00005 	mov	r0, r5
   131fc:	e28ddc02 	add	sp, sp, #512	; 0x200
   13200:	e8bd47f0 	pop	{r4, r5, r6, r7, r8, r9, sl, lr}
   13204:	e12fff1e 	bx	lr
   13208:	000dea00 	.word	0x000dea00

0001320c <fat16_dir_entry_seek_callback>:
   1320c:	e5d03000 	ldrb	r3, [r0]
   13210:	e3530000 	cmp	r3, #0	; 0x0
   13214:	135300e5 	cmpne	r3, #229	; 0xe5
   13218:	0a000015 	beq	13274 <fat16_dir_entry_seek_callback+0x68>
   1321c:	e1d2c0b0 	ldrh	ip, [r2]
   13220:	e1d230b2 	ldrh	r3, [r2, #2]
   13224:	e153000c 	cmp	r3, ip
   13228:	1a00000b 	bne	1325c <fat16_dir_entry_seek_callback+0x50>
   1322c:	e5821004 	str	r1, [r2, #4]
   13230:	e5d0300b 	ldrb	r3, [r0, #11]
   13234:	e353000f 	cmp	r3, #15	; 0xf
   13238:	05d03000 	ldrbeq	r3, [r0]
   1323c:	0203303f 	andeq	r3, r3, #63	; 0x3f
   13240:	01a03283 	lsleq	r3, r3, #5
   13244:	02833020 	addeq	r3, r3, #32	; 0x20
   13248:	e3a01020 	mov	r1, #32	; 0x20
   1324c:	e3a00000 	mov	r0, #0	; 0x0
   13250:	020310ff 	andeq	r1, r3, #255	; 0xff
   13254:	e5c21008 	strb	r1, [r2, #8]
   13258:	e12fff1e 	bx	lr
   1325c:	e5d0300b 	ldrb	r3, [r0, #11]
   13260:	e28c1001 	add	r1, ip, #1	; 0x1
   13264:	e353000f 	cmp	r3, #15	; 0xf
   13268:	e3a00001 	mov	r0, #1	; 0x1
   1326c:	11c210b0 	strhne	r1, [r2]
   13270:	112fff1e 	bxne	lr
   13274:	e3a00001 	mov	r0, #1	; 0x1
   13278:	e12fff1e 	bx	lr

0001327c <fat16_dir_entry_read_callback>:
   1327c:	e92d4030 	push	{r4, r5, lr}
   13280:	e5d03000 	ldrb	r3, [r0]
   13284:	e3530000 	cmp	r3, #0	; 0x0
   13288:	135300e5 	cmpne	r3, #229	; 0xe5
   1328c:	e1a0c002 	mov	ip, r2
   13290:	0a000062 	beq	13420 <fat16_dir_entry_read_callback+0x1a4>
   13294:	e5923028 	ldr	r3, [r2, #40]
   13298:	e3530000 	cmp	r3, #0	; 0x0
   1329c:	05821028 	streq	r1, [r2, #40]
   132a0:	e5d02000 	ldrb	r2, [r0]
   132a4:	e3520000 	cmp	r2, #0	; 0x0
   132a8:	0a00005c 	beq	13420 <fat16_dir_entry_read_callback+0x1a4>
   132ac:	e5d0300b 	ldrb	r3, [r0, #11]
   132b0:	e353000f 	cmp	r3, #15	; 0xf
   132b4:	e280500b 	add	r5, r0, #11	; 0xb
   132b8:	1a000026 	bne	13358 <fat16_dir_entry_read_callback+0xdc>
   132bc:	e202203f 	and	r2, r2, #63	; 0x3f
   132c0:	e3a0300d 	mov	r3, #13	; 0xd
   132c4:	e0030392 	mul	r3, r2, r3
   132c8:	e243300d 	sub	r3, r3, #13	; 0xd
   132cc:	e1a03803 	lsl	r3, r3, #16
   132d0:	e1a02823 	lsr	r2, r3, #16
   132d4:	e282300c 	add	r3, r2, #12	; 0xc
   132d8:	e353001f 	cmp	r3, #31	; 0x1f
   132dc:	83a00001 	movhi	r0, #1	; 0x1
   132e0:	8a00004f 	bhi	13424 <fat16_dir_entry_read_callback+0x1a8>
   132e4:	e5d03001 	ldrb	r3, [r0, #1]
   132e8:	e7cc3002 	strb	r3, [ip, r2]
   132ec:	e5d03003 	ldrb	r3, [r0, #3]
   132f0:	e08c2002 	add	r2, ip, r2
   132f4:	e5c23001 	strb	r3, [r2, #1]
   132f8:	e5d03005 	ldrb	r3, [r0, #5]
   132fc:	e5c23002 	strb	r3, [r2, #2]
   13300:	e5d03007 	ldrb	r3, [r0, #7]
   13304:	e5c23003 	strb	r3, [r2, #3]
   13308:	e5d03009 	ldrb	r3, [r0, #9]
   1330c:	e5c23004 	strb	r3, [r2, #4]
   13310:	e5d0300e 	ldrb	r3, [r0, #14]
   13314:	e5c23005 	strb	r3, [r2, #5]
   13318:	e5d03010 	ldrb	r3, [r0, #16]
   1331c:	e5c23006 	strb	r3, [r2, #6]
   13320:	e5d03012 	ldrb	r3, [r0, #18]
   13324:	e5c23007 	strb	r3, [r2, #7]
   13328:	e5d03014 	ldrb	r3, [r0, #20]
   1332c:	e5c23008 	strb	r3, [r2, #8]
   13330:	e5d03016 	ldrb	r3, [r0, #22]
   13334:	e5c23009 	strb	r3, [r2, #9]
   13338:	e5d03018 	ldrb	r3, [r0, #24]
   1333c:	e5c2300a 	strb	r3, [r2, #10]
   13340:	e5d0301c 	ldrb	r3, [r0, #28]
   13344:	e5c2300b 	strb	r3, [r2, #11]
   13348:	e5d0301e 	ldrb	r3, [r0, #30]
   1334c:	e3a00001 	mov	r0, #1	; 0x1
   13350:	e5c2300c 	strb	r3, [r2, #12]
   13354:	ea000032 	b	13424 <fat16_dir_entry_read_callback+0x1a8>
   13358:	e5dc2000 	ldrb	r2, [ip]
   1335c:	e3520000 	cmp	r2, #0	; 0x0
   13360:	1a00001d 	bne	133dc <fat16_dir_entry_read_callback+0x160>
   13364:	e1a01002 	mov	r1, r2
   13368:	e7d23000 	ldrb	r3, [r2, r0]
   1336c:	e3530020 	cmp	r3, #32	; 0x20
   13370:	e281e001 	add	lr, r1, #1	; 0x1
   13374:	0a000004 	beq	1338c <fat16_dir_entry_read_callback+0x110>
   13378:	e20e10ff 	and	r1, lr, #255	; 0xff
   1337c:	e3510008 	cmp	r1, #8	; 0x8
   13380:	e7c2300c 	strb	r3, [r2, ip]
   13384:	e2822001 	add	r2, r2, #1	; 0x1
   13388:	1afffff6 	bne	13368 <fat16_dir_entry_read_callback+0xec>
   1338c:	e5d03008 	ldrb	r3, [r0, #8]
   13390:	e3530020 	cmp	r3, #32	; 0x20
   13394:	0a00000e 	beq	133d4 <fat16_dir_entry_read_callback+0x158>
   13398:	e3a0302e 	mov	r3, #46	; 0x2e
   1339c:	e2812001 	add	r2, r1, #1	; 0x1
   133a0:	e7cc3001 	strb	r3, [ip, r1]
   133a4:	e20210ff 	and	r1, r2, #255	; 0xff
   133a8:	e1a03000 	mov	r3, r0
   133ac:	e5d32008 	ldrb	r2, [r3, #8]
   133b0:	e3520020 	cmp	r2, #32	; 0x20
   133b4:	e280e003 	add	lr, r0, #3	; 0x3
   133b8:	e2814001 	add	r4, r1, #1	; 0x1
   133bc:	e2833001 	add	r3, r3, #1	; 0x1
   133c0:	0a000003 	beq	133d4 <fat16_dir_entry_read_callback+0x158>
   133c4:	e153000e 	cmp	r3, lr
   133c8:	e7cc2001 	strb	r2, [ip, r1]
   133cc:	e20410ff 	and	r1, r4, #255	; 0xff
   133d0:	1afffff5 	bne	133ac <fat16_dir_entry_read_callback+0x130>
   133d4:	e3a03000 	mov	r3, #0	; 0x0
   133d8:	e7cc3001 	strb	r3, [ip, r1]
   133dc:	e5d53000 	ldrb	r3, [r5]
   133e0:	e5cc3020 	strb	r3, [ip, #32]
   133e4:	e5d0201b 	ldrb	r2, [r0, #27]
   133e8:	e5d0301a 	ldrb	r3, [r0, #26]
   133ec:	e1833402 	orr	r3, r3, r2, lsl #8
   133f0:	e1cc32b2 	strh	r3, [ip, #34]
   133f4:	e5d0301e 	ldrb	r3, [r0, #30]
   133f8:	e5d0201c 	ldrb	r2, [r0, #28]
   133fc:	e5d0101d 	ldrb	r1, [r0, #29]
   13400:	e5d0001f 	ldrb	r0, [r0, #31]
   13404:	e1a03803 	lsl	r3, r3, #16
   13408:	e1833c00 	orr	r3, r3, r0, lsl #24
   1340c:	e1822401 	orr	r2, r2, r1, lsl #8
   13410:	e1822003 	orr	r2, r2, r3
   13414:	e3a00000 	mov	r0, #0	; 0x0
   13418:	e58c2024 	str	r2, [ip, #36]
   1341c:	ea000000 	b	13424 <fat16_dir_entry_read_callback+0x1a8>
   13420:	e3a00000 	mov	r0, #0	; 0x0
   13424:	e8bd4030 	pop	{r4, r5, lr}
   13428:	e12fff1e 	bx	lr

0001342c <fat16_get_next_cluster>:
   1342c:	e52de004 	push	{lr}		; (str lr, [sp, #-4]!)
   13430:	e1a03801 	lsl	r3, r1, #16
   13434:	e1a03823 	lsr	r3, r3, #16
   13438:	e24dd004 	sub	sp, sp, #4	; 0x4
   1343c:	e3a02002 	mov	r2, #2	; 0x2
   13440:	e3500000 	cmp	r0, #0	; 0x0
   13444:	13530001 	cmpne	r3, #1	; 0x1
   13448:	e08d1002 	add	r1, sp, r2
   1344c:	e1a0c000 	mov	ip, r0
   13450:	9a00001a 	bls	134c0 <fat16_get_next_cluster+0x94>
   13454:	e5900008 	ldr	r0, [r0, #8]
   13458:	e0200293 	mla	r0, r3, r2, r0
   1345c:	e59c3000 	ldr	r3, [ip]
   13460:	e593c000 	ldr	ip, [r3]
   13464:	e1a0e00f 	mov	lr, pc
   13468:	e12fff1c 	bx	ip
   1346c:	e3500000 	cmp	r0, #0	; 0x0
   13470:	e59f1058 	ldr	r1, [pc, #88]	; 134d0 <fat16_get_next_cluster+0xa4>
   13474:	0a000011 	beq	134c0 <fat16_get_next_cluster+0x94>
   13478:	e5dd2002 	ldrb	r2, [sp, #2]
   1347c:	e5dd3003 	ldrb	r3, [sp, #3]
   13480:	e1920403 	orrs	r0, r2, r3, lsl #8
   13484:	13a03000 	movne	r3, #0	; 0x0
   13488:	03a03001 	moveq	r3, #1	; 0x1
   1348c:	e1500001 	cmp	r0, r1
   13490:	03833001 	orreq	r3, r3, #1	; 0x1
   13494:	e2802010 	add	r2, r0, #16	; 0x10
   13498:	e3530000 	cmp	r3, #0	; 0x0
   1349c:	e1a02802 	lsl	r2, r2, #16
   134a0:	1a000006 	bne	134c0 <fat16_get_next_cluster+0x94>
   134a4:	e1500001 	cmp	r0, r1
   134a8:	93a03000 	movls	r3, #0	; 0x0
   134ac:	83a03001 	movhi	r3, #1	; 0x1
   134b0:	e3520806 	cmp	r2, #393216	; 0x60000
   134b4:	93833001 	orrls	r3, r3, #1	; 0x1
   134b8:	e3530000 	cmp	r3, #0	; 0x0
   134bc:	0a000000 	beq	134c4 <fat16_get_next_cluster+0x98>
   134c0:	e3a00000 	mov	r0, #0	; 0x0
   134c4:	e28dd004 	add	sp, sp, #4	; 0x4
   134c8:	e49de004 	pop	{lr}		; (ldr lr, [sp], #4)
   134cc:	e12fff1e 	bx	lr
   134d0:	0000fff7 	.word	0x0000fff7

000134d4 <fat16_free_clusters>:
   134d4:	e92d40f0 	push	{r4, r5, r6, r7, lr}
   134d8:	e1a01801 	lsl	r1, r1, #16
   134dc:	e1a03821 	lsr	r3, r1, #16
   134e0:	e3500000 	cmp	r0, #0	; 0x0
   134e4:	13530001 	cmpne	r3, #1	; 0x1
   134e8:	e24dd004 	sub	sp, sp, #4	; 0x4
   134ec:	e1a05000 	mov	r5, r0
   134f0:	85907008 	ldrhi	r7, [r0, #8]
   134f4:	8a00001d 	bhi	13570 <fat16_free_clusters+0x9c>
   134f8:	ea000024 	b	13590 <fat16_free_clusters+0xbc>
   134fc:	e5953000 	ldr	r3, [r5]
   13500:	e593c000 	ldr	ip, [r3]
   13504:	e1a0e00f 	mov	lr, pc
   13508:	e12fff1c 	bx	ip
   1350c:	e3a0e000 	mov	lr, #0	; 0x0
   13510:	e150000e 	cmp	r0, lr
   13514:	e1a01006 	mov	r1, r6
   13518:	e3a02002 	mov	r2, #2	; 0x2
   1351c:	e1a00004 	mov	r0, r4
   13520:	0a00001a 	beq	13590 <fat16_free_clusters+0xbc>
   13524:	e5dd3002 	ldrb	r3, [sp, #2]
   13528:	e5ddc003 	ldrb	ip, [sp, #3]
   1352c:	e193340c 	orrs	r3, r3, ip, lsl #8
   13530:	e1a04003 	mov	r4, r3
   13534:	e2833010 	add	r3, r3, #16	; 0x10
   13538:	e1a03803 	lsl	r3, r3, #16
   1353c:	0a000015 	beq	13598 <fat16_free_clusters+0xc4>
   13540:	e3530807 	cmp	r3, #458752	; 0x70000
   13544:	9a000011 	bls	13590 <fat16_free_clusters+0xbc>
   13548:	e59f3058 	ldr	r3, [pc, #88]	; 135a8 <fat16_free_clusters+0xd4>
   1354c:	e5cde003 	strb	lr, [sp, #3]
   13550:	e5cde002 	strb	lr, [sp, #2]
   13554:	e1540003 	cmp	r4, r3
   13558:	81a0400e 	movhi	r4, lr
   1355c:	e5953000 	ldr	r3, [r5]
   13560:	e593c008 	ldr	ip, [r3, #8]
   13564:	e1a0e00f 	mov	lr, pc
   13568:	e12fff1c 	bx	ip
   1356c:	e1a03004 	mov	r3, r4
   13570:	e0874083 	add	r4, r7, r3, lsl #1
   13574:	e28d6002 	add	r6, sp, #2	; 0x2
   13578:	e3530000 	cmp	r3, #0	; 0x0
   1357c:	e1a01006 	mov	r1, r6
   13580:	e3a02002 	mov	r2, #2	; 0x2
   13584:	e1a00004 	mov	r0, r4
   13588:	1affffdb 	bne	134fc <fat16_free_clusters+0x28>
   1358c:	ea000001 	b	13598 <fat16_free_clusters+0xc4>
   13590:	e3a00000 	mov	r0, #0	; 0x0
   13594:	ea000000 	b	1359c <fat16_free_clusters+0xc8>
   13598:	e3a00001 	mov	r0, #1	; 0x1
   1359c:	e28dd004 	add	sp, sp, #4	; 0x4
   135a0:	e8bd40f0 	pop	{r4, r5, r6, r7, lr}
   135a4:	e12fff1e 	bx	lr
   135a8:	0000fff7 	.word	0x0000fff7

000135ac <fat16_append_clusters>:
   135ac:	e92d4ff0 	push	{r4, r5, r6, r7, r8, r9, sl, fp, lr}
   135b0:	e1a01801 	lsl	r1, r1, #16
   135b4:	e24dd014 	sub	sp, sp, #20	; 0x14
   135b8:	e1a02802 	lsl	r2, r2, #16
   135bc:	e1a01821 	lsr	r1, r1, #16
   135c0:	e2507000 	subs	r7, r0, #0	; 0x0
   135c4:	e58d1000 	str	r1, [sp]
   135c8:	e1a09822 	lsr	r9, r2, #16
   135cc:	0a00004e 	beq	1370c <fat16_append_clusters+0x160>
   135d0:	e5972000 	ldr	r2, [r7]
   135d4:	e597300c 	ldr	r3, [r7, #12]
   135d8:	e5921008 	ldr	r1, [r2, #8]
   135dc:	e1a03783 	lsl	r3, r3, #15
   135e0:	e3a04000 	mov	r4, #0	; 0x0
   135e4:	e5922000 	ldr	r2, [r2]
   135e8:	e597b008 	ldr	fp, [r7, #8]
   135ec:	e1a03823 	lsr	r3, r3, #16
   135f0:	e1a05009 	mov	r5, r9
   135f4:	e1a0a004 	mov	sl, r4
   135f8:	e58d1008 	str	r1, [sp, #8]
   135fc:	e58d2004 	str	r2, [sp, #4]
   13600:	e58d300c 	str	r3, [sp, #12]
   13604:	ea000023 	b	13698 <fat16_append_clusters+0xec>
   13608:	e08b8086 	add	r8, fp, r6, lsl #1
   1360c:	e1a00008 	mov	r0, r8
   13610:	e28d1012 	add	r1, sp, #18	; 0x12
   13614:	e3a02002 	mov	r2, #2	; 0x2
   13618:	e59d3004 	ldr	r3, [sp, #4]
   1361c:	e1a0e00f 	mov	lr, pc
   13620:	e12fff13 	bx	r3
   13624:	e3500000 	cmp	r0, #0	; 0x0
   13628:	0a000037 	beq	1370c <fat16_append_clusters+0x160>
   1362c:	e5dd3012 	ldrb	r3, [sp, #18]
   13630:	e3530000 	cmp	r3, #0	; 0x0
   13634:	1a000016 	bne	13694 <fat16_append_clusters+0xe8>
   13638:	e5dd3013 	ldrb	r3, [sp, #19]
   1363c:	e3530000 	cmp	r3, #0	; 0x0
   13640:	1a000013 	bne	13694 <fat16_append_clusters+0xe8>
   13644:	e1550009 	cmp	r5, r9
   13648:	03e03000 	mvneq	r3, #0	; 0x0
   1364c:	11a03424 	lsrne	r3, r4, #8
   13650:	05cd3013 	strbeq	r3, [sp, #19]
   13654:	05cd3012 	strbeq	r3, [sp, #18]
   13658:	15cd3013 	strbne	r3, [sp, #19]
   1365c:	15cd4012 	strbne	r4, [sp, #18]
   13660:	e1a00008 	mov	r0, r8
   13664:	e28d1012 	add	r1, sp, #18	; 0x12
   13668:	e3a02002 	mov	r2, #2	; 0x2
   1366c:	e59d3008 	ldr	r3, [sp, #8]
   13670:	e1a0e00f 	mov	lr, pc
   13674:	e12fff13 	bx	r3
   13678:	e3500000 	cmp	r0, #0	; 0x0
   1367c:	0a00000a 	beq	136ac <fat16_append_clusters+0x100>
   13680:	e2453001 	sub	r3, r5, #1	; 0x1
   13684:	e1a03803 	lsl	r3, r3, #16
   13688:	e1b05823 	lsrs	r5, r3, #16
   1368c:	0a000019 	beq	136f8 <fat16_append_clusters+0x14c>
   13690:	e1a04006 	mov	r4, r6
   13694:	e28aa001 	add	sl, sl, #1	; 0x1
   13698:	e59d100c 	ldr	r1, [sp, #12]
   1369c:	e1a0380a 	lsl	r3, sl, #16
   136a0:	e15a0001 	cmp	sl, r1
   136a4:	e1a06823 	lsr	r6, r3, #16
   136a8:	1affffd6 	bne	13608 <fat16_append_clusters+0x5c>
   136ac:	e3550000 	cmp	r5, #0	; 0x0
   136b0:	1a000012 	bne	13700 <fat16_append_clusters+0x154>
   136b4:	e59d3000 	ldr	r3, [sp]
   136b8:	e3530001 	cmp	r3, #1	; 0x1
   136bc:	9a00000b 	bls	136f0 <fat16_append_clusters+0x144>
   136c0:	e59d1000 	ldr	r1, [sp]
   136c4:	e1a03424 	lsr	r3, r4, #8
   136c8:	e5cd3013 	strb	r3, [sp, #19]
   136cc:	e08b0081 	add	r0, fp, r1, lsl #1
   136d0:	e5cd4012 	strb	r4, [sp, #18]
   136d4:	e28d1012 	add	r1, sp, #18	; 0x12
   136d8:	e3a02002 	mov	r2, #2	; 0x2
   136dc:	e59d3008 	ldr	r3, [sp, #8]
   136e0:	e1a0e00f 	mov	lr, pc
   136e4:	e12fff13 	bx	r3
   136e8:	e3500000 	cmp	r0, #0	; 0x0
   136ec:	0a000003 	beq	13700 <fat16_append_clusters+0x154>
   136f0:	e1a00004 	mov	r0, r4
   136f4:	ea000005 	b	13710 <fat16_append_clusters+0x164>
   136f8:	e1a04006 	mov	r4, r6
   136fc:	eaffffec 	b	136b4 <fat16_append_clusters+0x108>
   13700:	e1a00007 	mov	r0, r7
   13704:	e1a01004 	mov	r1, r4
   13708:	ebffff71 	bl	134d4 <fat16_free_clusters>
   1370c:	e3a00000 	mov	r0, #0	; 0x0
   13710:	e28dd014 	add	sp, sp, #20	; 0x14
   13714:	e8bd4ff0 	pop	{r4, r5, r6, r7, r8, r9, sl, fp, lr}
   13718:	e12fff1e 	bx	lr

0001371c <fat16_read_file>:
   1371c:	e1a02802 	lsl	r2, r2, #16
   13720:	e3510000 	cmp	r1, #0	; 0x0
   13724:	13500000 	cmpne	r0, #0	; 0x0
   13728:	e92d4ff0 	push	{r4, r5, r6, r7, r8, r9, sl, fp, lr}
   1372c:	e1a06000 	mov	r6, r0
   13730:	e1a0b001 	mov	fp, r1
   13734:	e1a08822 	lsr	r8, r2, #16
   13738:	0a000050 	beq	13880 <fat16_read_file+0x164>
   1373c:	e3580000 	cmp	r8, #0	; 0x0
   13740:	0a00004e 	beq	13880 <fat16_read_file+0x164>
   13744:	e5907030 	ldr	r7, [r0, #48]
   13748:	e5902028 	ldr	r2, [r0, #40]
   1374c:	e0873008 	add	r3, r7, r8
   13750:	e1530002 	cmp	r3, r2
   13754:	9a000003 	bls	13768 <fat16_read_file+0x4c>
   13758:	e0673002 	rsb	r3, r7, r2
   1375c:	e1a03803 	lsl	r3, r3, #16
   13760:	e1b08823 	lsrs	r8, r3, #16
   13764:	0a000050 	beq	138ac <fat16_read_file+0x190>
   13768:	e1d653b4 	ldrh	r5, [r6, #52]
   1376c:	e5963000 	ldr	r3, [r6]
   13770:	e3550000 	cmp	r5, #0	; 0x0
   13774:	e1d391b2 	ldrh	r9, [r3, #18]
   13778:	1a000011 	bne	137c4 <fat16_read_file+0xa8>
   1377c:	e1d652b6 	ldrh	r5, [r6, #38]
   13780:	e3550000 	cmp	r5, #0	; 0x0
   13784:	1a000002 	bne	13794 <fat16_read_file+0x78>
   13788:	e3570000 	cmp	r7, #0	; 0x0
   1378c:	0a000046 	beq	138ac <fat16_read_file+0x190>
   13790:	ea00003a 	b	13880 <fat16_read_file+0x164>
   13794:	e3570000 	cmp	r7, #0	; 0x0
   13798:	11a04007 	movne	r4, r7
   1379c:	1a000004 	bne	137b4 <fat16_read_file+0x98>
   137a0:	ea000007 	b	137c4 <fat16_read_file+0xa8>
   137a4:	e5960000 	ldr	r0, [r6]
   137a8:	ebffff1f 	bl	1342c <fat16_get_next_cluster>
   137ac:	e2505000 	subs	r5, r0, #0	; 0x0
   137b0:	0a000032 	beq	13880 <fat16_read_file+0x164>
   137b4:	e1540009 	cmp	r4, r9
   137b8:	e1a01005 	mov	r1, r5
   137bc:	e0694004 	rsb	r4, r9, r4
   137c0:	2afffff7 	bcs	137a4 <fat16_read_file+0x88>
   137c4:	e1a00007 	mov	r0, r7
   137c8:	e1a01009 	mov	r1, r9
   137cc:	eb0014bc 	bl	18ac4 <__umodsi3>
   137d0:	e1a00800 	lsl	r0, r0, #16
   137d4:	e1a0a820 	lsr	sl, r0, #16
   137d8:	e1a07008 	mov	r7, r8
   137dc:	e06a3009 	rsb	r3, sl, r9
   137e0:	e596c000 	ldr	ip, [r6]
   137e4:	e1a03803 	lsl	r3, r3, #16
   137e8:	e1a03823 	lsr	r3, r3, #16
   137ec:	e1570003 	cmp	r7, r3
   137f0:	31a03007 	movcc	r3, r7
   137f4:	e59c2018 	ldr	r2, [ip, #24]
   137f8:	e1a03803 	lsl	r3, r3, #16
   137fc:	e1a04823 	lsr	r4, r3, #16
   13800:	e08a2002 	add	r2, sl, r2
   13804:	e2453002 	sub	r3, r5, #2	; 0x2
   13808:	e0202399 	mla	r0, r9, r3, r2
   1380c:	e1a0100b 	mov	r1, fp
   13810:	e1a02004 	mov	r2, r4
   13814:	e59c3000 	ldr	r3, [ip]
   13818:	e593c000 	ldr	ip, [r3]
   1381c:	e1a0e00f 	mov	lr, pc
   13820:	e12fff1c 	bx	ip
   13824:	e0643007 	rsb	r3, r4, r7
   13828:	e3500000 	cmp	r0, #0	; 0x0
   1382c:	e1a01005 	mov	r1, r5
   13830:	e08bb004 	add	fp, fp, r4
   13834:	e08a2004 	add	r2, sl, r4
   13838:	e1a00803 	lsl	r0, r3, #16
   1383c:	0a000011 	beq	13888 <fat16_read_file+0x16c>
   13840:	e5963030 	ldr	r3, [r6, #48]
   13844:	e1520009 	cmp	r2, r9
   13848:	e0833004 	add	r3, r3, r4
   1384c:	e5863030 	str	r3, [r6, #48]
   13850:	e1a07820 	lsr	r7, r0, #16
   13854:	ba000004 	blt	1386c <fat16_read_file+0x150>
   13858:	e5960000 	ldr	r0, [r6]
   1385c:	ebfffef2 	bl	1342c <fat16_get_next_cluster>
   13860:	e2505000 	subs	r5, r0, #0	; 0x0
   13864:	e3a0a000 	mov	sl, #0	; 0x0
   13868:	0a00000a 	beq	13898 <fat16_read_file+0x17c>
   1386c:	e3570000 	cmp	r7, #0	; 0x0
   13870:	e1c653b4 	strh	r5, [r6, #52]
   13874:	1affffd8 	bne	137dc <fat16_read_file+0xc0>
   13878:	e1a03808 	lsl	r3, r8, #16
   1387c:	ea000003 	b	13890 <fat16_read_file+0x174>
   13880:	e3e00000 	mvn	r0, #0	; 0x0
   13884:	ea000009 	b	138b0 <fat16_read_file+0x194>
   13888:	e0673008 	rsb	r3, r7, r8
   1388c:	e1a03803 	lsl	r3, r3, #16
   13890:	e1a00843 	asr	r0, r3, #16
   13894:	ea000005 	b	138b0 <fat16_read_file+0x194>
   13898:	e0673008 	rsb	r3, r7, r8
   1389c:	e1a03803 	lsl	r3, r3, #16
   138a0:	e1a00843 	asr	r0, r3, #16
   138a4:	e1c653b4 	strh	r5, [r6, #52]
   138a8:	ea000000 	b	138b0 <fat16_read_file+0x194>
   138ac:	e3a00000 	mov	r0, #0	; 0x0
   138b0:	e8bd4ff0 	pop	{r4, r5, r6, r7, r8, r9, sl, fp, lr}
   138b4:	e12fff1e 	bx	lr

000138b8 <fat16_reset_dir>:
   138b8:	e3500000 	cmp	r0, #0	; 0x0
   138bc:	e1a03000 	mov	r3, r0
   138c0:	13a03000 	movne	r3, #0	; 0x0
   138c4:	11c033b0 	strhne	r3, [r0, #48]
   138c8:	13a03001 	movne	r3, #1	; 0x1
   138cc:	e1a00003 	mov	r0, r3
   138d0:	e12fff1e 	bx	lr

000138d4 <fat16_delete_file>:
   138d4:	e92d40f0 	push	{r4, r5, r6, r7, lr}
   138d8:	e3510000 	cmp	r1, #0	; 0x0
   138dc:	13500000 	cmpne	r0, #0	; 0x0
   138e0:	e24dd00c 	sub	sp, sp, #12	; 0xc
   138e4:	e1a06000 	mov	r6, r0
   138e8:	e1a07001 	mov	r7, r1
   138ec:	0a00001f 	beq	13970 <fat16_delete_file+0x9c>
   138f0:	e5915028 	ldr	r5, [r1, #40]
   138f4:	e3550000 	cmp	r5, #0	; 0x0
   138f8:	0a00001c 	beq	13970 <fat16_delete_file+0x9c>
   138fc:	e1a0100d 	mov	r1, sp
   13900:	e1a00005 	mov	r0, r5
   13904:	e3a0200c 	mov	r2, #12	; 0xc
   13908:	e5963000 	ldr	r3, [r6]
   1390c:	e593c000 	ldr	ip, [r3]
   13910:	e1a0e00f 	mov	lr, pc
   13914:	e12fff1c 	bx	ip
   13918:	e3500000 	cmp	r0, #0	; 0x0
   1391c:	e1a0400d 	mov	r4, sp
   13920:	e1a00005 	mov	r0, r5
   13924:	e1a0100d 	mov	r1, sp
   13928:	e3a0200c 	mov	r2, #12	; 0xc
   1392c:	e2855020 	add	r5, r5, #32	; 0x20
   13930:	0a00000e 	beq	13970 <fat16_delete_file+0x9c>
   13934:	e3e0301a 	mvn	r3, #26	; 0x1a
   13938:	e5cd3000 	strb	r3, [sp]
   1393c:	e5963000 	ldr	r3, [r6]
   13940:	e593c008 	ldr	ip, [r3, #8]
   13944:	e1a0e00f 	mov	lr, pc
   13948:	e12fff1c 	bx	ip
   1394c:	e3500000 	cmp	r0, #0	; 0x0
   13950:	0a000006 	beq	13970 <fat16_delete_file+0x9c>
   13954:	e5dd300b 	ldrb	r3, [sp, #11]
   13958:	e353000f 	cmp	r3, #15	; 0xf
   1395c:	0affffe6 	beq	138fc <fat16_delete_file+0x28>
   13960:	e1a00006 	mov	r0, r6
   13964:	e1d712b2 	ldrh	r1, [r7, #34]
   13968:	ebfffed9 	bl	134d4 <fat16_free_clusters>
   1396c:	ea000000 	b	13974 <fat16_delete_file+0xa0>
   13970:	e3a00000 	mov	r0, #0	; 0x0
   13974:	e28dd00c 	add	sp, sp, #12	; 0xc
   13978:	e8bd40f0 	pop	{r4, r5, r6, r7, lr}
   1397c:	e12fff1e 	bx	lr

00013980 <fat16_get_fs_size>:
   13980:	e3500000 	cmp	r0, #0	; 0x0
   13984:	1590300c 	ldrne	r3, [r0, #12]
   13988:	e1a02000 	mov	r2, r0
   1398c:	11a030a3 	lsrne	r3, r3, #1
   13990:	11d021b2 	ldrhne	r2, [r0, #18]
   13994:	12433002 	subne	r3, r3, #2	; 0x2
   13998:	10020293 	mulne	r2, r3, r2
   1399c:	e1a00002 	mov	r0, r2
   139a0:	e12fff1e 	bx	lr

000139a4 <fat16_get_fs_free>:
   139a4:	e92d40f0 	push	{r4, r5, r6, r7, lr}
   139a8:	e2506000 	subs	r6, r0, #0	; 0x0
   139ac:	e24dd02c 	sub	sp, sp, #44	; 0x2c
   139b0:	0a000021 	beq	13a3c <fat16_get_fs_free+0x98>
   139b4:	e3a03020 	mov	r3, #32	; 0x20
   139b8:	e5cd302a 	strb	r3, [sp, #42]
   139bc:	e5967008 	ldr	r7, [r6, #8]
   139c0:	e596500c 	ldr	r5, [r6, #12]
   139c4:	e3a03000 	mov	r3, #0	; 0x0
   139c8:	e1cd32b8 	strh	r3, [sp, #40]
   139cc:	ea000012 	b	13a1c <fat16_get_fs_free+0x78>
   139d0:	e59f3074 	ldr	r3, [pc, #116]	; 13a4c <fat16_get_fs_free+0xa8>
   139d4:	e1550003 	cmp	r5, r3
   139d8:	e59f3070 	ldr	r3, [pc, #112]	; 13a50 <fat16_get_fs_free+0xac>
   139dc:	91a04822 	lsrls	r4, r2, #16
   139e0:	e596c000 	ldr	ip, [r6]
   139e4:	e58d3000 	str	r3, [sp]
   139e8:	e28d3028 	add	r3, sp, #40	; 0x28
   139ec:	e58d3004 	str	r3, [sp, #4]
   139f0:	e1a00007 	mov	r0, r7
   139f4:	e28d1008 	add	r1, sp, #8	; 0x8
   139f8:	e3a02020 	mov	r2, #32	; 0x20
   139fc:	e1a03004 	mov	r3, r4
   13a00:	e59cc004 	ldr	ip, [ip, #4]
   13a04:	e1a0e00f 	mov	lr, pc
   13a08:	e12fff1c 	bx	ip
   13a0c:	e3500000 	cmp	r0, #0	; 0x0
   13a10:	0a000009 	beq	13a3c <fat16_get_fs_free+0x98>
   13a14:	e0645005 	rsb	r5, r4, r5
   13a18:	e0877004 	add	r7, r7, r4
   13a1c:	e3550000 	cmp	r5, #0	; 0x0
   13a20:	e59f402c 	ldr	r4, [pc, #44]	; 13a54 <fat16_get_fs_free+0xb0>
   13a24:	e1a02805 	lsl	r2, r5, #16
   13a28:	1affffe8 	bne	139d0 <fat16_get_fs_free+0x2c>
   13a2c:	e1d621b2 	ldrh	r2, [r6, #18]
   13a30:	e1dd32b8 	ldrh	r3, [sp, #40]
   13a34:	e0000392 	mul	r0, r2, r3
   13a38:	ea000000 	b	13a40 <fat16_get_fs_free+0x9c>
   13a3c:	e3a00000 	mov	r0, #0	; 0x0
   13a40:	e28dd02c 	add	sp, sp, #44	; 0x2c
   13a44:	e8bd40f0 	pop	{r4, r5, r6, r7, lr}
   13a48:	e12fff1e 	bx	lr
   13a4c:	0000fffd 	.word	0x0000fffd
   13a50:	00013a58 	.word	0x00013a58
   13a54:	0000fffe 	.word	0x0000fffe

00013a58 <fat16_get_fs_free_callback>:
   13a58:	e92d4010 	push	{r4, lr}
   13a5c:	e5d24002 	ldrb	r4, [r2, #2]
   13a60:	e1a0c002 	mov	ip, r2
   13a64:	e1a01000 	mov	r1, r0
   13a68:	e3a0e000 	mov	lr, #0	; 0x0
   13a6c:	ea000007 	b	13a90 <fat16_get_fs_free_callback+0x38>
   13a70:	e7de3000 	ldrb	r3, [lr, r0]
   13a74:	e5d12001 	ldrb	r2, [r1, #1]
   13a78:	e1932402 	orrs	r2, r3, r2, lsl #8
   13a7c:	01dc30b0 	ldrheq	r3, [ip]
   13a80:	02833001 	addeq	r3, r3, #1	; 0x1
   13a84:	01cc30b0 	strheq	r3, [ip]
   13a88:	e2811002 	add	r1, r1, #2	; 0x2
   13a8c:	e28ee002 	add	lr, lr, #2	; 0x2
   13a90:	e20e30ff 	and	r3, lr, #255	; 0xff
   13a94:	e1530004 	cmp	r3, r4
   13a98:	3afffff4 	bcc	13a70 <fat16_get_fs_free_callback+0x18>
   13a9c:	e3a00001 	mov	r0, #1	; 0x1
   13aa0:	e8bd4010 	pop	{r4, lr}
   13aa4:	e12fff1e 	bx	lr

00013aa8 <fat16_file_size>:
   13aa8:	e5900028 	ldr	r0, [r0, #40]
   13aac:	e12fff1e 	bx	lr

00013ab0 <fat16_read_dir>:
   13ab0:	e92d4ff0 	push	{r4, r5, r6, r7, r8, r9, sl, fp, lr}
   13ab4:	e1a0a001 	mov	sl, r1
   13ab8:	e2711001 	rsbs	r1, r1, #1	; 0x1
   13abc:	33a01000 	movcc	r1, #0	; 0x0
   13ac0:	e35a0000 	cmp	sl, #0	; 0x0
   13ac4:	13500000 	cmpne	r0, #0	; 0x0
   13ac8:	e24dd038 	sub	sp, sp, #56	; 0x38
   13acc:	e1a08000 	mov	r8, r0
   13ad0:	0a000076 	beq	13cb0 <fat16_read_dir+0x200>
   13ad4:	e1d032b6 	ldrh	r3, [r0, #38]
   13ad8:	e3530000 	cmp	r3, #0	; 0x0
   13adc:	e1d093b0 	ldrh	r9, [r0, #48]
   13ae0:	e5906000 	ldr	r6, [r0]
   13ae4:	1a00002c 	bne	13b9c <fat16_read_dir+0xec>
   13ae8:	e3560000 	cmp	r6, #0	; 0x0
   13aec:	11a07001 	movne	r7, r1
   13af0:	03817001 	orreq	r7, r1, #1	; 0x1
   13af4:	e3570000 	cmp	r7, #0	; 0x0
   13af8:	1a00006a 	bne	13ca8 <fat16_read_dir+0x1f8>
   13afc:	e5963000 	ldr	r3, [r6]
   13b00:	e28d502c 	add	r5, sp, #44	; 0x2c
   13b04:	e2864004 	add	r4, r6, #4	; 0x4
   13b08:	e1a01007 	mov	r1, r7
   13b0c:	e3a0200c 	mov	r2, #12	; 0xc
   13b10:	e1a00005 	mov	r0, r5
   13b14:	e5936004 	ldr	r6, [r3, #4]
   13b18:	eb0010f0 	bl	17ee0 <memset>
   13b1c:	e2840010 	add	r0, r4, #16	; 0x10
   13b20:	e8900009 	ldm	r0, {r0, r3}
   13b24:	e59f2194 	ldr	r2, [pc, #404]	; 13cc0 <fat16_read_dir+0x210>
   13b28:	e0603003 	rsb	r3, r0, r3
   13b2c:	e1a03803 	lsl	r3, r3, #16
   13b30:	e28d400c 	add	r4, sp, #12	; 0xc
   13b34:	e58d2000 	str	r2, [sp]
   13b38:	e1cd92be 	strh	r9, [sp, #46]
   13b3c:	e58d5004 	str	r5, [sp, #4]
   13b40:	e1a03823 	lsr	r3, r3, #16
   13b44:	e1a01004 	mov	r1, r4
   13b48:	e3a02020 	mov	r2, #32	; 0x20
   13b4c:	e1a0e00f 	mov	lr, pc
   13b50:	e12fff16 	bx	r6
   13b54:	e3500000 	cmp	r0, #0	; 0x0
   13b58:	0a000052 	beq	13ca8 <fat16_read_dir+0x1f8>
   13b5c:	e59d3030 	ldr	r3, [sp, #48]
   13b60:	e3530000 	cmp	r3, #0	; 0x0
   13b64:	0a00004f 	beq	13ca8 <fat16_read_dir+0x1f8>
   13b68:	e1a01007 	mov	r1, r7
   13b6c:	e3a0202c 	mov	r2, #44	; 0x2c
   13b70:	e1a0000a 	mov	r0, sl
   13b74:	eb0010d9 	bl	17ee0 <memset>
   13b78:	e59f2144 	ldr	r2, [pc, #324]	; 13cc4 <fat16_read_dir+0x214>
   13b7c:	e5dd3034 	ldrb	r3, [sp, #52]
   13b80:	e88d0404 	stm	sp, {r2, sl}
   13b84:	e1a01004 	mov	r1, r4
   13b88:	e59d0030 	ldr	r0, [sp, #48]
   13b8c:	e3a02020 	mov	r2, #32	; 0x20
   13b90:	e1a0e00f 	mov	lr, pc
   13b94:	e12fff16 	bx	r6
   13b98:	ea000039 	b	13c84 <fat16_read_dir+0x1d4>
   13b9c:	e3560000 	cmp	r6, #0	; 0x0
   13ba0:	e58d9008 	str	r9, [sp, #8]
   13ba4:	0a00003f 	beq	13ca8 <fat16_read_dir+0x1f8>
   13ba8:	e3510000 	cmp	r1, #0	; 0x0
   13bac:	1a00003d 	bne	13ca8 <fat16_read_dir+0x1f8>
   13bb0:	e2800004 	add	r0, r0, #4	; 0x4
   13bb4:	e5d03020 	ldrb	r3, [r0, #32]
   13bb8:	e3130010 	tst	r3, #16	; 0x10
   13bbc:	0a000039 	beq	13ca8 <fat16_read_dir+0x1f8>
   13bc0:	e1d072b2 	ldrh	r7, [r0, #34]
   13bc4:	e1d691b2 	ldrh	r9, [r6, #18]
   13bc8:	e5962018 	ldr	r2, [r6, #24]
   13bcc:	e2473002 	sub	r3, r7, #2	; 0x2
   13bd0:	e0252399 	mla	r5, r9, r3, r2
   13bd4:	e28d402c 	add	r4, sp, #44	; 0x2c
   13bd8:	e3a01000 	mov	r1, #0	; 0x0
   13bdc:	e3a0200c 	mov	r2, #12	; 0xc
   13be0:	e1a00004 	mov	r0, r4
   13be4:	eb0010bd 	bl	17ee0 <memset>
   13be8:	e59d3008 	ldr	r3, [sp, #8]
   13bec:	e1cd32be 	strh	r3, [sp, #46]
   13bf0:	e59f30c8 	ldr	r3, [pc, #200]	; 13cc0 <fat16_read_dir+0x210>
   13bf4:	e28db00c 	add	fp, sp, #12	; 0xc
   13bf8:	e596c000 	ldr	ip, [r6]
   13bfc:	e1a0100b 	mov	r1, fp
   13c00:	e58d3000 	str	r3, [sp]
   13c04:	e1a00005 	mov	r0, r5
   13c08:	e58d4004 	str	r4, [sp, #4]
   13c0c:	e3a02020 	mov	r2, #32	; 0x20
   13c10:	e1a03009 	mov	r3, r9
   13c14:	e59cc004 	ldr	ip, [ip, #4]
   13c18:	e1a0e00f 	mov	lr, pc
   13c1c:	e12fff1c 	bx	ip
   13c20:	e3500000 	cmp	r0, #0	; 0x0
   13c24:	e1a01007 	mov	r1, r7
   13c28:	e1a00006 	mov	r0, r6
   13c2c:	0a00001d 	beq	13ca8 <fat16_read_dir+0x1f8>
   13c30:	e59d3030 	ldr	r3, [sp, #48]
   13c34:	e3530000 	cmp	r3, #0	; 0x0
   13c38:	1a000003 	bne	13c4c <fat16_read_dir+0x19c>
   13c3c:	ebfffdfa 	bl	1342c <fat16_get_next_cluster>
   13c40:	e2507000 	subs	r7, r0, #0	; 0x0
   13c44:	0a000017 	beq	13ca8 <fat16_read_dir+0x1f8>
   13c48:	eaffffde 	b	13bc8 <fat16_read_dir+0x118>
   13c4c:	e3a01000 	mov	r1, #0	; 0x0
   13c50:	e3a0202c 	mov	r2, #44	; 0x2c
   13c54:	e1a0000a 	mov	r0, sl
   13c58:	eb0010a0 	bl	17ee0 <memset>
   13c5c:	e59f2060 	ldr	r2, [pc, #96]	; 13cc4 <fat16_read_dir+0x214>
   13c60:	e596c000 	ldr	ip, [r6]
   13c64:	e5dd3034 	ldrb	r3, [sp, #52]
   13c68:	e88d0404 	stm	sp, {r2, sl}
   13c6c:	e1a0100b 	mov	r1, fp
   13c70:	e59d0030 	ldr	r0, [sp, #48]
   13c74:	e3a02020 	mov	r2, #32	; 0x20
   13c78:	e59cc004 	ldr	ip, [ip, #4]
   13c7c:	e1a0e00f 	mov	lr, pc
   13c80:	e12fff1c 	bx	ip
   13c84:	e3500000 	cmp	r0, #0	; 0x0
   13c88:	0a000006 	beq	13ca8 <fat16_read_dir+0x1f8>
   13c8c:	e5da3000 	ldrb	r3, [sl]
   13c90:	e3530000 	cmp	r3, #0	; 0x0
   13c94:	11d833b0 	ldrhne	r3, [r8, #48]
   13c98:	13a00001 	movne	r0, #1	; 0x1
   13c9c:	12833001 	addne	r3, r3, #1	; 0x1
   13ca0:	11c833b0 	strhne	r3, [r8, #48]
   13ca4:	1a000002 	bne	13cb4 <fat16_read_dir+0x204>
   13ca8:	e3a03000 	mov	r3, #0	; 0x0
   13cac:	e1c833b0 	strh	r3, [r8, #48]
   13cb0:	e3a00000 	mov	r0, #0	; 0x0
   13cb4:	e28dd038 	add	sp, sp, #56	; 0x38
   13cb8:	e8bd4ff0 	pop	{r4, r5, r6, r7, r8, r9, sl, fp, lr}
   13cbc:	e12fff1e 	bx	lr
   13cc0:	0001320c 	.word	0x0001320c
   13cc4:	0001327c 	.word	0x0001327c

00013cc8 <find_file_in_dir>:
   13cc8:	e92d4070 	push	{r4, r5, r6, lr}
   13ccc:	e1a04001 	mov	r4, r1
   13cd0:	e1a06002 	mov	r6, r2
   13cd4:	e1a05003 	mov	r5, r3
   13cd8:	ea000007 	b	13cfc <find_file_in_dir+0x34>
   13cdc:	eb001102 	bl	180ec <strcmp>
   13ce0:	e3500000 	cmp	r0, #0	; 0x0
   13ce4:	1a000004 	bne	13cfc <find_file_in_dir+0x34>
   13ce8:	e3540000 	cmp	r4, #0	; 0x0
   13cec:	03a03001 	moveq	r3, #1	; 0x1
   13cf0:	13a03001 	movne	r3, #1	; 0x1
   13cf4:	11c403b0 	strhne	r0, [r4, #48]
   13cf8:	ea000006 	b	13d18 <find_file_in_dir+0x50>
   13cfc:	e1a01005 	mov	r1, r5
   13d00:	e1a00004 	mov	r0, r4
   13d04:	ebffff69 	bl	13ab0 <fat16_read_dir>
   13d08:	e2503000 	subs	r3, r0, #0	; 0x0
   13d0c:	e1a01006 	mov	r1, r6
   13d10:	e1a00005 	mov	r0, r5
   13d14:	1afffff0 	bne	13cdc <find_file_in_dir+0x14>
   13d18:	e1a00003 	mov	r0, r3
   13d1c:	e8bd4070 	pop	{r4, r5, r6, lr}
   13d20:	e12fff1e 	bx	lr

00013d24 <fat16_write_dir_entry>:
   13d24:	e92d47f0 	push	{r4, r5, r6, r7, r8, r9, sl, lr}
   13d28:	e3510000 	cmp	r1, #0	; 0x0
   13d2c:	13500000 	cmpne	r0, #0	; 0x0
   13d30:	e24dd020 	sub	sp, sp, #32	; 0x20
   13d34:	e1a06001 	mov	r6, r1
   13d38:	0a000098 	beq	13fa0 <fat16_write_dir_entry+0x27c>
   13d3c:	e5903000 	ldr	r3, [r0]
   13d40:	e1a00001 	mov	r0, r1
   13d44:	e5939008 	ldr	r9, [r3, #8]
   13d48:	eb001121 	bl	181d4 <strlen>
   13d4c:	e20050ff 	and	r5, r0, #255	; 0xff
   13d50:	e3a0100d 	mov	r1, #13	; 0xd
   13d54:	e285000c 	add	r0, r5, #12	; 0xc
   13d58:	eb001309 	bl	18984 <__aeabi_idiv>
   13d5c:	e3a01020 	mov	r1, #32	; 0x20
   13d60:	e1a03000 	mov	r3, r0
   13d64:	e3a0200b 	mov	r2, #11	; 0xb
   13d68:	e1a0000d 	mov	r0, sp
   13d6c:	e203a0ff 	and	sl, r3, #255	; 0xff
   13d70:	e5968028 	ldr	r8, [r6, #40]
   13d74:	eb001059 	bl	17ee0 <memset>
   13d78:	e1a00006 	mov	r0, r6
   13d7c:	e3a0102e 	mov	r1, #46	; 0x2e
   13d80:	eb0011ce 	bl	184c0 <strrchr>
   13d84:	e3500000 	cmp	r0, #0	; 0x0
   13d88:	e1a0700d 	mov	r7, sp
   13d8c:	0a00000b 	beq	13dc0 <fat16_write_dir_entry+0x9c>
   13d90:	e2804001 	add	r4, r0, #1	; 0x1
   13d94:	e1a00004 	mov	r0, r4
   13d98:	eb00110d 	bl	181d4 <strlen>
   13d9c:	e20020ff 	and	r2, r0, #255	; 0xff
   13da0:	e0623005 	rsb	r3, r2, r5
   13da4:	e2433001 	sub	r3, r3, #1	; 0x1
   13da8:	e3520003 	cmp	r2, #3	; 0x3
   13dac:	23a02003 	movcs	r2, #3	; 0x3
   13db0:	e1a01004 	mov	r1, r4
   13db4:	e28d0008 	add	r0, sp, #8	; 0x8
   13db8:	e20350ff 	and	r5, r3, #255	; 0xff
   13dbc:	eb001008 	bl	17de4 <memcpy>
   13dc0:	e3550008 	cmp	r5, #8	; 0x8
   13dc4:	8a000004 	bhi	13ddc <fat16_write_dir_entry+0xb8>
   13dc8:	e1a0000d 	mov	r0, sp
   13dcc:	e1a02005 	mov	r2, r5
   13dd0:	e1a01006 	mov	r1, r6
   13dd4:	eb001002 	bl	17de4 <memcpy>
   13dd8:	ea00000e 	b	13e18 <fat16_write_dir_entry+0xf4>
   13ddc:	e3a02008 	mov	r2, #8	; 0x8
   13de0:	e1a0000d 	mov	r0, sp
   13de4:	e1a01006 	mov	r1, r6
   13de8:	eb000ffd 	bl	17de4 <memcpy>
   13dec:	e5d63022 	ldrb	r3, [r6, #34]
   13df0:	e353009f 	cmp	r3, #159	; 0x9f
   13df4:	e1a02223 	lsr	r2, r3, #4
   13df8:	e203300f 	and	r3, r3, #15	; 0xf
   13dfc:	92822030 	addls	r2, r2, #48	; 0x30
   13e00:	82822061 	addhi	r2, r2, #97	; 0x61
   13e04:	e3530009 	cmp	r3, #9	; 0x9
   13e08:	92833030 	addls	r3, r3, #48	; 0x30
   13e0c:	82833061 	addhi	r3, r3, #97	; 0x61
   13e10:	e5cd2006 	strb	r2, [sp, #6]
   13e14:	e5cd3007 	strb	r3, [sp, #7]
   13e18:	e3a01000 	mov	r1, #0	; 0x0
   13e1c:	e3a02015 	mov	r2, #21	; 0x15
   13e20:	e28d000b 	add	r0, sp, #11	; 0xb
   13e24:	eb00102d 	bl	17ee0 <memset>
   13e28:	e5d63020 	ldrb	r3, [r6, #32]
   13e2c:	e5cd300b 	strb	r3, [sp, #11]
   13e30:	e1d622b2 	ldrh	r2, [r6, #34]
   13e34:	e1a03422 	lsr	r3, r2, #8
   13e38:	e5cd201a 	strb	r2, [sp, #26]
   13e3c:	e5cd301b 	strb	r3, [sp, #27]
   13e40:	e5963024 	ldr	r3, [r6, #36]
   13e44:	e1a00c23 	lsr	r0, r3, #24
   13e48:	e1a02423 	lsr	r2, r3, #8
   13e4c:	e1a01823 	lsr	r1, r3, #16
   13e50:	e5cd201d 	strb	r2, [sp, #29]
   13e54:	e5cd101e 	strb	r1, [sp, #30]
   13e58:	e5cd001f 	strb	r0, [sp, #31]
   13e5c:	e5cd301c 	strb	r3, [sp, #28]
   13e60:	e088028a 	add	r0, r8, sl, lsl #5
   13e64:	e1a0100d 	mov	r1, sp
   13e68:	e3a02020 	mov	r2, #32	; 0x20
   13e6c:	e1a0e00f 	mov	lr, pc
   13e70:	e12fff19 	bx	r9
   13e74:	e3500000 	cmp	r0, #0	; 0x0
   13e78:	e1a0400d 	mov	r4, sp
   13e7c:	0a000047 	beq	13fa0 <fat16_write_dir_entry+0x27c>
   13e80:	e5dd7000 	ldrb	r7, [sp]
   13e84:	e1a0100d 	mov	r1, sp
   13e88:	e5f12001 	ldrb	r2, [r1, #1]!
   13e8c:	e1a03387 	lsl	r3, r7, #7
   13e90:	e18330a7 	orr	r3, r3, r7, lsr #1
   13e94:	e0833002 	add	r3, r3, r2
   13e98:	e28d200a 	add	r2, sp, #10	; 0xa
   13e9c:	e1510002 	cmp	r1, r2
   13ea0:	e20370ff 	and	r7, r3, #255	; 0xff
   13ea4:	1afffff7 	bne	13e88 <fat16_write_dir_entry+0x164>
   13ea8:	e1a0500a 	mov	r5, sl
   13eac:	ea000037 	b	13f90 <fat16_write_dir_entry+0x26c>
   13eb0:	e3a01000 	mov	r1, #0	; 0x0
   13eb4:	e3a02020 	mov	r2, #32	; 0x20
   13eb8:	e1a0000d 	mov	r0, sp
   13ebc:	eb001007 	bl	17ee0 <memset>
   13ec0:	e3a010ff 	mov	r1, #255	; 0xff
   13ec4:	e3a0200a 	mov	r2, #10	; 0xa
   13ec8:	e28d0001 	add	r0, sp, #1	; 0x1
   13ecc:	eb001003 	bl	17ee0 <memset>
   13ed0:	e3a010ff 	mov	r1, #255	; 0xff
   13ed4:	e3a0200c 	mov	r2, #12	; 0xc
   13ed8:	e28d000e 	add	r0, sp, #14	; 0xe
   13edc:	eb000fff 	bl	17ee0 <memset>
   13ee0:	e28d001c 	add	r0, sp, #28	; 0x1c
   13ee4:	e3a010ff 	mov	r1, #255	; 0xff
   13ee8:	e3a02004 	mov	r2, #4	; 0x4
   13eec:	eb000ffb 	bl	17ee0 <memset>
   13ef0:	e155000a 	cmp	r5, sl
   13ef4:	03853040 	orreq	r3, r5, #64	; 0x40
   13ef8:	e5cd5000 	strb	r5, [sp]
   13efc:	05cd3000 	strbeq	r3, [sp]
   13f00:	e3a0300d 	mov	r3, #13	; 0xd
   13f04:	e02e6395 	mla	lr, r5, r3, r6
   13f08:	e3a0c001 	mov	ip, #1	; 0x1
   13f0c:	e28c3001 	add	r3, ip, #1	; 0x1
   13f10:	e20330ff 	and	r3, r3, #255	; 0xff
   13f14:	e2832001 	add	r2, r3, #1	; 0x1
   13f18:	e28d4020 	add	r4, sp, #32	; 0x20
   13f1c:	e55e000d 	ldrb	r0, [lr, #-13]
   13f20:	e084100c 	add	r1, r4, ip
   13f24:	e202c0ff 	and	ip, r2, #255	; 0xff
   13f28:	e35c000b 	cmp	ip, #11	; 0xb
   13f2c:	e0842003 	add	r2, r4, r3
   13f30:	e3a03000 	mov	r3, #0	; 0x0
   13f34:	e5410020 	strb	r0, [r1, #-32]
   13f38:	03a0c00e 	moveq	ip, #14	; 0xe
   13f3c:	e5423020 	strb	r3, [r2, #-32]
   13f40:	0a000001 	beq	13f4c <fat16_write_dir_entry+0x228>
   13f44:	e35c001a 	cmp	ip, #26	; 0x1a
   13f48:	028cc002 	addeq	ip, ip, #2	; 0x2
   13f4c:	e55e300d 	ldrb	r3, [lr, #-13]
   13f50:	e3530000 	cmp	r3, #0	; 0x0
   13f54:	e28ee001 	add	lr, lr, #1	; 0x1
   13f58:	0a000001 	beq	13f64 <fat16_write_dir_entry+0x240>
   13f5c:	e35c001e 	cmp	ip, #30	; 0x1e
   13f60:	9affffe9 	bls	13f0c <fat16_write_dir_entry+0x1e8>
   13f64:	e3a0300f 	mov	r3, #15	; 0xf
   13f68:	e5cd300b 	strb	r3, [sp, #11]
   13f6c:	e1a00008 	mov	r0, r8
   13f70:	e5cd700d 	strb	r7, [sp, #13]
   13f74:	e1a0100d 	mov	r1, sp
   13f78:	e3a02020 	mov	r2, #32	; 0x20
   13f7c:	e1a0e00f 	mov	lr, pc
   13f80:	e12fff19 	bx	r9
   13f84:	e2453001 	sub	r3, r5, #1	; 0x1
   13f88:	e2888020 	add	r8, r8, #32	; 0x20
   13f8c:	e20350ff 	and	r5, r3, #255	; 0xff
   13f90:	e3550000 	cmp	r5, #0	; 0x0
   13f94:	1affffc5 	bne	13eb0 <fat16_write_dir_entry+0x18c>
   13f98:	e3a00001 	mov	r0, #1	; 0x1
   13f9c:	ea000000 	b	13fa4 <fat16_write_dir_entry+0x280>
   13fa0:	e3a00000 	mov	r0, #0	; 0x0
   13fa4:	e28dd020 	add	sp, sp, #32	; 0x20
   13fa8:	e8bd47f0 	pop	{r4, r5, r6, r7, r8, r9, sl, lr}
   13fac:	e12fff1e 	bx	lr

00013fb0 <fat16_resize_file>:
   13fb0:	e92d47f0 	push	{r4, r5, r6, r7, r8, r9, sl, lr}
   13fb4:	e2506000 	subs	r6, r0, #0	; 0x0
   13fb8:	e24dd004 	sub	sp, sp, #4	; 0x4
   13fbc:	e1a0a001 	mov	sl, r1
   13fc0:	0a00005b 	beq	14134 <fat16_resize_file+0x184>
   13fc4:	e1d642b6 	ldrh	r4, [r6, #38]
   13fc8:	e5963000 	ldr	r3, [r6]
   13fcc:	e2719001 	rsbs	r9, r1, #1	; 0x1
   13fd0:	33a09000 	movcc	r9, #0	; 0x0
   13fd4:	e3540000 	cmp	r4, #0	; 0x0
   13fd8:	03510000 	cmpeq	r1, #0	; 0x0
   13fdc:	e1d381b2 	ldrh	r8, [r3, #18]
   13fe0:	11a07001 	movne	r7, r1
   13fe4:	1a000006 	bne	14004 <fat16_resize_file+0x54>
   13fe8:	ea000049 	b	14114 <fat16_resize_file+0x164>
   13fec:	e5960000 	ldr	r0, [r6]
   13ff0:	ebfffd0d 	bl	1342c <fat16_get_next_cluster>
   13ff4:	e3500000 	cmp	r0, #0	; 0x0
   13ff8:	0a00004f 	beq	1413c <fat16_resize_file+0x18c>
   13ffc:	e0687007 	rsb	r7, r8, r7
   14000:	e1a04000 	mov	r4, r0
   14004:	e1570008 	cmp	r7, r8
   14008:	e1a01004 	mov	r1, r4
   1400c:	8afffff6 	bhi	13fec <fat16_resize_file+0x3c>
   14010:	e2745001 	rsbs	r5, r4, #1	; 0x1
   14014:	33a05000 	movcc	r5, #0	; 0x0
   14018:	e3550000 	cmp	r5, #0	; 0x0
   1401c:	0a000011 	beq	14068 <fat16_resize_file+0xb8>
   14020:	e1a01008 	mov	r1, r8
   14024:	e1a00007 	mov	r0, r7
   14028:	eb001211 	bl	18874 <__aeabi_uidiv>
   1402c:	e1a00800 	lsl	r0, r0, #16
   14030:	e1a02820 	lsr	r2, r0, #16
   14034:	e0030298 	mul	r3, r8, r2
   14038:	e1530007 	cmp	r3, r7
   1403c:	32823001 	addcc	r3, r2, #1	; 0x1
   14040:	31a03803 	lslcc	r3, r3, #16
   14044:	31a02823 	lsrcc	r2, r3, #16
   14048:	e5960000 	ldr	r0, [r6]
   1404c:	e1a01004 	mov	r1, r4
   14050:	ebfffd55 	bl	135ac <fat16_append_clusters>
   14054:	e3500000 	cmp	r0, #0	; 0x0
   14058:	0a000035 	beq	14134 <fat16_resize_file+0x184>
   1405c:	e3550000 	cmp	r5, #0	; 0x0
   14060:	11c602b6 	strhne	r0, [r6, #38]
   14064:	11a04000 	movne	r4, r0
   14068:	e3590000 	cmp	r9, #0	; 0x0
   1406c:	13a03000 	movne	r3, #0	; 0x0
   14070:	11c632b6 	strhne	r3, [r6, #38]
   14074:	e586a028 	str	sl, [r6, #40]
   14078:	e5960000 	ldr	r0, [r6]
   1407c:	e2861004 	add	r1, r6, #4	; 0x4
   14080:	ebffff27 	bl	13d24 <fat16_write_dir_entry>
   14084:	e3500000 	cmp	r0, #0	; 0x0
   14088:	0a000029 	beq	14134 <fat16_resize_file+0x184>
   1408c:	e3590000 	cmp	r9, #0	; 0x0
   14090:	11a01004 	movne	r1, r4
   14094:	15960000 	ldrne	r0, [r6]
   14098:	1a00001c 	bne	14110 <fat16_resize_file+0x160>
   1409c:	e1570008 	cmp	r7, r8
   140a0:	8a00001b 	bhi	14114 <fat16_resize_file+0x164>
   140a4:	e1a03804 	lsl	r3, r4, #16
   140a8:	e5965000 	ldr	r5, [r6]
   140ac:	e1a04823 	lsr	r4, r3, #16
   140b0:	e3550000 	cmp	r5, #0	; 0x0
   140b4:	13540001 	cmpne	r4, #1	; 0x1
   140b8:	9a000015 	bls	14114 <fat16_resize_file+0x164>
   140bc:	e1a01004 	mov	r1, r4
   140c0:	e1a00005 	mov	r0, r5
   140c4:	ebfffcd8 	bl	1342c <fat16_get_next_cluster>
   140c8:	e3e03000 	mvn	r3, #0	; 0x0
   140cc:	e5cd3003 	strb	r3, [sp, #3]
   140d0:	e5cd3002 	strb	r3, [sp, #2]
   140d4:	e1a07000 	mov	r7, r0
   140d8:	e5950008 	ldr	r0, [r5, #8]
   140dc:	e5953000 	ldr	r3, [r5]
   140e0:	e0800084 	add	r0, r0, r4, lsl #1
   140e4:	e28d1002 	add	r1, sp, #2	; 0x2
   140e8:	e3a02002 	mov	r2, #2	; 0x2
   140ec:	e593c008 	ldr	ip, [r3, #8]
   140f0:	e1a0e00f 	mov	lr, pc
   140f4:	e12fff1c 	bx	ip
   140f8:	e3500000 	cmp	r0, #0	; 0x0
   140fc:	0a000004 	beq	14114 <fat16_resize_file+0x164>
   14100:	e3570000 	cmp	r7, #0	; 0x0
   14104:	0a000002 	beq	14114 <fat16_resize_file+0x164>
   14108:	e1a00005 	mov	r0, r5
   1410c:	e1a01007 	mov	r1, r7
   14110:	ebfffcef 	bl	134d4 <fat16_free_clusters>
   14114:	e5963030 	ldr	r3, [r6, #48]
   14118:	e15a0003 	cmp	sl, r3
   1411c:	33a03000 	movcc	r3, #0	; 0x0
   14120:	23a00001 	movcs	r0, #1	; 0x1
   14124:	33a00001 	movcc	r0, #1	; 0x1
   14128:	3586a030 	strcc	sl, [r6, #48]
   1412c:	31c633b4 	strhcc	r3, [r6, #52]
   14130:	ea000004 	b	14148 <fat16_resize_file+0x198>
   14134:	e3a00000 	mov	r0, #0	; 0x0
   14138:	ea000002 	b	14148 <fat16_resize_file+0x198>
   1413c:	e2745001 	rsbs	r5, r4, #1	; 0x1
   14140:	33a05000 	movcc	r5, #0	; 0x0
   14144:	eaffffb5 	b	14020 <fat16_resize_file+0x70>
   14148:	e28dd004 	add	sp, sp, #4	; 0x4
   1414c:	e8bd47f0 	pop	{r4, r5, r6, r7, r8, r9, sl, lr}
   14150:	e12fff1e 	bx	lr

00014154 <fat16_seek_file>:
   14154:	e3510000 	cmp	r1, #0	; 0x0
   14158:	13500000 	cmpne	r0, #0	; 0x0
   1415c:	e92d4070 	push	{r4, r5, r6, lr}
   14160:	e20220ff 	and	r2, r2, #255	; 0xff
   14164:	e1a05000 	mov	r5, r0
   14168:	e1a06001 	mov	r6, r1
   1416c:	0a00001b 	beq	141e0 <fat16_seek_file+0x8c>
   14170:	e3520001 	cmp	r2, #1	; 0x1
   14174:	e5901030 	ldr	r1, [r0, #48]
   14178:	0a000004 	beq	14190 <fat16_seek_file+0x3c>
   1417c:	35964000 	ldrcc	r4, [r6]
   14180:	3a000008 	bcc	141a8 <fat16_seek_file+0x54>
   14184:	e3520002 	cmp	r2, #2	; 0x2
   14188:	1a000014 	bne	141e0 <fat16_seek_file+0x8c>
   1418c:	ea000002 	b	1419c <fat16_seek_file+0x48>
   14190:	e5963000 	ldr	r3, [r6]
   14194:	e0814003 	add	r4, r1, r3
   14198:	ea000002 	b	141a8 <fat16_seek_file+0x54>
   1419c:	e5902028 	ldr	r2, [r0, #40]
   141a0:	e5963000 	ldr	r3, [r6]
   141a4:	e0824003 	add	r4, r2, r3
   141a8:	e5953028 	ldr	r3, [r5, #40]
   141ac:	e1540003 	cmp	r4, r3
   141b0:	9a000004 	bls	141c8 <fat16_seek_file+0x74>
   141b4:	e1a00005 	mov	r0, r5
   141b8:	e1a01004 	mov	r1, r4
   141bc:	ebffff7b 	bl	13fb0 <fat16_resize_file>
   141c0:	e3500000 	cmp	r0, #0	; 0x0
   141c4:	0a000005 	beq	141e0 <fat16_seek_file+0x8c>
   141c8:	e3a03000 	mov	r3, #0	; 0x0
   141cc:	e3a00001 	mov	r0, #1	; 0x1
   141d0:	e5854030 	str	r4, [r5, #48]
   141d4:	e1c533b4 	strh	r3, [r5, #52]
   141d8:	e5864000 	str	r4, [r6]
   141dc:	ea000000 	b	141e4 <fat16_seek_file+0x90>
   141e0:	e3a00000 	mov	r0, #0	; 0x0
   141e4:	e8bd4070 	pop	{r4, r5, r6, lr}
   141e8:	e12fff1e 	bx	lr

000141ec <fat16_write_file>:
   141ec:	e92d4ff0 	push	{r4, r5, r6, r7, r8, r9, sl, fp, lr}
   141f0:	e1a02802 	lsl	r2, r2, #16
   141f4:	e24dd004 	sub	sp, sp, #4	; 0x4
   141f8:	e1a02822 	lsr	r2, r2, #16
   141fc:	e3510000 	cmp	r1, #0	; 0x0
   14200:	13500000 	cmpne	r0, #0	; 0x0
   14204:	e1a04000 	mov	r4, r0
   14208:	e1a0b001 	mov	fp, r1
   1420c:	e58d2000 	str	r2, [sp]
   14210:	0a000077 	beq	143f4 <fat16_write_file+0x208>
   14214:	e3520000 	cmp	r2, #0	; 0x0
   14218:	0a000075 	beq	143f4 <fat16_write_file+0x208>
   1421c:	e590a030 	ldr	sl, [r0, #48]
   14220:	e5903028 	ldr	r3, [r0, #40]
   14224:	e15a0003 	cmp	sl, r3
   14228:	8a000071 	bhi	143f4 <fat16_write_file+0x208>
   1422c:	e1d053b4 	ldrh	r5, [r0, #52]
   14230:	e5900000 	ldr	r0, [r0]
   14234:	e3550000 	cmp	r5, #0	; 0x0
   14238:	e1d081b2 	ldrh	r8, [r0, #18]
   1423c:	1a000020 	bne	142c4 <fat16_write_file+0xd8>
   14240:	e1d452b6 	ldrh	r5, [r4, #38]
   14244:	e3550000 	cmp	r5, #0	; 0x0
   14248:	1a000008 	bne	14270 <fat16_write_file+0x84>
   1424c:	e35a0000 	cmp	sl, #0	; 0x0
   14250:	1a000067 	bne	143f4 <fat16_write_file+0x208>
   14254:	e1a01005 	mov	r1, r5
   14258:	e3a02001 	mov	r2, #1	; 0x1
   1425c:	ebfffcd2 	bl	135ac <fat16_append_clusters>
   14260:	e3500000 	cmp	r0, #0	; 0x0
   14264:	e1a05000 	mov	r5, r0
   14268:	e1c402b6 	strh	r0, [r4, #38]
   1426c:	0a000060 	beq	143f4 <fat16_write_file+0x208>
   14270:	e5946030 	ldr	r6, [r4, #48]
   14274:	e3560000 	cmp	r6, #0	; 0x0
   14278:	12689000 	rsbne	r9, r8, #0	; 0x0
   1427c:	10687006 	rsbne	r7, r8, r6
   14280:	1a00000c 	bne	142b8 <fat16_write_file+0xcc>
   14284:	ea00000e 	b	142c4 <fat16_write_file+0xd8>
   14288:	e5940000 	ldr	r0, [r4]
   1428c:	ebfffc66 	bl	1342c <fat16_get_next_cluster>
   14290:	e3500000 	cmp	r0, #0	; 0x0
   14294:	03570000 	cmpeq	r7, #0	; 0x0
   14298:	e0866009 	add	r6, r6, r9
   1429c:	e0877009 	add	r7, r7, r9
   142a0:	e1a01005 	mov	r1, r5
   142a4:	e3a02001 	mov	r2, #1	; 0x1
   142a8:	05940000 	ldreq	r0, [r4]
   142ac:	0bfffcbe 	bleq	135ac <fat16_append_clusters>
   142b0:	e2505000 	subs	r5, r0, #0	; 0x0
   142b4:	0a00004e 	beq	143f4 <fat16_write_file+0x208>
   142b8:	e1560008 	cmp	r6, r8
   142bc:	e1a01005 	mov	r1, r5
   142c0:	2afffff0 	bcs	14288 <fat16_write_file+0x9c>
   142c4:	e1a0000a 	mov	r0, sl
   142c8:	e1a01008 	mov	r1, r8
   142cc:	eb0011fc 	bl	18ac4 <__umodsi3>
   142d0:	e59d7000 	ldr	r7, [sp]
   142d4:	e1a00800 	lsl	r0, r0, #16
   142d8:	e1a0a820 	lsr	sl, r0, #16
   142dc:	e594c000 	ldr	ip, [r4]
   142e0:	e06a3008 	rsb	r3, sl, r8
   142e4:	e59c2018 	ldr	r2, [ip, #24]
   142e8:	e1a03803 	lsl	r3, r3, #16
   142ec:	e1a03823 	lsr	r3, r3, #16
   142f0:	e1570003 	cmp	r7, r3
   142f4:	31a06007 	movcc	r6, r7
   142f8:	21a06003 	movcs	r6, r3
   142fc:	e08a2002 	add	r2, sl, r2
   14300:	e2453002 	sub	r3, r5, #2	; 0x2
   14304:	e0202398 	mla	r0, r8, r3, r2
   14308:	e1a0100b 	mov	r1, fp
   1430c:	e1a02006 	mov	r2, r6
   14310:	e59c3000 	ldr	r3, [ip]
   14314:	e593c008 	ldr	ip, [r3, #8]
   14318:	e1a0e00f 	mov	lr, pc
   1431c:	e12fff1c 	bx	ip
   14320:	e0663007 	rsb	r3, r6, r7
   14324:	e3500000 	cmp	r0, #0	; 0x0
   14328:	e1a01005 	mov	r1, r5
   1432c:	e08bb006 	add	fp, fp, r6
   14330:	e08a2006 	add	r2, sl, r6
   14334:	e1a00803 	lsl	r0, r3, #16
   14338:	0a000018 	beq	143a0 <fat16_write_file+0x1b4>
   1433c:	e5943030 	ldr	r3, [r4, #48]
   14340:	e1520008 	cmp	r2, r8
   14344:	e0833006 	add	r3, r3, r6
   14348:	e5843030 	str	r3, [r4, #48]
   1434c:	e1a07820 	lsr	r7, r0, #16
   14350:	ba00000f 	blt	14394 <fat16_write_file+0x1a8>
   14354:	e5940000 	ldr	r0, [r4]
   14358:	ebfffc33 	bl	1342c <fat16_get_next_cluster>
   1435c:	e3a0a000 	mov	sl, #0	; 0x0
   14360:	e150000a 	cmp	r0, sl
   14364:	13a03000 	movne	r3, #0	; 0x0
   14368:	03a03001 	moveq	r3, #1	; 0x1
   1436c:	e157000a 	cmp	r7, sl
   14370:	03a03000 	moveq	r3, #0	; 0x0
   14374:	e153000a 	cmp	r3, sl
   14378:	e1a01005 	mov	r1, r5
   1437c:	e3a02001 	mov	r2, #1	; 0x1
   14380:	15940000 	ldrne	r0, [r4]
   14384:	1bfffc88 	blne	135ac <fat16_append_clusters>
   14388:	e3500000 	cmp	r0, #0	; 0x0
   1438c:	e1a05000 	mov	r5, r0
   14390:	0a000015 	beq	143ec <fat16_write_file+0x200>
   14394:	e3570000 	cmp	r7, #0	; 0x0
   14398:	e1c453b4 	strh	r5, [r4, #52]
   1439c:	1affffce 	bne	142dc <fat16_write_file+0xf0>
   143a0:	e5943030 	ldr	r3, [r4, #48]
   143a4:	e5945028 	ldr	r5, [r4, #40]
   143a8:	e1530005 	cmp	r3, r5
   143ac:	9a000009 	bls	143d8 <fat16_write_file+0x1ec>
   143b0:	e5843028 	str	r3, [r4, #40]
   143b4:	e5940000 	ldr	r0, [r4]
   143b8:	e2841004 	add	r1, r4, #4	; 0x4
   143bc:	ebfffe58 	bl	13d24 <fat16_write_dir_entry>
   143c0:	e3500000 	cmp	r0, #0	; 0x0
   143c4:	05943030 	ldreq	r3, [r4, #48]
   143c8:	00653003 	rsbeq	r3, r5, r3
   143cc:	01a03803 	lsleq	r3, r3, #16
   143d0:	05845030 	streq	r5, [r4, #48]
   143d4:	01a07823 	lsreq	r7, r3, #16
   143d8:	e59d2000 	ldr	r2, [sp]
   143dc:	e0673002 	rsb	r3, r7, r2
   143e0:	e1a03803 	lsl	r3, r3, #16
   143e4:	e1a00843 	asr	r0, r3, #16
   143e8:	ea000002 	b	143f8 <fat16_write_file+0x20c>
   143ec:	e1c403b4 	strh	r0, [r4, #52]
   143f0:	eaffffea 	b	143a0 <fat16_write_file+0x1b4>
   143f4:	e3e00000 	mvn	r0, #0	; 0x0
   143f8:	e28dd004 	add	sp, sp, #4	; 0x4
   143fc:	e8bd4ff0 	pop	{r4, r5, r6, r7, r8, r9, sl, fp, lr}
   14400:	e12fff1e 	bx	lr

00014404 <fat16_close_dir>:
   14404:	e3500000 	cmp	r0, #0	; 0x0
   14408:	e52de004 	push	{lr}		; (str lr, [sp, #-4]!)
   1440c:	1b000c9d 	blne	17688 <free>
   14410:	e49de004 	pop	{lr}		; (ldr lr, [sp], #4)
   14414:	e12fff1e 	bx	lr

00014418 <fat16_close_file>:
   14418:	e3500000 	cmp	r0, #0	; 0x0
   1441c:	e52de004 	push	{lr}		; (str lr, [sp, #-4]!)
   14420:	1b000c98 	blne	17688 <free>
   14424:	e49de004 	pop	{lr}		; (ldr lr, [sp], #4)
   14428:	e12fff1e 	bx	lr

0001442c <fat16_close>:
   1442c:	e3500000 	cmp	r0, #0	; 0x0
   14430:	e52de004 	push	{lr}		; (str lr, [sp, #-4]!)
   14434:	1b000c93 	blne	17688 <free>
   14438:	e49de004 	pop	{lr}		; (ldr lr, [sp], #4)
   1443c:	e12fff1e 	bx	lr

00014440 <fat16_open_dir>:
   14440:	e3510000 	cmp	r1, #0	; 0x0
   14444:	13500000 	cmpne	r0, #0	; 0x0
   14448:	e92d41f0 	push	{r4, r5, r6, r7, r8, lr}
   1444c:	e1a07000 	mov	r7, r0
   14450:	e1a05001 	mov	r5, r1
   14454:	13a08000 	movne	r8, #0	; 0x0
   14458:	03a08001 	moveq	r8, #1	; 0x1
   1445c:	0a000013 	beq	144b0 <fat16_open_dir+0x70>
   14460:	e5d13020 	ldrb	r3, [r1, #32]
   14464:	e3130010 	tst	r3, #16	; 0x10
   14468:	e3a00034 	mov	r0, #52	; 0x34
   1446c:	0a00000f 	beq	144b0 <fat16_open_dir+0x70>
   14470:	eb000c89 	bl	1769c <malloc>
   14474:	e3500000 	cmp	r0, #0	; 0x0
   14478:	e1a06000 	mov	r6, r0
   1447c:	e2804004 	add	r4, r0, #4	; 0x4
   14480:	0a00000a 	beq	144b0 <fat16_open_dir+0x70>
   14484:	e1a0c005 	mov	ip, r5
   14488:	e8bc000f 	ldm	ip!, {r0, r1, r2, r3}
   1448c:	e1a0e004 	mov	lr, r4
   14490:	e8ae000f 	stmia	lr!, {r0, r1, r2, r3}
   14494:	e8bc000f 	ldm	ip!, {r0, r1, r2, r3}
   14498:	e8ae000f 	stmia	lr!, {r0, r1, r2, r3}
   1449c:	e89c0007 	ldm	ip, {r0, r1, r2}
   144a0:	e5867000 	str	r7, [r6]
   144a4:	e88e0007 	stm	lr, {r0, r1, r2}
   144a8:	e1c683b0 	strh	r8, [r6, #48]
   144ac:	ea000000 	b	144b4 <fat16_open_dir+0x74>
   144b0:	e3a06000 	mov	r6, #0	; 0x0
   144b4:	e1a00006 	mov	r0, r6
   144b8:	e8bd41f0 	pop	{r4, r5, r6, r7, r8, lr}
   144bc:	e12fff1e 	bx	lr

000144c0 <fat16_open_file>:
   144c0:	e3510000 	cmp	r1, #0	; 0x0
   144c4:	13500000 	cmpne	r0, #0	; 0x0
   144c8:	e92d41f0 	push	{r4, r5, r6, r7, r8, lr}
   144cc:	e1a05001 	mov	r5, r1
   144d0:	e1a07000 	mov	r7, r0
   144d4:	0a000015 	beq	14530 <fat16_open_file+0x70>
   144d8:	e5d13020 	ldrb	r3, [r1, #32]
   144dc:	e2138010 	ands	r8, r3, #16	; 0x10
   144e0:	e3a00038 	mov	r0, #56	; 0x38
   144e4:	1a000011 	bne	14530 <fat16_open_file+0x70>
   144e8:	eb000c6b 	bl	1769c <malloc>
   144ec:	e3500000 	cmp	r0, #0	; 0x0
   144f0:	e1a06000 	mov	r6, r0
   144f4:	e2804004 	add	r4, r0, #4	; 0x4
   144f8:	0a00000c 	beq	14530 <fat16_open_file+0x70>
   144fc:	e1a0c005 	mov	ip, r5
   14500:	e8bc000f 	ldm	ip!, {r0, r1, r2, r3}
   14504:	e1a0e004 	mov	lr, r4
   14508:	e8ae000f 	stmia	lr!, {r0, r1, r2, r3}
   1450c:	e8bc000f 	ldm	ip!, {r0, r1, r2, r3}
   14510:	e8ae000f 	stmia	lr!, {r0, r1, r2, r3}
   14514:	e89c0007 	ldm	ip, {r0, r1, r2}
   14518:	e88e0007 	stm	lr, {r0, r1, r2}
   1451c:	e1d552b2 	ldrh	r5, [r5, #34]
   14520:	e5867000 	str	r7, [r6]
   14524:	e5868030 	str	r8, [r6, #48]
   14528:	e1c653b4 	strh	r5, [r6, #52]
   1452c:	ea000000 	b	14534 <fat16_open_file+0x74>
   14530:	e3a06000 	mov	r6, #0	; 0x0
   14534:	e1a00006 	mov	r0, r6
   14538:	e8bd41f0 	pop	{r4, r5, r6, r7, r8, lr}
   1453c:	e12fff1e 	bx	lr

00014540 <open_file_in_dir>:
   14540:	e92d4030 	push	{r4, r5, lr}
   14544:	e24dd02c 	sub	sp, sp, #44	; 0x2c
   14548:	e1a0300d 	mov	r3, sp
   1454c:	e1a04000 	mov	r4, r0
   14550:	ebfffddc 	bl	13cc8 <find_file_in_dir>
   14554:	e3500000 	cmp	r0, #0	; 0x0
   14558:	e1a03000 	mov	r3, r0
   1455c:	e1a0500d 	mov	r5, sp
   14560:	e1a00004 	mov	r0, r4
   14564:	e1a0100d 	mov	r1, sp
   14568:	0a000001 	beq	14574 <open_file_in_dir+0x34>
   1456c:	ebffffd3 	bl	144c0 <fat16_open_file>
   14570:	e1a03000 	mov	r3, r0
   14574:	e1a00003 	mov	r0, r3
   14578:	e28dd02c 	add	sp, sp, #44	; 0x2c
   1457c:	e8bd4030 	pop	{r4, r5, lr}
   14580:	e12fff1e 	bx	lr

00014584 <fat16_get_dir_entry_of_path>:
   14584:	e3510000 	cmp	r1, #0	; 0x0
   14588:	13500000 	cmpne	r0, #0	; 0x0
   1458c:	e92d47f0 	push	{r4, r5, r6, r7, r8, r9, sl, lr}
   14590:	e1a09000 	mov	r9, r0
   14594:	e1a04001 	mov	r4, r1
   14598:	e1a05002 	mov	r5, r2
   1459c:	0a00003c 	beq	14694 <fat16_get_dir_entry_of_path+0x110>
   145a0:	e5d13000 	ldrb	r3, [r1]
   145a4:	e3520000 	cmp	r2, #0	; 0x0
   145a8:	13530000 	cmpne	r3, #0	; 0x0
   145ac:	13a01000 	movne	r1, #0	; 0x0
   145b0:	03a01001 	moveq	r1, #1	; 0x1
   145b4:	0a000036 	beq	14694 <fat16_get_dir_entry_of_path+0x110>
   145b8:	e353002f 	cmp	r3, #47	; 0x2f
   145bc:	e1a00002 	mov	r0, r2
   145c0:	e3a0202c 	mov	r2, #44	; 0x2c
   145c4:	02844001 	addeq	r4, r4, #1	; 0x1
   145c8:	eb000e44 	bl	17ee0 <memset>
   145cc:	e3a03010 	mov	r3, #16	; 0x10
   145d0:	e5c53020 	strb	r3, [r5, #32]
   145d4:	e5d43000 	ldrb	r3, [r4]
   145d8:	e3530000 	cmp	r3, #0	; 0x0
   145dc:	0a00002e 	beq	1469c <fat16_get_dir_entry_of_path+0x118>
   145e0:	e1a00009 	mov	r0, r9
   145e4:	e1a01005 	mov	r1, r5
   145e8:	ebffff94 	bl	14440 <fat16_open_dir>
   145ec:	e2507000 	subs	r7, r0, #0	; 0x0
   145f0:	0a000027 	beq	14694 <fat16_get_dir_entry_of_path+0x110>
   145f4:	e1a00004 	mov	r0, r4
   145f8:	e3a0102f 	mov	r1, #47	; 0x2f
   145fc:	eb000e6d 	bl	17fb8 <strchr>
   14600:	e2508000 	subs	r8, r0, #0	; 0x0
   14604:	1a000002 	bne	14614 <fat16_get_dir_entry_of_path+0x90>
   14608:	e1a00004 	mov	r0, r4
   1460c:	eb000ef0 	bl	181d4 <strlen>
   14610:	e0848000 	add	r8, r4, r0
   14614:	e0643008 	rsb	r3, r4, r8
   14618:	e20360ff 	and	r6, r3, #255	; 0xff
   1461c:	ea000013 	b	14670 <fat16_get_dir_entry_of_path+0xec>
   14620:	eb000eeb 	bl	181d4 <strlen>
   14624:	e1500006 	cmp	r0, r6
   14628:	e1a01005 	mov	r1, r5
   1462c:	e1a02006 	mov	r2, r6
   14630:	e1a00004 	mov	r0, r4
   14634:	1a00000d 	bne	14670 <fat16_get_dir_entry_of_path+0xec>
   14638:	eb000f0c 	bl	18270 <strncmp>
   1463c:	e250a000 	subs	sl, r0, #0	; 0x0
   14640:	1a00000a 	bne	14670 <fat16_get_dir_entry_of_path+0xec>
   14644:	e1a00007 	mov	r0, r7
   14648:	ebffff6d 	bl	14404 <fat16_close_dir>
   1464c:	e7d43006 	ldrb	r3, [r4, r6]
   14650:	e3530000 	cmp	r3, #0	; 0x0
   14654:	0a000010 	beq	1469c <fat16_get_dir_entry_of_path+0x118>
   14658:	e5d53020 	ldrb	r3, [r5, #32]
   1465c:	e3130010 	tst	r3, #16	; 0x10
   14660:	0a00000b 	beq	14694 <fat16_get_dir_entry_of_path+0x110>
   14664:	e2884001 	add	r4, r8, #1	; 0x1
   14668:	e1a0700a 	mov	r7, sl
   1466c:	ea000005 	b	14688 <fat16_get_dir_entry_of_path+0x104>
   14670:	e1a01005 	mov	r1, r5
   14674:	e1a00007 	mov	r0, r7
   14678:	ebfffd0c 	bl	13ab0 <fat16_read_dir>
   1467c:	e3500000 	cmp	r0, #0	; 0x0
   14680:	e1a00005 	mov	r0, r5
   14684:	1affffe5 	bne	14620 <fat16_get_dir_entry_of_path+0x9c>
   14688:	e1a00007 	mov	r0, r7
   1468c:	ebffff5c 	bl	14404 <fat16_close_dir>
   14690:	eaffffd2 	b	145e0 <fat16_get_dir_entry_of_path+0x5c>
   14694:	e3a00000 	mov	r0, #0	; 0x0
   14698:	ea000000 	b	146a0 <fat16_get_dir_entry_of_path+0x11c>
   1469c:	e3a00001 	mov	r0, #1	; 0x1
   146a0:	e8bd47f0 	pop	{r4, r5, r6, r7, r8, r9, sl, lr}
   146a4:	e12fff1e 	bx	lr

000146a8 <fat16_open>:
   146a8:	e92d4ff0 	push	{r4, r5, r6, r7, r8, r9, sl, fp, lr}
   146ac:	e2508000 	subs	r8, r0, #0	; 0x0
   146b0:	e24dd03c 	sub	sp, sp, #60	; 0x3c
   146b4:	0a000071 	beq	14880 <fat16_open+0x1d8>
   146b8:	e5983008 	ldr	r3, [r8, #8]
   146bc:	e3530000 	cmp	r3, #0	; 0x0
   146c0:	0a00006e 	beq	14880 <fat16_open+0x1d8>
   146c4:	e3a0001c 	mov	r0, #28	; 0x1c
   146c8:	eb000bf3 	bl	1769c <malloc>
   146cc:	e250b000 	subs	fp, r0, #0	; 0x0
   146d0:	1a000003 	bne	146e4 <fat16_open+0x3c>
   146d4:	e59f01b8 	ldr	r0, [pc, #440]	; 14894 <fat16_open+0x1ec>
   146d8:	ebfff597 	bl	11d3c <rprintf>
   146dc:	e1a0a00b 	mov	sl, fp
   146e0:	ea000067 	b	14884 <fat16_open+0x1dc>
   146e4:	e3a01000 	mov	r1, #0	; 0x0
   146e8:	e3a0201c 	mov	r2, #28	; 0x1c
   146ec:	eb000dfb 	bl	17ee0 <memset>
   146f0:	e5983010 	ldr	r3, [r8, #16]
   146f4:	e1a03483 	lsl	r3, r3, #9
   146f8:	e58d3008 	str	r3, [sp, #8]
   146fc:	e58b8000 	str	r8, [fp]
   14700:	e283000b 	add	r0, r3, #11	; 0xb
   14704:	e28d1023 	add	r1, sp, #35	; 0x23
   14708:	e3a02019 	mov	r2, #25	; 0x19
   1470c:	e598c000 	ldr	ip, [r8]
   14710:	e1a0e00f 	mov	lr, pc
   14714:	e12fff1c 	bx	ip
   14718:	e3500000 	cmp	r0, #0	; 0x0
   1471c:	e1a0a00b 	mov	sl, fp
   14720:	0a000052 	beq	14870 <fat16_open+0x1c8>
   14724:	e5dd202e 	ldrb	r2, [sp, #46]
   14728:	e5dd302f 	ldrb	r3, [sp, #47]
   1472c:	e1923403 	orrs	r3, r2, r3, lsl #8
   14730:	e5dd0023 	ldrb	r0, [sp, #35]
   14734:	e5dd2024 	ldrb	r2, [sp, #36]
   14738:	e58d3010 	str	r3, [sp, #16]
   1473c:	e5dd6026 	ldrb	r6, [sp, #38]
   14740:	e5dd3025 	ldrb	r3, [sp, #37]
   14744:	e58d001c 	str	r0, [sp, #28]
   14748:	e58d2018 	str	r2, [sp, #24]
   1474c:	e58d3004 	str	r3, [sp, #4]
   14750:	e58d6014 	str	r6, [sp, #20]
   14754:	e5dd1027 	ldrb	r1, [sp, #39]
   14758:	e5dd9028 	ldrb	r9, [sp, #40]
   1475c:	e5dd7029 	ldrb	r7, [sp, #41]
   14760:	e5dd502a 	ldrb	r5, [sp, #42]
   14764:	e5dd402b 	ldrb	r4, [sp, #43]
   14768:	e5dde02c 	ldrb	lr, [sp, #44]
   1476c:	e5ddc038 	ldrb	ip, [sp, #56]
   14770:	e5dd2039 	ldrb	r2, [sp, #57]
   14774:	e5dd303a 	ldrb	r3, [sp, #58]
   14778:	e5dd003b 	ldrb	r0, [sp, #59]
   1477c:	0a00003b 	beq	14870 <fat16_open+0x1c8>
   14780:	e1a03803 	lsl	r3, r3, #16
   14784:	e18c2402 	orr	r2, ip, r2, lsl #8
   14788:	e1833c00 	orr	r3, r3, r0, lsl #24
   1478c:	e1926003 	orrs	r6, r2, r3
   14790:	1a000002 	bne	147a0 <fat16_open+0xf8>
   14794:	e194240e 	orrs	r2, r4, lr, lsl #8
   14798:	0a000034 	beq	14870 <fat16_open+0x1c8>
   1479c:	e1a06002 	mov	r6, r2
   147a0:	e59d0010 	ldr	r0, [sp, #16]
   147a4:	e0000099 	mul	r0, r9, r0
   147a8:	e59d201c 	ldr	r2, [sp, #28]
   147ac:	e58d000c 	str	r0, [sp, #12]
   147b0:	e59d0018 	ldr	r0, [sp, #24]
   147b4:	e1873405 	orr	r3, r7, r5, lsl #8
   147b8:	e1825400 	orr	r5, r2, r0, lsl #8
   147bc:	e59d2014 	ldr	r2, [sp, #20]
   147c0:	e1a03283 	lsl	r3, r3, #5
   147c4:	e1829401 	orr	r9, r2, r1, lsl #8
   147c8:	e58d3000 	str	r3, [sp]
   147cc:	e0830005 	add	r0, r3, r5
   147d0:	e59d300c 	ldr	r3, [sp, #12]
   147d4:	e1a01005 	mov	r1, r5
   147d8:	e2400001 	sub	r0, r0, #1	; 0x1
   147dc:	e0694006 	rsb	r4, r9, r6
   147e0:	e0634004 	rsb	r4, r3, r4
   147e4:	eb001066 	bl	18984 <__aeabi_idiv>
   147e8:	e59d1004 	ldr	r1, [sp, #4]
   147ec:	e0600004 	rsb	r0, r0, r4
   147f0:	eb00101f 	bl	18874 <__aeabi_uidiv>
   147f4:	e2403eff 	sub	r3, r0, #4080	; 0xff0
   147f8:	e2433005 	sub	r3, r3, #5	; 0x5
   147fc:	e3530a0f 	cmp	r3, #61440	; 0xf000
   14800:	e1a07000 	mov	r7, r0
   14804:	2a000019 	bcs	14870 <fat16_open+0x1c8>
   14808:	e28a4004 	add	r4, sl, #4	; 0x4
   1480c:	e3a03006 	mov	r3, #6	; 0x6
   14810:	e5c8300c 	strb	r3, [r8, #12]
   14814:	e3a01000 	mov	r1, #0	; 0x0
   14818:	e3a02018 	mov	r2, #24	; 0x18
   1481c:	e1a00004 	mov	r0, r4
   14820:	eb000dae 	bl	17ee0 <memset>
   14824:	e59dc008 	ldr	ip, [sp, #8]
   14828:	e02cc995 	mla	ip, r5, r9, ip
   1482c:	e59de00c 	ldr	lr, [sp, #12]
   14830:	e59d0004 	ldr	r0, [sp, #4]
   14834:	e02ece95 	mla	lr, r5, lr, ip
   14838:	e0010695 	mul	r1, r5, r6
   1483c:	e0000095 	mul	r0, r5, r0
   14840:	e59d6000 	ldr	r6, [sp]
   14844:	e1a03087 	lsl	r3, r7, #1
   14848:	e08e2006 	add	r2, lr, r6
   1484c:	e2833004 	add	r3, r3, #4	; 0x4
   14850:	e5842014 	str	r2, [r4, #20]
   14854:	e58a1004 	str	r1, [sl, #4]
   14858:	e5843008 	str	r3, [r4, #8]
   1485c:	e1c400be 	strh	r0, [r4, #14]
   14860:	e584c004 	str	ip, [r4, #4]
   14864:	e1c450bc 	strh	r5, [r4, #12]
   14868:	e584e010 	str	lr, [r4, #16]
   1486c:	ea000004 	b	14884 <fat16_open+0x1dc>
   14870:	e59f0020 	ldr	r0, [pc, #32]	; 14898 <fat16_open+0x1f0>
   14874:	ebfff530 	bl	11d3c <rprintf>
   14878:	e1a0000b 	mov	r0, fp
   1487c:	eb000b81 	bl	17688 <free>
   14880:	e3a0a000 	mov	sl, #0	; 0x0
   14884:	e1a0000a 	mov	r0, sl
   14888:	e28dd03c 	add	sp, sp, #60	; 0x3c
   1488c:	e8bd4ff0 	pop	{r4, r5, r6, r7, r8, r9, sl, fp, lr}
   14890:	e12fff1e 	bx	lr
   14894:	00019524 	.word	0x00019524
   14898:	00019534 	.word	0x00019534

0001489c <fat16_create_file>:
   1489c:	e92d4ff0 	push	{r4, r5, r6, r7, r8, r9, sl, fp, lr}
   148a0:	e2706001 	rsbs	r6, r0, #1	; 0x1
   148a4:	33a06000 	movcc	r6, #0	; 0x0
   148a8:	e3500000 	cmp	r0, #0	; 0x0
   148ac:	13510000 	cmpne	r1, #0	; 0x0
   148b0:	e24dd004 	sub	sp, sp, #4	; 0x4
   148b4:	e1a05000 	mov	r5, r0
   148b8:	e1a04001 	mov	r4, r1
   148bc:	e1a08002 	mov	r8, r2
   148c0:	0a000065 	beq	14a5c <fat16_create_file+0x1c0>
   148c4:	e5d13000 	ldrb	r3, [r1]
   148c8:	e3530000 	cmp	r3, #0	; 0x0
   148cc:	0a000062 	beq	14a5c <fat16_create_file+0x1c0>
   148d0:	e1a01008 	mov	r1, r8
   148d4:	e1a00005 	mov	r0, r5
   148d8:	ebfffc74 	bl	13ab0 <fat16_read_dir>
   148dc:	e250a000 	subs	sl, r0, #0	; 0x0
   148e0:	e1a01008 	mov	r1, r8
   148e4:	e1a00004 	mov	r0, r4
   148e8:	0a000007 	beq	1490c <fat16_create_file+0x70>
   148ec:	eb000dfe 	bl	180ec <strcmp>
   148f0:	e3500000 	cmp	r0, #0	; 0x0
   148f4:	1afffff5 	bne	148d0 <fat16_create_file+0x34>
   148f8:	e3560000 	cmp	r6, #0	; 0x0
   148fc:	12800001 	addne	r0, r0, #1	; 0x1
   14900:	03a00001 	moveq	r0, #1	; 0x1
   14904:	01c563b0 	strheq	r6, [r5, #48]
   14908:	ea000054 	b	14a60 <fat16_create_file+0x1c4>
   1490c:	e1a0100a 	mov	r1, sl
   14910:	e3a0202c 	mov	r2, #44	; 0x2c
   14914:	e1a00008 	mov	r0, r8
   14918:	eb000d70 	bl	17ee0 <memset>
   1491c:	e1a01004 	mov	r1, r4
   14920:	e3a0201f 	mov	r2, #31	; 0x1f
   14924:	e1a00008 	mov	r0, r8
   14928:	eb000ea1 	bl	183b4 <strncpy>
   1492c:	e1a00004 	mov	r0, r4
   14930:	eb000e27 	bl	181d4 <strlen>
   14934:	e3a0100d 	mov	r1, #13	; 0xd
   14938:	eb000fcd 	bl	18874 <__aeabi_uidiv>
   1493c:	e1d572b6 	ldrh	r7, [r5, #38]
   14940:	e5955000 	ldr	r5, [r5]
   14944:	e3570000 	cmp	r7, #0	; 0x0
   14948:	05954014 	ldreq	r4, [r5, #20]
   1494c:	11a0600a 	movne	r6, sl
   14950:	e2800002 	add	r0, r0, #2	; 0x2
   14954:	0595a018 	ldreq	sl, [r5, #24]
   14958:	e200b0ff 	and	fp, r0, #255	; 0xff
   1495c:	11a04006 	movne	r4, r6
   14960:	11a0a006 	movne	sl, r6
   14964:	01a06004 	moveq	r6, r4
   14968:	e3a09000 	mov	r9, #0	; 0x0
   1496c:	e154000a 	cmp	r4, sl
   14970:	1a00001b 	bne	149e4 <fat16_create_file+0x148>
   14974:	e3570000 	cmp	r7, #0	; 0x0
   14978:	0a000037 	beq	14a5c <fat16_create_file+0x1c0>
   1497c:	e3540000 	cmp	r4, #0	; 0x0
   14980:	0a000010 	beq	149c8 <fat16_create_file+0x12c>
   14984:	e1a00005 	mov	r0, r5
   14988:	e1a01007 	mov	r1, r7
   1498c:	ebfffaa6 	bl	1342c <fat16_get_next_cluster>
   14990:	e3500000 	cmp	r0, #0	; 0x0
   14994:	1a00000a 	bne	149c4 <fat16_create_file+0x128>
   14998:	e1a01007 	mov	r1, r7
   1499c:	e1a00005 	mov	r0, r5
   149a0:	e3a02001 	mov	r2, #1	; 0x1
   149a4:	ebfffb00 	bl	135ac <fat16_append_clusters>
   149a8:	e3500000 	cmp	r0, #0	; 0x0
   149ac:	0a00002a 	beq	14a5c <fat16_create_file+0x1c0>
   149b0:	e1d511b2 	ldrh	r1, [r5, #18]
   149b4:	e5952018 	ldr	r2, [r5, #24]
   149b8:	e2403002 	sub	r3, r0, #2	; 0x2
   149bc:	e0262391 	mla	r6, r1, r3, r2
   149c0:	ea00001e 	b	14a40 <fat16_create_file+0x1a4>
   149c4:	e1a07000 	mov	r7, r0
   149c8:	e1d511b2 	ldrh	r1, [r5, #18]
   149cc:	e5952018 	ldr	r2, [r5, #24]
   149d0:	e2473002 	sub	r3, r7, #2	; 0x2
   149d4:	e0242391 	mla	r4, r1, r3, r2
   149d8:	e3a09000 	mov	r9, #0	; 0x0
   149dc:	e084a001 	add	sl, r4, r1
   149e0:	e1a06004 	mov	r6, r4
   149e4:	e5953000 	ldr	r3, [r5]
   149e8:	e1a00004 	mov	r0, r4
   149ec:	e28d1003 	add	r1, sp, #3	; 0x3
   149f0:	e3a02001 	mov	r2, #1	; 0x1
   149f4:	e593c000 	ldr	ip, [r3]
   149f8:	e1a0e00f 	mov	lr, pc
   149fc:	e12fff1c 	bx	ip
   14a00:	e3500000 	cmp	r0, #0	; 0x0
   14a04:	0a000014 	beq	14a5c <fat16_create_file+0x1c0>
   14a08:	e5dd3003 	ldrb	r3, [sp, #3]
   14a0c:	e3530000 	cmp	r3, #0	; 0x0
   14a10:	135300e5 	cmpne	r3, #229	; 0xe5
   14a14:	13a03000 	movne	r3, #0	; 0x0
   14a18:	03a03001 	moveq	r3, #1	; 0x1
   14a1c:	12846020 	addne	r6, r4, #32	; 0x20
   14a20:	11a09003 	movne	r9, r3
   14a24:	11a04006 	movne	r4, r6
   14a28:	1affffcf 	bne	1496c <fat16_create_file+0xd0>
   14a2c:	e2893001 	add	r3, r9, #1	; 0x1
   14a30:	e20390ff 	and	r9, r3, #255	; 0xff
   14a34:	e159000b 	cmp	r9, fp
   14a38:	32844020 	addcc	r4, r4, #32	; 0x20
   14a3c:	3affffca 	bcc	1496c <fat16_create_file+0xd0>
   14a40:	e5886028 	str	r6, [r8, #40]
   14a44:	e1a00005 	mov	r0, r5
   14a48:	e1a01008 	mov	r1, r8
   14a4c:	ebfffcb4 	bl	13d24 <fat16_write_dir_entry>
   14a50:	e2500000 	subs	r0, r0, #0	; 0x0
   14a54:	13a00001 	movne	r0, #1	; 0x1
   14a58:	ea000000 	b	14a60 <fat16_create_file+0x1c4>
   14a5c:	e3a00000 	mov	r0, #0	; 0x0
   14a60:	e28dd004 	add	sp, sp, #4	; 0x4
   14a64:	e8bd4ff0 	pop	{r4, r5, r6, r7, r8, r9, sl, fp, lr}
   14a68:	e12fff1e 	bx	lr

00014a6c <partition_close>:
   14a6c:	e2503000 	subs	r3, r0, #0	; 0x0
   14a70:	e52de004 	push	{lr}		; (str lr, [sp, #-4]!)
   14a74:	0a000001 	beq	14a80 <partition_close+0x14>
   14a78:	eb000b02 	bl	17688 <free>
   14a7c:	e3a03001 	mov	r3, #1	; 0x1
   14a80:	e1a00003 	mov	r0, r3
   14a84:	e49de004 	pop	{lr}		; (ldr lr, [sp], #4)
   14a88:	e12fff1e 	bx	lr

00014a8c <partition_open>:
   14a8c:	e92d41f0 	push	{r4, r5, r6, r7, r8, lr}
   14a90:	e3510000 	cmp	r1, #0	; 0x0
   14a94:	13500000 	cmpne	r0, #0	; 0x0
   14a98:	e24dd010 	sub	sp, sp, #16	; 0x10
   14a9c:	e1a06000 	mov	r6, r0
   14aa0:	e1a07001 	mov	r7, r1
   14aa4:	13a04000 	movne	r4, #0	; 0x0
   14aa8:	03a04001 	moveq	r4, #1	; 0x1
   14aac:	e1a08002 	mov	r8, r2
   14ab0:	e20330ff 	and	r3, r3, #255	; 0xff
   14ab4:	0a000033 	beq	14b88 <partition_open+0xfc>
   14ab8:	e1a03c03 	lsl	r3, r3, #24
   14abc:	e1a05c43 	asr	r5, r3, #24
   14ac0:	e3550003 	cmp	r5, #3	; 0x3
   14ac4:	ca00002f 	bgt	14b88 <partition_open+0xfc>
   14ac8:	e3550000 	cmp	r5, #0	; 0x0
   14acc:	ba00000b 	blt	14b00 <partition_open+0x74>
   14ad0:	e1a00205 	lsl	r0, r5, #4
   14ad4:	e2800f6f 	add	r0, r0, #444	; 0x1bc
   14ad8:	e2800002 	add	r0, r0, #2	; 0x2
   14adc:	e1a0100d 	mov	r1, sp
   14ae0:	e3a02010 	mov	r2, #16	; 0x10
   14ae4:	e1a0e00f 	mov	lr, pc
   14ae8:	e12fff16 	bx	r6
   14aec:	e3500000 	cmp	r0, #0	; 0x0
   14af0:	0a000024 	beq	14b88 <partition_open+0xfc>
   14af4:	e5dd3004 	ldrb	r3, [sp, #4]
   14af8:	e3530000 	cmp	r3, #0	; 0x0
   14afc:	0a000021 	beq	14b88 <partition_open+0xfc>
   14b00:	e3a00018 	mov	r0, #24	; 0x18
   14b04:	eb000ae4 	bl	1769c <malloc>
   14b08:	e2503000 	subs	r3, r0, #0	; 0x0
   14b0c:	0a00001d 	beq	14b88 <partition_open+0xfc>
   14b10:	e1a01004 	mov	r1, r4
   14b14:	e3a02018 	mov	r2, #24	; 0x18
   14b18:	e1a04003 	mov	r4, r3
   14b1c:	eb000cef 	bl	17ee0 <memset>
   14b20:	e3550000 	cmp	r5, #0	; 0x0
   14b24:	b3e03000 	mvnlt	r3, #0	; 0x0
   14b28:	e88401c0 	stm	r4, {r6, r7, r8}
   14b2c:	b5c4300c 	strblt	r3, [r4, #12]
   14b30:	ba000015 	blt	14b8c <partition_open+0x100>
   14b34:	e5dd3004 	ldrb	r3, [sp, #4]
   14b38:	e5c4300c 	strb	r3, [r4, #12]
   14b3c:	e5dd300a 	ldrb	r3, [sp, #10]
   14b40:	e5dd1009 	ldrb	r1, [sp, #9]
   14b44:	e5dd000b 	ldrb	r0, [sp, #11]
   14b48:	e5dd2008 	ldrb	r2, [sp, #8]
   14b4c:	e1a03803 	lsl	r3, r3, #16
   14b50:	e1833c00 	orr	r3, r3, r0, lsl #24
   14b54:	e1822401 	orr	r2, r2, r1, lsl #8
   14b58:	e1822003 	orr	r2, r2, r3
   14b5c:	e5842010 	str	r2, [r4, #16]
   14b60:	e5dd300e 	ldrb	r3, [sp, #14]
   14b64:	e5dd200c 	ldrb	r2, [sp, #12]
   14b68:	e5dd100d 	ldrb	r1, [sp, #13]
   14b6c:	e5dd000f 	ldrb	r0, [sp, #15]
   14b70:	e1a03803 	lsl	r3, r3, #16
   14b74:	e1822401 	orr	r2, r2, r1, lsl #8
   14b78:	e1833c00 	orr	r3, r3, r0, lsl #24
   14b7c:	e1822003 	orr	r2, r2, r3
   14b80:	e5842014 	str	r2, [r4, #20]
   14b84:	ea000000 	b	14b8c <partition_open+0x100>
   14b88:	e3a04000 	mov	r4, #0	; 0x0
   14b8c:	e1a00004 	mov	r0, r4
   14b90:	e28dd010 	add	sp, sp, #16	; 0x10
   14b94:	e8bd41f0 	pop	{r4, r5, r6, r7, r8, lr}
   14b98:	e12fff1e 	bx	lr

00014b9c <get_adc_1>:
   14b9c:	e59f2040 	ldr	r2, [pc, #64]	; 14be4 <get_adc_1+0x48>
   14ba0:	e3800602 	orr	r0, r0, #2097152	; 0x200000
   14ba4:	e3a03000 	mov	r3, #0	; 0x0
   14ba8:	e3800c06 	orr	r0, r0, #1536	; 0x600
   14bac:	e5823000 	str	r3, [r2]
   14bb0:	e5823004 	str	r3, [r2, #4]
   14bb4:	e5820000 	str	r0, [r2]
   14bb8:	e5923000 	ldr	r3, [r2]
   14bbc:	e3833401 	orr	r3, r3, #16777216	; 0x1000000
   14bc0:	e5823000 	str	r3, [r2]
   14bc4:	e59f3018 	ldr	r3, [pc, #24]	; 14be4 <get_adc_1+0x48>
   14bc8:	e5930004 	ldr	r0, [r3, #4]
   14bcc:	e3500000 	cmp	r0, #0	; 0x0
   14bd0:	aafffffb 	bge	14bc4 <get_adc_1+0x28>
   14bd4:	e1a00340 	asr	r0, r0, #6
   14bd8:	e1a00b00 	lsl	r0, r0, #22
   14bdc:	e1a00b20 	lsr	r0, r0, #22
   14be0:	e12fff1e 	bx	lr
   14be4:	e0060000 	.word	0xe0060000

00014be8 <MMA_get_z>:
   14be8:	e3a00020 	mov	r0, #32	; 0x20
   14bec:	eaffffea 	b	14b9c <get_adc_1>

00014bf0 <MMA_get_y>:
   14bf0:	e3a00010 	mov	r0, #16	; 0x10
   14bf4:	eaffffe8 	b	14b9c <get_adc_1>

00014bf8 <MMA_get_x>:
   14bf8:	e3a00008 	mov	r0, #8	; 0x8
   14bfc:	eaffffe6 	b	14b9c <get_adc_1>

00014c00 <MMA_change_mode>:
   14c00:	e59f205c 	ldr	r2, [pc, #92]	; 14c64 <MMA_change_mode+0x64>
   14c04:	e5923008 	ldr	r3, [r2, #8]
   14c08:	e20000ff 	and	r0, r0, #255	; 0xff
   14c0c:	e3833b03 	orr	r3, r3, #3072	; 0xc00
   14c10:	e3500031 	cmp	r0, #49	; 0x31
   14c14:	e5823008 	str	r3, [r2, #8]
   14c18:	03a03b03 	moveq	r3, #3072	; 0xc00
   14c1c:	0a000004 	beq	14c34 <MMA_change_mode+0x34>
   14c20:	e3500032 	cmp	r0, #50	; 0x32
   14c24:	1a000004 	bne	14c3c <MMA_change_mode+0x3c>
   14c28:	e3a03b02 	mov	r3, #2048	; 0x800
   14c2c:	e5823004 	str	r3, [r2, #4]
   14c30:	e2433b01 	sub	r3, r3, #1024	; 0x400
   14c34:	e582300c 	str	r3, [r2, #12]
   14c38:	e12fff1e 	bx	lr
   14c3c:	e3500033 	cmp	r0, #51	; 0x33
   14c40:	03a03b02 	moveq	r3, #2048	; 0x800
   14c44:	0582300c 	streq	r3, [r2, #12]
   14c48:	02433b01 	subeq	r3, r3, #1024	; 0x400
   14c4c:	0a000002 	beq	14c5c <MMA_change_mode+0x5c>
   14c50:	e3500034 	cmp	r0, #52	; 0x34
   14c54:	112fff1e 	bxne	lr
   14c58:	e3a03b03 	mov	r3, #3072	; 0xc00
   14c5c:	e5823004 	str	r3, [r2, #4]
   14c60:	e12fff1e 	bx	lr
   14c64:	e0028000 	.word	0xe0028000

00014c68 <LCDCommand>:
   14c68:	e59f2080 	ldr	r2, [pc, #128]	; 14cf0 <LCDCommand+0x88>
   14c6c:	e5923008 	ldr	r3, [r2, #8]
   14c70:	e3833703 	orr	r3, r3, #786432	; 0xc0000
   14c74:	e3833050 	orr	r3, r3, #80	; 0x50
   14c78:	e5823008 	str	r3, [r2, #8]
   14c7c:	e3a03702 	mov	r3, #524288	; 0x80000
   14c80:	e582300c 	str	r3, [r2, #12]
   14c84:	e3a01010 	mov	r1, #16	; 0x10
   14c88:	e3a03040 	mov	r3, #64	; 0x40
   14c8c:	e582300c 	str	r3, [r2, #12]
   14c90:	e582100c 	str	r1, [r2, #12]
   14c94:	e5821004 	str	r1, [r2, #4]
   14c98:	e20000ff 	and	r0, r0, #255	; 0xff
   14c9c:	e3a0c000 	mov	ip, #0	; 0x0
   14ca0:	e3100080 	tst	r0, #128	; 0x80
   14ca4:	159f3044 	ldrne	r3, [pc, #68]	; 14cf0 <LCDCommand+0x88>
   14ca8:	059f3040 	ldreq	r3, [pc, #64]	; 14cf0 <LCDCommand+0x88>
   14cac:	13a02040 	movne	r2, #64	; 0x40
   14cb0:	03a02040 	moveq	r2, #64	; 0x40
   14cb4:	15832004 	strne	r2, [r3, #4]
   14cb8:	0583200c 	streq	r2, [r3, #12]
   14cbc:	e28c3001 	add	r3, ip, #1	; 0x1
   14cc0:	e59f1028 	ldr	r1, [pc, #40]	; 14cf0 <LCDCommand+0x88>
   14cc4:	e203c0ff 	and	ip, r3, #255	; 0xff
   14cc8:	e1a02080 	lsl	r2, r0, #1
   14ccc:	e3a03010 	mov	r3, #16	; 0x10
   14cd0:	e35c0008 	cmp	ip, #8	; 0x8
   14cd4:	e581300c 	str	r3, [r1, #12]
   14cd8:	e20200ff 	and	r0, r2, #255	; 0xff
   14cdc:	e5813004 	str	r3, [r1, #4]
   14ce0:	1affffee 	bne	14ca0 <LCDCommand+0x38>
   14ce4:	e3a03702 	mov	r3, #524288	; 0x80000
   14ce8:	e5813004 	str	r3, [r1, #4]
   14cec:	e12fff1e 	bx	lr
   14cf0:	e0028000 	.word	0xe0028000

00014cf4 <LCDData>:
   14cf4:	e59f208c 	ldr	r2, [pc, #140]	; 14d88 <LCDData+0x94>
   14cf8:	e5923008 	ldr	r3, [r2, #8]
   14cfc:	e3833703 	orr	r3, r3, #786432	; 0xc0000
   14d00:	e3833050 	orr	r3, r3, #80	; 0x50
   14d04:	e5823008 	str	r3, [r2, #8]
   14d08:	e3a01010 	mov	r1, #16	; 0x10
   14d0c:	e3a03702 	mov	r3, #524288	; 0x80000
   14d10:	e582100c 	str	r1, [r2, #12]
   14d14:	e20000ff 	and	r0, r0, #255	; 0xff
   14d18:	e582300c 	str	r3, [r2, #12]
   14d1c:	e1a00000 	nop			(mov r0,r0)
   14d20:	e3a03040 	mov	r3, #64	; 0x40
   14d24:	e5823004 	str	r3, [r2, #4]
   14d28:	e582100c 	str	r1, [r2, #12]
   14d2c:	e1a00000 	nop			(mov r0,r0)
   14d30:	e5821004 	str	r1, [r2, #4]
   14d34:	e3a0c000 	mov	ip, #0	; 0x0
   14d38:	e3100080 	tst	r0, #128	; 0x80
   14d3c:	159f3044 	ldrne	r3, [pc, #68]	; 14d88 <LCDData+0x94>
   14d40:	059f3040 	ldreq	r3, [pc, #64]	; 14d88 <LCDData+0x94>
   14d44:	13a02040 	movne	r2, #64	; 0x40
   14d48:	03a02040 	moveq	r2, #64	; 0x40
   14d4c:	15832004 	strne	r2, [r3, #4]
   14d50:	0583200c 	streq	r2, [r3, #12]
   14d54:	e28c3001 	add	r3, ip, #1	; 0x1
   14d58:	e59f1028 	ldr	r1, [pc, #40]	; 14d88 <LCDData+0x94>
   14d5c:	e203c0ff 	and	ip, r3, #255	; 0xff
   14d60:	e1a02080 	lsl	r2, r0, #1
   14d64:	e3a03010 	mov	r3, #16	; 0x10
   14d68:	e35c0008 	cmp	ip, #8	; 0x8
   14d6c:	e581300c 	str	r3, [r1, #12]
   14d70:	e20200ff 	and	r0, r2, #255	; 0xff
   14d74:	e5813004 	str	r3, [r1, #4]
   14d78:	1affffee 	bne	14d38 <LCDData+0x44>
   14d7c:	e3a03702 	mov	r3, #524288	; 0x80000
   14d80:	e5813004 	str	r3, [r1, #4]
   14d84:	e12fff1e 	bx	lr
   14d88:	e0028000 	.word	0xe0028000

00014d8c <LCDClear>:
   14d8c:	e92d4030 	push	{r4, r5, lr}
   14d90:	e1a03000 	mov	r3, r0
   14d94:	e3a0002b 	mov	r0, #43	; 0x2b
   14d98:	e20350ff 	and	r5, r3, #255	; 0xff
   14d9c:	ebffffb1 	bl	14c68 <LCDCommand>
   14da0:	e3a00000 	mov	r0, #0	; 0x0
   14da4:	ebffffd2 	bl	14cf4 <LCDData>
   14da8:	e3a00083 	mov	r0, #131	; 0x83
   14dac:	ebffffd0 	bl	14cf4 <LCDData>
   14db0:	e3a0002a 	mov	r0, #42	; 0x2a
   14db4:	ebffffab 	bl	14c68 <LCDCommand>
   14db8:	e3a00000 	mov	r0, #0	; 0x0
   14dbc:	ebffffcc 	bl	14cf4 <LCDData>
   14dc0:	e3a00083 	mov	r0, #131	; 0x83
   14dc4:	ebffffca 	bl	14cf4 <LCDData>
   14dc8:	e3a0002c 	mov	r0, #44	; 0x2c
   14dcc:	ebffffa5 	bl	14c68 <LCDCommand>
   14dd0:	e3a04001 	mov	r4, #1	; 0x1
   14dd4:	e1a00005 	mov	r0, r5
   14dd8:	ebffffc5 	bl	14cf4 <LCDData>
   14ddc:	e59f3024 	ldr	r3, [pc, #36]	; 14e08 <LCDClear+0x7c>
   14de0:	e2844001 	add	r4, r4, #1	; 0x1
   14de4:	e1540003 	cmp	r4, r3
   14de8:	1afffff9 	bne	14dd4 <LCDClear+0x48>
   14dec:	e59f2018 	ldr	r2, [pc, #24]	; 14e0c <LCDClear+0x80>
   14df0:	e3a03000 	mov	r3, #0	; 0x0
   14df4:	e5c23000 	strb	r3, [r2]
   14df8:	e59f2010 	ldr	r2, [pc, #16]	; 14e10 <LCDClear+0x84>
   14dfc:	e5c23000 	strb	r3, [r2]
   14e00:	e8bd4030 	pop	{r4, r5, lr}
   14e04:	e12fff1e 	bx	lr
   14e08:	00004410 	.word	0x00004410
   14e0c:	40000f2a 	.word	0x40000f2a
   14e10:	40000f29 	.word	0x40000f29

00014e14 <LCDSetPixel>:
   14e14:	e92d41f0 	push	{r4, r5, r6, r7, r8, lr}
   14e18:	e3a03020 	mov	r3, #32	; 0x20
   14e1c:	e3e07000 	mvn	r7, #0	; 0x0
   14e20:	e20140ff 	and	r4, r1, #255	; 0xff
   14e24:	e5178fef 	ldr	r8, [r7, #-4079]
   14e28:	e1a06000 	mov	r6, r0
   14e2c:	e5073feb 	str	r3, [r7, #-4075]
   14e30:	e3a0002b 	mov	r0, #43	; 0x2b
   14e34:	e20250ff 	and	r5, r2, #255	; 0xff
   14e38:	ebffff8a 	bl	14c68 <LCDCommand>
   14e3c:	e1a00004 	mov	r0, r4
   14e40:	ebffffab 	bl	14cf4 <LCDData>
   14e44:	e3a00084 	mov	r0, #132	; 0x84
   14e48:	ebffffa9 	bl	14cf4 <LCDData>
   14e4c:	e3a0002a 	mov	r0, #42	; 0x2a
   14e50:	ebffff84 	bl	14c68 <LCDCommand>
   14e54:	e1a00005 	mov	r0, r5
   14e58:	ebffffa5 	bl	14cf4 <LCDData>
   14e5c:	e3a00082 	mov	r0, #130	; 0x82
   14e60:	ebffffa3 	bl	14cf4 <LCDData>
   14e64:	e20660ff 	and	r6, r6, #255	; 0xff
   14e68:	e3a0002c 	mov	r0, #44	; 0x2c
   14e6c:	ebffff7d 	bl	14c68 <LCDCommand>
   14e70:	e1a00006 	mov	r0, r6
   14e74:	ebffff9e 	bl	14cf4 <LCDData>
   14e78:	e5078fef 	str	r8, [r7, #-4079]
   14e7c:	e8bd41f0 	pop	{r4, r5, r6, r7, r8, lr}
   14e80:	e12fff1e 	bx	lr

00014e84 <LCDPrintLogo>:
   14e84:	e92d41f0 	push	{r4, r5, r6, r7, r8, lr}
   14e88:	e59f7060 	ldr	r7, [pc, #96]	; 14ef0 <LCDPrintLogo+0x6c>
   14e8c:	e3a05004 	mov	r5, #4	; 0x4
   14e90:	e3a08019 	mov	r8, #25	; 0x19
   14e94:	e5d74000 	ldrb	r4, [r7]
   14e98:	e3a06000 	mov	r6, #0	; 0x0
   14e9c:	e3140080 	tst	r4, #128	; 0x80
   14ea0:	e20520ff 	and	r2, r5, #255	; 0xff
   14ea4:	e2866001 	add	r6, r6, #1	; 0x1
   14ea8:	e20810ff 	and	r1, r8, #255	; 0xff
   14eac:	e2855001 	add	r5, r5, #1	; 0x1
   14eb0:	159f303c 	ldrne	r3, [pc, #60]	; 14ef4 <LCDPrintLogo+0x70>
   14eb4:	15d30000 	ldrbne	r0, [r3]
   14eb8:	1bffffd5 	blne	14e14 <LCDSetPixel>
   14ebc:	e3550084 	cmp	r5, #132	; 0x84
   14ec0:	e1a03084 	lsl	r3, r4, #1
   14ec4:	02888001 	addeq	r8, r8, #1	; 0x1
   14ec8:	03a05004 	moveq	r5, #4	; 0x4
   14ecc:	e3560008 	cmp	r6, #8	; 0x8
   14ed0:	e20340ff 	and	r4, r3, #255	; 0xff
   14ed4:	1afffff0 	bne	14e9c <LCDPrintLogo+0x18>
   14ed8:	e59f3018 	ldr	r3, [pc, #24]	; 14ef8 <LCDPrintLogo+0x74>
   14edc:	e2877001 	add	r7, r7, #1	; 0x1
   14ee0:	e1570003 	cmp	r7, r3
   14ee4:	1affffea 	bne	14e94 <LCDPrintLogo+0x10>
   14ee8:	e8bd41f0 	pop	{r4, r5, r6, r7, r8, lr}
   14eec:	e12fff1e 	bx	lr
   14ef0:	00018eba 	.word	0x00018eba
   14ef4:	40000008 	.word	0x40000008
   14ef8:	0001931a 	.word	0x0001931a

00014efc <LCDPrintChar>:
   14efc:	e92d4ff0 	push	{r4, r5, r6, r7, r8, r9, sl, fp, lr}
   14f00:	e20000ff 	and	r0, r0, #255	; 0xff
   14f04:	e350000a 	cmp	r0, #10	; 0xa
   14f08:	e1a06002 	mov	r6, r2
   14f0c:	e1a05003 	mov	r5, r3
   14f10:	e201b0ff 	and	fp, r1, #255	; 0xff
   14f14:	e5dda024 	ldrb	sl, [sp, #36]
   14f18:	0a000055 	beq	15074 <LCDPrintChar+0x178>
   14f1c:	e350000d 	cmp	r0, #13	; 0xd
   14f20:	0a000053 	beq	15074 <LCDPrintChar+0x178>
   14f24:	e3a03005 	mov	r3, #5	; 0x5
   14f28:	e0030390 	mul	r3, r0, r3
   14f2c:	e24330a0 	sub	r3, r3, #160	; 0xa0
   14f30:	e1a03803 	lsl	r3, r3, #16
   14f34:	e1a08823 	lsr	r8, r3, #16
   14f38:	e1a07008 	mov	r7, r8
   14f3c:	ea000029 	b	14fe8 <LCDPrintChar+0xec>
   14f40:	e59f3138 	ldr	r3, [pc, #312]	; 15080 <LCDPrintChar+0x184>
   14f44:	e7d34002 	ldrb	r4, [r3, r2]
   14f48:	e3a09000 	mov	r9, #0	; 0x0
   14f4c:	e35a0000 	cmp	sl, #0	; 0x0
   14f50:	e20930ff 	and	r3, r9, #255	; 0xff
   14f54:	1a00000e 	bne	14f94 <LCDPrintChar+0x98>
   14f58:	e3140080 	tst	r4, #128	; 0x80
   14f5c:	e1a0000b 	mov	r0, fp
   14f60:	0a000008 	beq	14f88 <LCDPrintChar+0x8c>
   14f64:	e5d62000 	ldrb	r2, [r6]
   14f68:	e5d51000 	ldrb	r1, [r5]
   14f6c:	e0872002 	add	r2, r7, r2
   14f70:	e0682002 	rsb	r2, r8, r2
   14f74:	e0831001 	add	r1, r3, r1
   14f78:	e2822002 	add	r2, r2, #2	; 0x2
   14f7c:	e20110ff 	and	r1, r1, #255	; 0xff
   14f80:	e20220ff 	and	r2, r2, #255	; 0xff
   14f84:	ebffffa2 	bl	14e14 <LCDSetPixel>
   14f88:	e1a03084 	lsl	r3, r4, #1
   14f8c:	e20340ff 	and	r4, r3, #255	; 0xff
   14f90:	ea00000e 	b	14fd0 <LCDPrintChar+0xd4>
   14f94:	e35a0001 	cmp	sl, #1	; 0x1
   14f98:	1a00000c 	bne	14fd0 <LCDPrintChar+0xd4>
   14f9c:	e3140001 	tst	r4, #1	; 0x1
   14fa0:	e1a0000b 	mov	r0, fp
   14fa4:	e1a040a4 	lsr	r4, r4, #1
   14fa8:	0a000008 	beq	14fd0 <LCDPrintChar+0xd4>
   14fac:	e5d51000 	ldrb	r1, [r5]
   14fb0:	e5d62000 	ldrb	r2, [r6]
   14fb4:	e0871001 	add	r1, r7, r1
   14fb8:	e0681001 	rsb	r1, r8, r1
   14fbc:	e0832002 	add	r2, r3, r2
   14fc0:	e2811002 	add	r1, r1, #2	; 0x2
   14fc4:	e20110ff 	and	r1, r1, #255	; 0xff
   14fc8:	e20220ff 	and	r2, r2, #255	; 0xff
   14fcc:	ebffff90 	bl	14e14 <LCDSetPixel>
   14fd0:	e2899001 	add	r9, r9, #1	; 0x1
   14fd4:	e3590008 	cmp	r9, #8	; 0x8
   14fd8:	1affffdb 	bne	14f4c <LCDPrintChar+0x50>
   14fdc:	e2873001 	add	r3, r7, #1	; 0x1
   14fe0:	e1a03803 	lsl	r3, r3, #16
   14fe4:	e1a07823 	lsr	r7, r3, #16
   14fe8:	e1a03808 	lsl	r3, r8, #16
   14fec:	e1a03843 	asr	r3, r3, #16
   14ff0:	e1a02807 	lsl	r2, r7, #16
   14ff4:	e1a02842 	asr	r2, r2, #16
   14ff8:	e2833005 	add	r3, r3, #5	; 0x5
   14ffc:	e1520003 	cmp	r2, r3
   15000:	baffffce 	blt	14f40 <LCDPrintChar+0x44>
   15004:	e35a0000 	cmp	sl, #0	; 0x0
   15008:	1a000007 	bne	1502c <LCDPrintChar+0x130>
   1500c:	e5d63000 	ldrb	r3, [r6]
   15010:	e3530078 	cmp	r3, #120	; 0x78
   15014:	c5c6a000 	strbgt	sl, [r6]
   15018:	c5d53000 	ldrbgt	r3, [r5]
   1501c:	d2833006 	addle	r3, r3, #6	; 0x6
   15020:	c2833008 	addgt	r3, r3, #8	; 0x8
   15024:	da00000a 	ble	15054 <LCDPrintChar+0x158>
   15028:	ea00000b 	b	1505c <LCDPrintChar+0x160>
   1502c:	e35a0001 	cmp	sl, #1	; 0x1
   15030:	1a00000a 	bne	15060 <LCDPrintChar+0x164>
   15034:	e5d53000 	ldrb	r3, [r5]
   15038:	e3530078 	cmp	r3, #120	; 0x78
   1503c:	d2833006 	addle	r3, r3, #6	; 0x6
   15040:	da000005 	ble	1505c <LCDPrintChar+0x160>
   15044:	e3a03000 	mov	r3, #0	; 0x0
   15048:	e5c53000 	strb	r3, [r5]
   1504c:	e5d63000 	ldrb	r3, [r6]
   15050:	e2833008 	add	r3, r3, #8	; 0x8
   15054:	e5c63000 	strb	r3, [r6]
   15058:	ea000000 	b	15060 <LCDPrintChar+0x164>
   1505c:	e5c53000 	strb	r3, [r5]
   15060:	e5d53000 	ldrb	r3, [r5]
   15064:	e353007c 	cmp	r3, #124	; 0x7c
   15068:	d3a00000 	movle	r0, #0	; 0x0
   1506c:	c3a00001 	movgt	r0, #1	; 0x1
   15070:	ea000000 	b	15078 <LCDPrintChar+0x17c>
   15074:	e3a00000 	mov	r0, #0	; 0x0
   15078:	e8bd4ff0 	pop	{r4, r5, r6, r7, r8, r9, sl, fp, lr}
   1507c:	e12fff1e 	bx	lr
   15080:	00018cdf 	.word	0x00018cdf

00015084 <LCDPrintString>:
   15084:	e92d47f0 	push	{r4, r5, r6, r7, r8, r9, sl, lr}
   15088:	e24dd018 	sub	sp, sp, #24	; 0x18
   1508c:	e5dd503c 	ldrb	r5, [sp, #60]
   15090:	e3550000 	cmp	r5, #0	; 0x0
   15094:	e1a09000 	mov	r9, r0
   15098:	e1a07001 	mov	r7, r1
   1509c:	e202a0ff 	and	sl, r2, #255	; 0xff
   150a0:	e20300ff 	and	r0, r3, #255	; 0xff
   150a4:	e5dd1038 	ldrb	r1, [sp, #56]
   150a8:	1a000005 	bne	150c4 <LCDPrintString+0x40>
   150ac:	e3a03006 	mov	r3, #6	; 0x6
   150b0:	e0020391 	mul	r2, r1, r3
   150b4:	e59f3304 	ldr	r3, [pc, #772]	; 153c0 <LCDPrintString+0x33c>
   150b8:	e1a01180 	lsl	r1, r0, #3
   150bc:	e5c32000 	strb	r2, [r3]
   150c0:	ea000008 	b	150e8 <LCDPrintString+0x64>
   150c4:	e3550001 	cmp	r5, #1	; 0x1
   150c8:	1a000008 	bne	150f0 <LCDPrintString+0x6c>
   150cc:	e3a03006 	mov	r3, #6	; 0x6
   150d0:	e0010193 	mul	r1, r3, r1
   150d4:	e260300f 	rsb	r3, r0, #15	; 0xf
   150d8:	e1a03183 	lsl	r3, r3, #3
   150dc:	e59f22dc 	ldr	r2, [pc, #732]	; 153c0 <LCDPrintString+0x33c>
   150e0:	e2833003 	add	r3, r3, #3	; 0x3
   150e4:	e5c23000 	strb	r3, [r2]
   150e8:	e59f32d4 	ldr	r3, [pc, #724]	; 153c4 <LCDPrintString+0x340>
   150ec:	e5c31000 	strb	r1, [r3]
   150f0:	e3a08000 	mov	r8, #0	; 0x0
   150f4:	e1a03808 	lsl	r3, r8, #16
   150f8:	e1a03843 	asr	r3, r3, #16
   150fc:	e7d90003 	ldrb	r0, [r9, r3]
   15100:	e3500000 	cmp	r0, #0	; 0x0
   15104:	0a0000aa 	beq	153b4 <LCDPrintString+0x330>
   15108:	e3500025 	cmp	r0, #37	; 0x25
   1510c:	1a000085 	bne	15328 <LCDPrintString+0x2a4>
   15110:	e2883001 	add	r3, r8, #1	; 0x1
   15114:	e1a03803 	lsl	r3, r3, #16
   15118:	e7d92843 	ldrb	r2, [r9, r3, asr #16]
   1511c:	e3520000 	cmp	r2, #0	; 0x0
   15120:	e1a08823 	lsr	r8, r3, #16
   15124:	0a0000a2 	beq	153b4 <LCDPrintString+0x330>
   15128:	e352005c 	cmp	r2, #92	; 0x5c
   1512c:	1a000009 	bne	15158 <LCDPrintString+0xd4>
   15130:	e288c001 	add	ip, r8, #1	; 0x1
   15134:	e59f328c 	ldr	r3, [pc, #652]	; 153c8 <LCDPrintString+0x344>
   15138:	e1a0c80c 	lsl	ip, ip, #16
   1513c:	e5d31000 	ldrb	r1, [r3]
   15140:	e7d9084c 	ldrb	r0, [r9, ip, asr #16]
   15144:	e59f2274 	ldr	r2, [pc, #628]	; 153c0 <LCDPrintString+0x33c>
   15148:	e59f3274 	ldr	r3, [pc, #628]	; 153c4 <LCDPrintString+0x340>
   1514c:	e1a0882c 	lsr	r8, ip, #16
   15150:	e58d5000 	str	r5, [sp]
   15154:	ea000090 	b	1539c <LCDPrintString+0x318>
   15158:	e3520062 	cmp	r2, #98	; 0x62
   1515c:	1a000019 	bne	151c8 <LCDPrintString+0x144>
   15160:	e3a04001 	mov	r4, #1	; 0x1
   15164:	e59f125c 	ldr	r1, [pc, #604]	; 153c8 <LCDPrintString+0x344>
   15168:	e3570000 	cmp	r7, #0	; 0x0
   1516c:	e59f224c 	ldr	r2, [pc, #588]	; 153c0 <LCDPrintString+0x33c>
   15170:	e59f324c 	ldr	r3, [pc, #588]	; 153c4 <LCDPrintString+0x340>
   15174:	b5d11000 	ldrblt	r1, [r1]
   15178:	a5d11000 	ldrbge	r1, [r1]
   1517c:	a59f223c 	ldrge	r2, [pc, #572]	; 153c0 <LCDPrintString+0x33c>
   15180:	a59f323c 	ldrge	r3, [pc, #572]	; 153c4 <LCDPrintString+0x340>
   15184:	e3a00031 	mov	r0, #49	; 0x31
   15188:	a3a00030 	movge	r0, #48	; 0x30
   1518c:	e58d5000 	str	r5, [sp]
   15190:	ebffff59 	bl	14efc <LCDPrintChar>
   15194:	e3140003 	tst	r4, #3	; 0x3
   15198:	e59f2220 	ldr	r2, [pc, #544]	; 153c0 <LCDPrintString+0x33c>
   1519c:	e59f3220 	ldr	r3, [pc, #544]	; 153c4 <LCDPrintString+0x340>
   151a0:	e3a00020 	mov	r0, #32	; 0x20
   151a4:	e1a07087 	lsl	r7, r7, #1
   151a8:	e2844001 	add	r4, r4, #1	; 0x1
   151ac:	059f1214 	ldreq	r1, [pc, #532]	; 153c8 <LCDPrintString+0x344>
   151b0:	05d11000 	ldrbeq	r1, [r1]
   151b4:	058d5000 	streq	r5, [sp]
   151b8:	0bffff4f 	bleq	14efc <LCDPrintChar>
   151bc:	e3540021 	cmp	r4, #33	; 0x21
   151c0:	0a000076 	beq	153a0 <LCDPrintString+0x31c>
   151c4:	eaffffe6 	b	15164 <LCDPrintString+0xe0>
   151c8:	e3520064 	cmp	r2, #100	; 0x64
   151cc:	1a000032 	bne	1529c <LCDPrintString+0x218>
   151d0:	e3570000 	cmp	r7, #0	; 0x0
   151d4:	aa000006 	bge	151f4 <LCDPrintString+0x170>
   151d8:	e3a0002d 	mov	r0, #45	; 0x2d
   151dc:	e1a0100a 	mov	r1, sl
   151e0:	e59f21d8 	ldr	r2, [pc, #472]	; 153c0 <LCDPrintString+0x33c>
   151e4:	e59f31d8 	ldr	r3, [pc, #472]	; 153c4 <LCDPrintString+0x340>
   151e8:	e58d5000 	str	r5, [sp]
   151ec:	ebffff42 	bl	14efc <LCDPrintChar>
   151f0:	e2677000 	rsb	r7, r7, #0	; 0x0
   151f4:	e3570000 	cmp	r7, #0	; 0x0
   151f8:	13a06009 	movne	r6, #9	; 0x9
   151fc:	128d4018 	addne	r4, sp, #24	; 0x18
   15200:	1a00000e 	bne	15240 <LCDPrintString+0x1bc>
   15204:	e59f21b4 	ldr	r2, [pc, #436]	; 153c0 <LCDPrintString+0x33c>
   15208:	e59f31b4 	ldr	r3, [pc, #436]	; 153c4 <LCDPrintString+0x340>
   1520c:	e1a0100a 	mov	r1, sl
   15210:	e3a00030 	mov	r0, #48	; 0x30
   15214:	ea00005f 	b	15398 <LCDPrintString+0x314>
   15218:	eb000e5c 	bl	18b90 <__modsi3>
   1521c:	e2803030 	add	r3, r0, #48	; 0x30
   15220:	e1c430b2 	strh	r3, [r4, #2]
   15224:	e1a00007 	mov	r0, r7
   15228:	e3a0100a 	mov	r1, #10	; 0xa
   1522c:	eb000dd4 	bl	18984 <__aeabi_idiv>
   15230:	e2463001 	sub	r3, r6, #1	; 0x1
   15234:	e1a03803 	lsl	r3, r3, #16
   15238:	e1a07000 	mov	r7, r0
   1523c:	e1a06823 	lsr	r6, r3, #16
   15240:	e3570000 	cmp	r7, #0	; 0x0
   15244:	e1a00007 	mov	r0, r7
   15248:	e3a0100a 	mov	r1, #10	; 0xa
   1524c:	e2444002 	sub	r4, r4, #2	; 0x2
   15250:	cafffff0 	bgt	15218 <LCDPrintString+0x194>
   15254:	e2863001 	add	r3, r6, #1	; 0x1
   15258:	ea000003 	b	1526c <LCDPrintString+0x1e8>
   1525c:	e55c0012 	ldrb	r0, [ip, #-18]
   15260:	e58d5000 	str	r5, [sp]
   15264:	ebffff24 	bl	14efc <LCDPrintChar>
   15268:	e2843001 	add	r3, r4, #1	; 0x1
   1526c:	e1a03803 	lsl	r3, r3, #16
   15270:	e1a04823 	lsr	r4, r3, #16
   15274:	e1a00804 	lsl	r0, r4, #16
   15278:	e1a00840 	asr	r0, r0, #16
   1527c:	e28de018 	add	lr, sp, #24	; 0x18
   15280:	e3500009 	cmp	r0, #9	; 0x9
   15284:	e1a0100a 	mov	r1, sl
   15288:	e59f2130 	ldr	r2, [pc, #304]	; 153c0 <LCDPrintString+0x33c>
   1528c:	e59f3130 	ldr	r3, [pc, #304]	; 153c4 <LCDPrintString+0x340>
   15290:	e08ec080 	add	ip, lr, r0, lsl #1
   15294:	dafffff0 	ble	1525c <LCDPrintString+0x1d8>
   15298:	ea000040 	b	153a0 <LCDPrintString+0x31c>
   1529c:	e3520068 	cmp	r2, #104	; 0x68
   152a0:	1a000014 	bne	152f8 <LCDPrintString+0x274>
   152a4:	e59f411c 	ldr	r4, [pc, #284]	; 153c8 <LCDPrintString+0x344>
   152a8:	e59f2110 	ldr	r2, [pc, #272]	; 153c0 <LCDPrintString+0x33c>
   152ac:	e5d41000 	ldrb	r1, [r4]
   152b0:	e59f310c 	ldr	r3, [pc, #268]	; 153c4 <LCDPrintString+0x340>
   152b4:	e3a00030 	mov	r0, #48	; 0x30
   152b8:	e58d5000 	str	r5, [sp]
   152bc:	ebffff0e 	bl	14efc <LCDPrintChar>
   152c0:	e5d41000 	ldrb	r1, [r4]
   152c4:	e59f30f8 	ldr	r3, [pc, #248]	; 153c4 <LCDPrintString+0x340>
   152c8:	e3a00078 	mov	r0, #120	; 0x78
   152cc:	e59f20ec 	ldr	r2, [pc, #236]	; 153c0 <LCDPrintString+0x33c>
   152d0:	e58d5000 	str	r5, [sp]
   152d4:	ebffff08 	bl	14efc <LCDPrintChar>
   152d8:	e3a03000 	mov	r3, #0	; 0x0
   152dc:	e2833001 	add	r3, r3, #1	; 0x1
   152e0:	e1a03803 	lsl	r3, r3, #16
   152e4:	e3530702 	cmp	r3, #524288	; 0x80000
   152e8:	e1a07207 	lsl	r7, r7, #4
   152ec:	e1a03823 	lsr	r3, r3, #16
   152f0:	0a00002a 	beq	153a0 <LCDPrintString+0x31c>
   152f4:	eafffff8 	b	152dc <LCDPrintString+0x258>
   152f8:	e3520066 	cmp	r2, #102	; 0x66
   152fc:	1a000005 	bne	15318 <LCDPrintString+0x294>
   15300:	e59f30c0 	ldr	r3, [pc, #192]	; 153c8 <LCDPrintString+0x344>
   15304:	e59f20b4 	ldr	r2, [pc, #180]	; 153c0 <LCDPrintString+0x33c>
   15308:	e5d31000 	ldrb	r1, [r3]
   1530c:	e59f30b0 	ldr	r3, [pc, #176]	; 153c4 <LCDPrintString+0x340>
   15310:	e3a00021 	mov	r0, #33	; 0x21
   15314:	ea00001f 	b	15398 <LCDPrintString+0x314>
   15318:	e3520075 	cmp	r2, #117	; 0x75
   1531c:	020700ff 	andeq	r0, r7, #255	; 0xff
   15320:	0a000019 	beq	1538c <LCDPrintString+0x308>
   15324:	ea00001d 	b	153a0 <LCDPrintString+0x31c>
   15328:	e350002f 	cmp	r0, #47	; 0x2f
   1532c:	1a000016 	bne	1538c <LCDPrintString+0x308>
   15330:	e0893003 	add	r3, r9, r3
   15334:	e5d33001 	ldrb	r3, [r3, #1]
   15338:	e3530072 	cmp	r3, #114	; 0x72
   1533c:	1a000005 	bne	15358 <LCDPrintString+0x2d4>
   15340:	e59f3080 	ldr	r3, [pc, #128]	; 153c8 <LCDPrintString+0x344>
   15344:	e59f2074 	ldr	r2, [pc, #116]	; 153c0 <LCDPrintString+0x33c>
   15348:	e5d31000 	ldrb	r1, [r3]
   1534c:	e59f3070 	ldr	r3, [pc, #112]	; 153c4 <LCDPrintString+0x340>
   15350:	e3a0000d 	mov	r0, #13	; 0xd
   15354:	ea000006 	b	15374 <LCDPrintString+0x2f0>
   15358:	e353006e 	cmp	r3, #110	; 0x6e
   1535c:	1a000006 	bne	1537c <LCDPrintString+0x2f8>
   15360:	e59f3060 	ldr	r3, [pc, #96]	; 153c8 <LCDPrintString+0x344>
   15364:	e59f2054 	ldr	r2, [pc, #84]	; 153c0 <LCDPrintString+0x33c>
   15368:	e5d31000 	ldrb	r1, [r3]
   1536c:	e59f3050 	ldr	r3, [pc, #80]	; 153c4 <LCDPrintString+0x340>
   15370:	e3a0000a 	mov	r0, #10	; 0xa
   15374:	e58d5000 	str	r5, [sp]
   15378:	ebfffedf 	bl	14efc <LCDPrintChar>
   1537c:	e2883001 	add	r3, r8, #1	; 0x1
   15380:	e1a03803 	lsl	r3, r3, #16
   15384:	e1a08823 	lsr	r8, r3, #16
   15388:	ea000004 	b	153a0 <LCDPrintString+0x31c>
   1538c:	e59f202c 	ldr	r2, [pc, #44]	; 153c0 <LCDPrintString+0x33c>
   15390:	e59f302c 	ldr	r3, [pc, #44]	; 153c4 <LCDPrintString+0x340>
   15394:	e1a0100a 	mov	r1, sl
   15398:	e58d5000 	str	r5, [sp]
   1539c:	ebfffed6 	bl	14efc <LCDPrintChar>
   153a0:	e2883001 	add	r3, r8, #1	; 0x1
   153a4:	e1a03803 	lsl	r3, r3, #16
   153a8:	e3530815 	cmp	r3, #1376256	; 0x150000
   153ac:	e1a08823 	lsr	r8, r3, #16
   153b0:	daffff4f 	ble	150f4 <LCDPrintString+0x70>
   153b4:	e28dd018 	add	sp, sp, #24	; 0x18
   153b8:	e8bd47f0 	pop	{r4, r5, r6, r7, r8, r9, sl, lr}
   153bc:	e12fff1e 	bx	lr
   153c0:	40000f29 	.word	0x40000f29
   153c4:	40000f2a 	.word	0x40000f2a
   153c8:	40000f28 	.word	0x40000f28

000153cc <LCDSetRowColor>:
   153cc:	e92d4ff0 	push	{r4, r5, r6, r7, r8, r9, sl, fp, lr}
   153d0:	e213a0ff 	ands	sl, r3, #255	; 0xff
   153d4:	03a03006 	moveq	r3, #6	; 0x6
   153d8:	e20070ff 	and	r7, r0, #255	; 0xff
   153dc:	e20160ff 	and	r6, r1, #255	; 0xff
   153e0:	e202b0ff 	and	fp, r2, #255	; 0xff
   153e4:	00020396 	muleq	r2, r6, r3
   153e8:	01a03187 	lsleq	r3, r7, #3
   153ec:	0a000006 	beq	1540c <LCDSetRowColor+0x40>
   153f0:	e35a0001 	cmp	sl, #1	; 0x1
   153f4:	1a000006 	bne	15414 <LCDSetRowColor+0x48>
   153f8:	e3a03006 	mov	r3, #6	; 0x6
   153fc:	e0020396 	mul	r2, r6, r3
   15400:	e267300f 	rsb	r3, r7, #15	; 0xf
   15404:	e1a03183 	lsl	r3, r3, #3
   15408:	e2833003 	add	r3, r3, #3	; 0x3
   1540c:	e20370ff 	and	r7, r3, #255	; 0xff
   15410:	e20260ff 	and	r6, r2, #255	; 0xff
   15414:	e1a05006 	mov	r5, r6
   15418:	e3a09000 	mov	r9, #0	; 0x0
   1541c:	ea000014 	b	15474 <LCDSetRowColor+0xa8>
   15420:	e1a04007 	mov	r4, r7
   15424:	e3a08000 	mov	r8, #0	; 0x0
   15428:	e35a0000 	cmp	sl, #0	; 0x0
   1542c:	e1a0000b 	mov	r0, fp
   15430:	e1a01004 	mov	r1, r4
   15434:	e1a02005 	mov	r2, r5
   15438:	0a000004 	beq	15450 <LCDSetRowColor+0x84>
   1543c:	e35a0001 	cmp	sl, #1	; 0x1
   15440:	e1a02004 	mov	r2, r4
   15444:	e1a0000b 	mov	r0, fp
   15448:	e1a01005 	mov	r1, r5
   1544c:	1a000000 	bne	15454 <LCDSetRowColor+0x88>
   15450:	ebfffe6f 	bl	14e14 <LCDSetPixel>
   15454:	e2888001 	add	r8, r8, #1	; 0x1
   15458:	e2843001 	add	r3, r4, #1	; 0x1
   1545c:	e3580008 	cmp	r8, #8	; 0x8
   15460:	e20340ff 	and	r4, r3, #255	; 0xff
   15464:	1affffef 	bne	15428 <LCDSetRowColor+0x5c>
   15468:	e2853001 	add	r3, r5, #1	; 0x1
   1546c:	e2899001 	add	r9, r9, #1	; 0x1
   15470:	e20350ff 	and	r5, r3, #255	; 0xff
   15474:	e0863009 	add	r3, r6, r9
   15478:	e3530083 	cmp	r3, #131	; 0x83
   1547c:	daffffe7 	ble	15420 <LCDSetRowColor+0x54>
   15480:	e8bd4ff0 	pop	{r4, r5, r6, r7, r8, r9, sl, fp, lr}
   15484:	e12fff1e 	bx	lr

00015488 <LCDContrast>:
   15488:	e92d4010 	push	{r4, lr}
   1548c:	e20040ff 	and	r4, r0, #255	; 0xff
   15490:	e3a00025 	mov	r0, #37	; 0x25
   15494:	ebfffdf3 	bl	14c68 <LCDCommand>
   15498:	e1a00004 	mov	r0, r4
   1549c:	e8bd4010 	pop	{r4, lr}
   154a0:	eafffdf0 	b	14c68 <LCDCommand>

000154a4 <LCDInit>:
   154a4:	e52de004 	push	{lr}		; (str lr, [sp, #-4]!)
   154a8:	e3a000c8 	mov	r0, #200	; 0xc8
   154ac:	ebffeb38 	bl	10194 <delay_ms>
   154b0:	e59f21d0 	ldr	r2, [pc, #464]	; 15688 <LCDInit+0x1e4>
   154b4:	e5923008 	ldr	r3, [r2, #8]
   154b8:	e3833703 	orr	r3, r3, #786432	; 0xc0000
   154bc:	e3833050 	orr	r3, r3, #80	; 0x50
   154c0:	e5823008 	str	r3, [r2, #8]
   154c4:	e3a0c050 	mov	ip, #80	; 0x50
   154c8:	e3a01701 	mov	r1, #262144	; 0x40000
   154cc:	e3a03702 	mov	r3, #524288	; 0x80000
   154d0:	e582c00c 	str	ip, [r2, #12]
   154d4:	e3a000ca 	mov	r0, #202	; 0xca
   154d8:	e5823004 	str	r3, [r2, #4]
   154dc:	e582100c 	str	r1, [r2, #12]
   154e0:	e5821004 	str	r1, [r2, #4]
   154e4:	e582c004 	str	ip, [r2, #4]
   154e8:	ebfffdde 	bl	14c68 <LCDCommand>
   154ec:	e3a0000c 	mov	r0, #12	; 0xc
   154f0:	ebfffdff 	bl	14cf4 <LCDData>
   154f4:	e3a00020 	mov	r0, #32	; 0x20
   154f8:	ebfffdfd 	bl	14cf4 <LCDData>
   154fc:	e3a00002 	mov	r0, #2	; 0x2
   15500:	ebfffdfb 	bl	14cf4 <LCDData>
   15504:	e3a000bb 	mov	r0, #187	; 0xbb
   15508:	ebfffdd6 	bl	14c68 <LCDCommand>
   1550c:	e3a00001 	mov	r0, #1	; 0x1
   15510:	ebfffdf7 	bl	14cf4 <LCDData>
   15514:	e3a000d1 	mov	r0, #209	; 0xd1
   15518:	ebfffdd2 	bl	14c68 <LCDCommand>
   1551c:	e3a00094 	mov	r0, #148	; 0x94
   15520:	ebfffdd0 	bl	14c68 <LCDCommand>
   15524:	e3a00011 	mov	r0, #17	; 0x11
   15528:	ebfffdce 	bl	14c68 <LCDCommand>
   1552c:	e3a00081 	mov	r0, #129	; 0x81
   15530:	ebfffdcc 	bl	14c68 <LCDCommand>
   15534:	e3a00018 	mov	r0, #24	; 0x18
   15538:	ebfffded 	bl	14cf4 <LCDData>
   1553c:	e3a00003 	mov	r0, #3	; 0x3
   15540:	ebfffdeb 	bl	14cf4 <LCDData>
   15544:	e3a00025 	mov	r0, #37	; 0x25
   15548:	ebfffdc6 	bl	14c68 <LCDCommand>
   1554c:	e3a00030 	mov	r0, #48	; 0x30
   15550:	ebfffde7 	bl	14cf4 <LCDData>
   15554:	e3a00020 	mov	r0, #32	; 0x20
   15558:	ebfffdc2 	bl	14c68 <LCDCommand>
   1555c:	e3a0000f 	mov	r0, #15	; 0xf
   15560:	ebfffde3 	bl	14cf4 <LCDData>
   15564:	e3a00003 	mov	r0, #3	; 0x3
   15568:	ebfffdbe 	bl	14c68 <LCDCommand>
   1556c:	e3a000a7 	mov	r0, #167	; 0xa7
   15570:	ebfffdbc 	bl	14c68 <LCDCommand>
   15574:	e3a00021 	mov	r0, #33	; 0x21
   15578:	ebfffdba 	bl	14c68 <LCDCommand>
   1557c:	e3a000bc 	mov	r0, #188	; 0xbc
   15580:	ebfffdb8 	bl	14c68 <LCDCommand>
   15584:	e3a00003 	mov	r0, #3	; 0x3
   15588:	ebfffdd9 	bl	14cf4 <LCDData>
   1558c:	e3a00000 	mov	r0, #0	; 0x0
   15590:	ebfffdd7 	bl	14cf4 <LCDData>
   15594:	e3a00001 	mov	r0, #1	; 0x1
   15598:	ebfffdd5 	bl	14cf4 <LCDData>
   1559c:	e3a00036 	mov	r0, #54	; 0x36
   155a0:	ebfffdb0 	bl	14c68 <LCDCommand>
   155a4:	e3a000c8 	mov	r0, #200	; 0xc8
   155a8:	ebfffdd1 	bl	14cf4 <LCDData>
   155ac:	e3a0003a 	mov	r0, #58	; 0x3a
   155b0:	ebfffdac 	bl	14c68 <LCDCommand>
   155b4:	e3a00002 	mov	r0, #2	; 0x2
   155b8:	ebfffdcd 	bl	14cf4 <LCDData>
   155bc:	e3a000ce 	mov	r0, #206	; 0xce
   155c0:	ebfffda8 	bl	14c68 <LCDCommand>
   155c4:	e3a00000 	mov	r0, #0	; 0x0
   155c8:	ebfffdc9 	bl	14cf4 <LCDData>
   155cc:	e3a00002 	mov	r0, #2	; 0x2
   155d0:	ebfffdc7 	bl	14cf4 <LCDData>
   155d4:	e3a00004 	mov	r0, #4	; 0x4
   155d8:	ebfffdc5 	bl	14cf4 <LCDData>
   155dc:	e3a00006 	mov	r0, #6	; 0x6
   155e0:	ebfffdc3 	bl	14cf4 <LCDData>
   155e4:	e3a00008 	mov	r0, #8	; 0x8
   155e8:	ebfffdc1 	bl	14cf4 <LCDData>
   155ec:	e3a0000a 	mov	r0, #10	; 0xa
   155f0:	ebfffdbf 	bl	14cf4 <LCDData>
   155f4:	e3a0000c 	mov	r0, #12	; 0xc
   155f8:	ebfffdbd 	bl	14cf4 <LCDData>
   155fc:	e3a0000f 	mov	r0, #15	; 0xf
   15600:	ebfffdbb 	bl	14cf4 <LCDData>
   15604:	e3a00000 	mov	r0, #0	; 0x0
   15608:	ebfffdb9 	bl	14cf4 <LCDData>
   1560c:	e3a00002 	mov	r0, #2	; 0x2
   15610:	ebfffdb7 	bl	14cf4 <LCDData>
   15614:	e3a00004 	mov	r0, #4	; 0x4
   15618:	ebfffdb5 	bl	14cf4 <LCDData>
   1561c:	e3a00006 	mov	r0, #6	; 0x6
   15620:	ebfffdb3 	bl	14cf4 <LCDData>
   15624:	e3a00008 	mov	r0, #8	; 0x8
   15628:	ebfffdb1 	bl	14cf4 <LCDData>
   1562c:	e3a0000a 	mov	r0, #10	; 0xa
   15630:	ebfffdaf 	bl	14cf4 <LCDData>
   15634:	e3a0000c 	mov	r0, #12	; 0xc
   15638:	ebfffdad 	bl	14cf4 <LCDData>
   1563c:	e3a0000f 	mov	r0, #15	; 0xf
   15640:	ebfffdab 	bl	14cf4 <LCDData>
   15644:	e3a00000 	mov	r0, #0	; 0x0
   15648:	ebfffda9 	bl	14cf4 <LCDData>
   1564c:	e3a00004 	mov	r0, #4	; 0x4
   15650:	ebfffda7 	bl	14cf4 <LCDData>
   15654:	e3a00009 	mov	r0, #9	; 0x9
   15658:	ebfffda5 	bl	14cf4 <LCDData>
   1565c:	e3a0000f 	mov	r0, #15	; 0xf
   15660:	ebfffda3 	bl	14cf4 <LCDData>
   15664:	e3a00025 	mov	r0, #37	; 0x25
   15668:	ebfffd7e 	bl	14c68 <LCDCommand>
   1566c:	e3a00000 	mov	r0, #0	; 0x0
   15670:	ebfffd7c 	bl	14c68 <LCDCommand>
   15674:	e3a000af 	mov	r0, #175	; 0xaf
   15678:	ebfffd7a 	bl	14c68 <LCDCommand>
   1567c:	e3a00029 	mov	r0, #41	; 0x29
   15680:	e49de004 	pop	{lr}		; (ldr lr, [sp], #4)
   15684:	eafffd77 	b	14c68 <LCDCommand>
   15688:	e0028000 	.word	0xe0028000

0001568c <vs1002Config>:
   1568c:	e59f301c 	ldr	r3, [pc, #28]	; 156b0 <vs1002Config+0x24>
   15690:	e5932000 	ldr	r2, [r3]
   15694:	e3822c15 	orr	r2, r2, #5376	; 0x1500
   15698:	e5832000 	str	r2, [r3]
   1569c:	e5932000 	ldr	r2, [r3]
   156a0:	e3c2220f 	bic	r2, r2, #-268435456	; 0xf0000000
   156a4:	e3c220f0 	bic	r2, r2, #240	; 0xf0
   156a8:	e5832000 	str	r2, [r3]
   156ac:	e12fff1e 	bx	lr
   156b0:	e002c000 	.word	0xe002c000

000156b4 <vs1002Finish>:
   156b4:	e59f2010 	ldr	r2, [pc, #16]	; 156cc <vs1002Finish+0x18>
   156b8:	e5923000 	ldr	r3, [r2]
   156bc:	e3c33dff 	bic	r3, r3, #16320	; 0x3fc0
   156c0:	e3c33030 	bic	r3, r3, #48	; 0x30
   156c4:	e5823000 	str	r3, [r2]
   156c8:	e12fff1e 	bx	lr
   156cc:	e002c000 	.word	0xe002c000

000156d0 <vs1002Reset>:
   156d0:	e92d4030 	push	{r4, r5, lr}
   156d4:	e59f4020 	ldr	r4, [pc, #32]	; 156fc <vs1002Reset+0x2c>
   156d8:	e3a05401 	mov	r5, #16777216	; 0x1000000
   156dc:	e3a03802 	mov	r3, #131072	; 0x20000
   156e0:	e584300c 	str	r3, [r4, #12]
   156e4:	e3a0000a 	mov	r0, #10	; 0xa
   156e8:	e584501c 	str	r5, [r4, #28]
   156ec:	ebffeaa8 	bl	10194 <delay_ms>
   156f0:	e5845014 	str	r5, [r4, #20]
   156f4:	e8bd4030 	pop	{r4, r5, lr}
   156f8:	e12fff1e 	bx	lr
   156fc:	e0028000 	.word	0xe0028000

00015700 <vs1002SendMusic>:
   15700:	e92d4070 	push	{r4, r5, r6, lr}
   15704:	e59f303c 	ldr	r3, [pc, #60]	; 15748 <vs1002SendMusic+0x48>
   15708:	e3a02801 	mov	r2, #65536	; 0x10000
   1570c:	e1a06000 	mov	r6, r0
   15710:	e1a05001 	mov	r5, r1
   15714:	e3a04000 	mov	r4, #0	; 0x0
   15718:	e583201c 	str	r2, [r3, #28]
   1571c:	ea000002 	b	1572c <vs1002SendMusic+0x2c>
   15720:	e7d40006 	ldrb	r0, [r4, r6]
   15724:	ebfff278 	bl	1210c <SPI0_send>
   15728:	e2844001 	add	r4, r4, #1	; 0x1
   1572c:	e1540005 	cmp	r4, r5
   15730:	bafffffa 	blt	15720 <vs1002SendMusic+0x20>
   15734:	e59f300c 	ldr	r3, [pc, #12]	; 15748 <vs1002SendMusic+0x48>
   15738:	e3a02801 	mov	r2, #65536	; 0x10000
   1573c:	e5832014 	str	r2, [r3, #20]
   15740:	e8bd4070 	pop	{r4, r5, r6, lr}
   15744:	e12fff1e 	bx	lr
   15748:	e0028000 	.word	0xe0028000

0001574c <vs1002SineTest>:
   1574c:	e92d4070 	push	{r4, r5, r6, lr}
   15750:	e59f4058 	ldr	r4, [pc, #88]	; 157b0 <vs1002SineTest+0x64>
   15754:	e3a06801 	mov	r6, #65536	; 0x10000
   15758:	e1a05000 	mov	r5, r0
   1575c:	e584601c 	str	r6, [r4, #28]
   15760:	e3a00053 	mov	r0, #83	; 0x53
   15764:	ebfff268 	bl	1210c <SPI0_send>
   15768:	e3a000ef 	mov	r0, #239	; 0xef
   1576c:	ebfff266 	bl	1210c <SPI0_send>
   15770:	e20550ff 	and	r5, r5, #255	; 0xff
   15774:	e3a0006e 	mov	r0, #110	; 0x6e
   15778:	ebfff263 	bl	1210c <SPI0_send>
   1577c:	e1a00005 	mov	r0, r5
   15780:	ebfff261 	bl	1210c <SPI0_send>
   15784:	e3a00000 	mov	r0, #0	; 0x0
   15788:	ebfff25f 	bl	1210c <SPI0_send>
   1578c:	e3a00000 	mov	r0, #0	; 0x0
   15790:	ebfff25d 	bl	1210c <SPI0_send>
   15794:	e3a00000 	mov	r0, #0	; 0x0
   15798:	ebfff25b 	bl	1210c <SPI0_send>
   1579c:	e3a00000 	mov	r0, #0	; 0x0
   157a0:	ebfff259 	bl	1210c <SPI0_send>
   157a4:	e5846014 	str	r6, [r4, #20]
   157a8:	e8bd4070 	pop	{r4, r5, r6, lr}
   157ac:	e12fff1e 	bx	lr
   157b0:	e0028000 	.word	0xe0028000

000157b4 <vs1002SCIWrite>:
   157b4:	e92d40f0 	push	{r4, r5, r6, r7, lr}
   157b8:	e59f7048 	ldr	r7, [pc, #72]	; 15808 <vs1002SCIWrite+0x54>
   157bc:	e3a06601 	mov	r6, #1048576	; 0x100000
   157c0:	e20050ff 	and	r5, r0, #255	; 0xff
   157c4:	e587600c 	str	r6, [r7, #12]
   157c8:	e3a00002 	mov	r0, #2	; 0x2
   157cc:	e1a04801 	lsl	r4, r1, #16
   157d0:	ebfff24d 	bl	1210c <SPI0_send>
   157d4:	e1a00005 	mov	r0, r5
   157d8:	ebfff24b 	bl	1210c <SPI0_send>
   157dc:	e1a00c24 	lsr	r0, r4, #24
   157e0:	e1a04824 	lsr	r4, r4, #16
   157e4:	e20440ff 	and	r4, r4, #255	; 0xff
   157e8:	ebfff247 	bl	1210c <SPI0_send>
   157ec:	e1a00004 	mov	r0, r4
   157f0:	ebfff245 	bl	1210c <SPI0_send>
   157f4:	e3a00001 	mov	r0, #1	; 0x1
   157f8:	e5876004 	str	r6, [r7, #4]
   157fc:	ebffea64 	bl	10194 <delay_ms>
   15800:	e8bd40f0 	pop	{r4, r5, r6, r7, lr}
   15804:	e12fff1e 	bx	lr
   15808:	e0028000 	.word	0xe0028000

0001580c <vs1002Mute>:
   1580c:	e59f1004 	ldr	r1, [pc, #4]	; 15818 <vs1002Mute+0xc>
   15810:	e3a0000b 	mov	r0, #11	; 0xb
   15814:	eaffffe6 	b	157b4 <vs1002SCIWrite>
   15818:	0000ffff 	.word	0x0000ffff

0001581c <vs1002Init>:
   1581c:	e52de004 	push	{lr}		; (str lr, [sp, #-4]!)
   15820:	e3a01b02 	mov	r1, #2048	; 0x800
   15824:	e3a00000 	mov	r0, #0	; 0x0
   15828:	ebffffe1 	bl	157b4 <vs1002SCIWrite>
   1582c:	e3a00001 	mov	r0, #1	; 0x1
   15830:	ebffea57 	bl	10194 <delay_ms>
   15834:	e59f1008 	ldr	r1, [pc, #8]	; 15844 <vs1002Init+0x28>
   15838:	e3a00003 	mov	r0, #3	; 0x3
   1583c:	e49de004 	pop	{lr}		; (ldr lr, [sp], #4)
   15840:	eaffffdb 	b	157b4 <vs1002SCIWrite>
   15844:	00009964 	.word	0x00009964

00015848 <vs1002SCIRead>:
   15848:	e92d40f0 	push	{r4, r5, r6, r7, lr}
   1584c:	e59f704c 	ldr	r7, [pc, #76]	; 158a0 <vs1002SCIRead+0x58>
   15850:	e3a06601 	mov	r6, #1048576	; 0x100000
   15854:	e20040ff 	and	r4, r0, #255	; 0xff
   15858:	e587600c 	str	r6, [r7, #12]
   1585c:	e3a00003 	mov	r0, #3	; 0x3
   15860:	ebfff229 	bl	1210c <SPI0_send>
   15864:	e1a00004 	mov	r0, r4
   15868:	ebfff227 	bl	1210c <SPI0_send>
   1586c:	ebfff221 	bl	120f8 <SPI0_recv>
   15870:	e1a04c00 	lsl	r4, r0, #24
   15874:	ebfff21f 	bl	120f8 <SPI0_recv>
   15878:	e5876004 	str	r6, [r7, #4]
   1587c:	e1a05000 	mov	r5, r0
   15880:	e3a00001 	mov	r0, #1	; 0x1
   15884:	ebffea42 	bl	10194 <delay_ms>
   15888:	e1a04824 	lsr	r4, r4, #16
   1588c:	e1844005 	orr	r4, r4, r5
   15890:	e1a04804 	lsl	r4, r4, #16
   15894:	e1a00824 	lsr	r0, r4, #16
   15898:	e8bd40f0 	pop	{r4, r5, r6, r7, lr}
   1589c:	e12fff1e 	bx	lr
   158a0:	e0028000 	.word	0xe0028000

000158a4 <vs1002SetVolume>:
   158a4:	e92d4010 	push	{r4, lr}
   158a8:	e20040ff 	and	r4, r0, #255	; 0xff
   158ac:	e3a0000b 	mov	r0, #11	; 0xb
   158b0:	ebffffe4 	bl	15848 <vs1002SCIRead>
   158b4:	e3540031 	cmp	r4, #49	; 0x31
   158b8:	1a000004 	bne	158d0 <vs1002SetVolume+0x2c>
   158bc:	e2403b02 	sub	r3, r0, #2048	; 0x800
   158c0:	e2433008 	sub	r3, r3, #8	; 0x8
   158c4:	e1a03803 	lsl	r3, r3, #16
   158c8:	e3500000 	cmp	r0, #0	; 0x0
   158cc:	ea000004 	b	158e4 <vs1002SetVolume+0x40>
   158d0:	e2803b02 	add	r3, r0, #2048	; 0x800
   158d4:	e59f201c 	ldr	r2, [pc, #28]	; 158f8 <vs1002SetVolume+0x54>
   158d8:	e2833008 	add	r3, r3, #8	; 0x8
   158dc:	e1500002 	cmp	r0, r2
   158e0:	e1a03803 	lsl	r3, r3, #16
   158e4:	11a00823 	lsrne	r0, r3, #16
   158e8:	e1a01000 	mov	r1, r0
   158ec:	e3a0000b 	mov	r0, #11	; 0xb
   158f0:	e8bd4010 	pop	{r4, lr}
   158f4:	eaffffae 	b	157b4 <vs1002SCIWrite>
   158f8:	0000ffff 	.word	0x0000ffff

000158fc <ns73SerialReset>:
   158fc:	e92d4030 	push	{r4, r5, lr}
   15900:	e59f40ec 	ldr	r4, [pc, #236]	; 159f4 <ns73SerialReset+0xf8>
   15904:	e3a0000a 	mov	r0, #10	; 0xa
   15908:	ebffea21 	bl	10194 <delay_ms>
   1590c:	e594301c 	ldr	r3, [r4, #28]
   15910:	e3833301 	orr	r3, r3, #67108864	; 0x4000000
   15914:	e3a0000a 	mov	r0, #10	; 0xa
   15918:	e584301c 	str	r3, [r4, #28]
   1591c:	ebffea1c 	bl	10194 <delay_ms>
   15920:	e594301c 	ldr	r3, [r4, #28]
   15924:	e3833302 	orr	r3, r3, #134217728	; 0x8000000
   15928:	e584301c 	str	r3, [r4, #28]
   1592c:	e3a0000a 	mov	r0, #10	; 0xa
   15930:	ebffea17 	bl	10194 <delay_ms>
   15934:	e5943014 	ldr	r3, [r4, #20]
   15938:	e3833301 	orr	r3, r3, #67108864	; 0x4000000
   1593c:	e5843014 	str	r3, [r4, #20]
   15940:	e3a05000 	mov	r5, #0	; 0x0
   15944:	e59f40a8 	ldr	r4, [pc, #168]	; 159f4 <ns73SerialReset+0xf8>
   15948:	e5943014 	ldr	r3, [r4, #20]
   1594c:	e3833302 	orr	r3, r3, #134217728	; 0x8000000
   15950:	e3a0000a 	mov	r0, #10	; 0xa
   15954:	e5843014 	str	r3, [r4, #20]
   15958:	ebffea0d 	bl	10194 <delay_ms>
   1595c:	e594301c 	ldr	r3, [r4, #28]
   15960:	e3833302 	orr	r3, r3, #134217728	; 0x8000000
   15964:	e2855001 	add	r5, r5, #1	; 0x1
   15968:	e3a0000a 	mov	r0, #10	; 0xa
   1596c:	e584301c 	str	r3, [r4, #28]
   15970:	ebffea07 	bl	10194 <delay_ms>
   15974:	e355001a 	cmp	r5, #26	; 0x1a
   15978:	1afffff1 	bne	15944 <ns73SerialReset+0x48>
   1597c:	e5943014 	ldr	r3, [r4, #20]
   15980:	e3833302 	orr	r3, r3, #134217728	; 0x8000000
   15984:	e3a0000a 	mov	r0, #10	; 0xa
   15988:	e5843014 	str	r3, [r4, #20]
   1598c:	ebffea00 	bl	10194 <delay_ms>
   15990:	e594301c 	ldr	r3, [r4, #28]
   15994:	e3833301 	orr	r3, r3, #67108864	; 0x4000000
   15998:	e3a0000a 	mov	r0, #10	; 0xa
   1599c:	e584301c 	str	r3, [r4, #28]
   159a0:	ebffe9fb 	bl	10194 <delay_ms>
   159a4:	e594301c 	ldr	r3, [r4, #28]
   159a8:	e3833302 	orr	r3, r3, #134217728	; 0x8000000
   159ac:	e3a0000a 	mov	r0, #10	; 0xa
   159b0:	e584301c 	str	r3, [r4, #28]
   159b4:	ebffe9f6 	bl	10194 <delay_ms>
   159b8:	e5943014 	ldr	r3, [r4, #20]
   159bc:	e3833302 	orr	r3, r3, #134217728	; 0x8000000
   159c0:	e3a0000a 	mov	r0, #10	; 0xa
   159c4:	e5843014 	str	r3, [r4, #20]
   159c8:	ebffe9f1 	bl	10194 <delay_ms>
   159cc:	e5943014 	ldr	r3, [r4, #20]
   159d0:	e3833301 	orr	r3, r3, #67108864	; 0x4000000
   159d4:	e5843014 	str	r3, [r4, #20]
   159d8:	e3a0000a 	mov	r0, #10	; 0xa
   159dc:	ebffe9ec 	bl	10194 <delay_ms>
   159e0:	e594301c 	ldr	r3, [r4, #28]
   159e4:	e3833302 	orr	r3, r3, #134217728	; 0x8000000
   159e8:	e584301c 	str	r3, [r4, #28]
   159ec:	e8bd4030 	pop	{r4, r5, lr}
   159f0:	e12fff1e 	bx	lr
   159f4:	e0028000 	.word	0xe0028000

000159f8 <ns73Send>:
   159f8:	e59f3100 	ldr	r3, [pc, #256]	; 15b00 <ns73Send+0x108>
   159fc:	e3a02402 	mov	r2, #33554432	; 0x2000000
   15a00:	e92d40f0 	push	{r4, r5, r6, r7, lr}
   15a04:	e1a0c000 	mov	ip, r0
   15a08:	e583201c 	str	r2, [r3, #28]
   15a0c:	e3a0000a 	mov	r0, #10	; 0xa
   15a10:	e20c40ff 	and	r4, ip, #255	; 0xff
   15a14:	e20160ff 	and	r6, r1, #255	; 0xff
   15a18:	ebffe9dd 	bl	10194 <delay_ms>
   15a1c:	e3a05000 	mov	r5, #0	; 0x0
   15a20:	e59f20d8 	ldr	r2, [pc, #216]	; 15b00 <ns73Send+0x108>
   15a24:	e3a03302 	mov	r3, #134217728	; 0x8000000
   15a28:	e582301c 	str	r3, [r2, #28]
   15a2c:	e3140001 	tst	r4, #1	; 0x1
   15a30:	15923014 	ldrne	r3, [r2, #20]
   15a34:	0592301c 	ldreq	r3, [r2, #28]
   15a38:	13833301 	orrne	r3, r3, #67108864	; 0x4000000
   15a3c:	03833301 	orreq	r3, r3, #67108864	; 0x4000000
   15a40:	15823014 	strne	r3, [r2, #20]
   15a44:	0582301c 	streq	r3, [r2, #28]
   15a48:	e3a00001 	mov	r0, #1	; 0x1
   15a4c:	e1a04034 	lsr	r4, r4, r0
   15a50:	ebffe9cf 	bl	10194 <delay_ms>
   15a54:	e59f20a4 	ldr	r2, [pc, #164]	; 15b00 <ns73Send+0x108>
   15a58:	e3a03302 	mov	r3, #134217728	; 0x8000000
   15a5c:	e5823014 	str	r3, [r2, #20]
   15a60:	e3a00001 	mov	r0, #1	; 0x1
   15a64:	ebffe9ca 	bl	10194 <delay_ms>
   15a68:	e2853001 	add	r3, r5, #1	; 0x1
   15a6c:	e20350ff 	and	r5, r3, #255	; 0xff
   15a70:	e3550004 	cmp	r5, #4	; 0x4
   15a74:	1affffe9 	bne	15a20 <ns73Send+0x28>
   15a78:	e3a04000 	mov	r4, #0	; 0x0
   15a7c:	e59f207c 	ldr	r2, [pc, #124]	; 15b00 <ns73Send+0x108>
   15a80:	e3a03302 	mov	r3, #134217728	; 0x8000000
   15a84:	e582301c 	str	r3, [r2, #28]
   15a88:	e283330e 	add	r3, r3, #939524096	; 0x38000000
   15a8c:	e582300c 	str	r3, [r2, #12]
   15a90:	e3160001 	tst	r6, #1	; 0x1
   15a94:	15923014 	ldrne	r3, [r2, #20]
   15a98:	0592301c 	ldreq	r3, [r2, #28]
   15a9c:	13833301 	orrne	r3, r3, #67108864	; 0x4000000
   15aa0:	03833301 	orreq	r3, r3, #67108864	; 0x4000000
   15aa4:	e59f5054 	ldr	r5, [pc, #84]	; 15b00 <ns73Send+0x108>
   15aa8:	15823014 	strne	r3, [r2, #20]
   15aac:	0582301c 	streq	r3, [r2, #28]
   15ab0:	e3a00001 	mov	r0, #1	; 0x1
   15ab4:	e3a07302 	mov	r7, #134217728	; 0x8000000
   15ab8:	e1a06036 	lsr	r6, r6, r0
   15abc:	ebffe9b4 	bl	10194 <delay_ms>
   15ac0:	e3a00001 	mov	r0, #1	; 0x1
   15ac4:	e5857014 	str	r7, [r5, #20]
   15ac8:	ebffe9b1 	bl	10194 <delay_ms>
   15acc:	e2843001 	add	r3, r4, #1	; 0x1
   15ad0:	e20340ff 	and	r4, r3, #255	; 0xff
   15ad4:	e3540008 	cmp	r4, #8	; 0x8
   15ad8:	1affffe7 	bne	15a7c <ns73Send+0x84>
   15adc:	e3a04402 	mov	r4, #33554432	; 0x2000000
   15ae0:	e3a0000a 	mov	r0, #10	; 0xa
   15ae4:	e5854014 	str	r4, [r5, #20]
   15ae8:	ebffe9a9 	bl	10194 <delay_ms>
   15aec:	e3a00000 	mov	r0, #0	; 0x0
   15af0:	e585401c 	str	r4, [r5, #28]
   15af4:	e585701c 	str	r7, [r5, #28]
   15af8:	e8bd40f0 	pop	{r4, r5, r6, r7, lr}
   15afc:	e12fff1e 	bx	lr
   15b00:	e0028000 	.word	0xe0028000

00015b04 <ns73SetChannel>:
   15b04:	e59f203c 	ldr	r2, [pc, #60]	; 15b48 <ns73SetChannel+0x44>
   15b08:	e59f303c 	ldr	r3, [pc, #60]	; 15b4c <ns73SetChannel+0x48>
   15b0c:	e92d4010 	push	{r4, lr}
   15b10:	e0243290 	mla	r4, r0, r2, r3
   15b14:	e2843d7f 	add	r3, r4, #8128	; 0x1fc0
   15b18:	e3540000 	cmp	r4, #0	; 0x0
   15b1c:	e283303f 	add	r3, r3, #63	; 0x3f
   15b20:	b1a04003 	movlt	r4, r3
   15b24:	e1a016a4 	lsr	r1, r4, #13
   15b28:	e20110ff 	and	r1, r1, #255	; 0xff
   15b2c:	e3a00003 	mov	r0, #3	; 0x3
   15b30:	ebffffb0 	bl	159f8 <ns73Send>
   15b34:	e1a04aa4 	lsr	r4, r4, #21
   15b38:	e20410ff 	and	r1, r4, #255	; 0xff
   15b3c:	e3a00004 	mov	r0, #4	; 0x4
   15b40:	e8bd4010 	pop	{r4, lr}
   15b44:	eaffffab 	b	159f8 <ns73Send>
   15b48:	000186a0 	.word	0x000186a0
   15b4c:	0004a380 	.word	0x0004a380

00015b50 <ns73Init>:
   15b50:	e52de004 	push	{lr}		; (str lr, [sp, #-4]!)
   15b54:	e3a01005 	mov	r1, #5	; 0x5
   15b58:	e3a0000e 	mov	r0, #14	; 0xe
   15b5c:	ebffffa5 	bl	159f8 <ns73Send>
   15b60:	e3a00001 	mov	r0, #1	; 0x1
   15b64:	ebffe98a 	bl	10194 <delay_ms>
   15b68:	e3a010b4 	mov	r1, #180	; 0xb4
   15b6c:	e3a00001 	mov	r0, #1	; 0x1
   15b70:	ebffffa0 	bl	159f8 <ns73Send>
   15b74:	e3a01006 	mov	r1, #6	; 0x6
   15b78:	e3a00002 	mov	r0, #2	; 0x2
   15b7c:	ebffff9d 	bl	159f8 <ns73Send>
   15b80:	e3a0108a 	mov	r1, #138	; 0x8a
   15b84:	e3a00003 	mov	r0, #3	; 0x3
   15b88:	ebffff9a 	bl	159f8 <ns73Send>
   15b8c:	e3a0102e 	mov	r1, #46	; 0x2e
   15b90:	e3a00004 	mov	r0, #4	; 0x4
   15b94:	ebffff97 	bl	159f8 <ns73Send>
   15b98:	e3a0101a 	mov	r1, #26	; 0x1a
   15b9c:	e3a00008 	mov	r0, #8	; 0x8
   15ba0:	ebffff94 	bl	159f8 <ns73Send>
   15ba4:	e3a01004 	mov	r1, #4	; 0x4
   15ba8:	e3a00000 	mov	r0, #0	; 0x0
   15bac:	ebffff91 	bl	159f8 <ns73Send>
   15bb0:	e3a01005 	mov	r1, #5	; 0x5
   15bb4:	e3a0000e 	mov	r0, #14	; 0xe
   15bb8:	ebffff8e 	bl	159f8 <ns73Send>
   15bbc:	e3a00006 	mov	r0, #6	; 0x6
   15bc0:	e3a0101e 	mov	r1, #30	; 0x1e
   15bc4:	e49de004 	pop	{lr}		; (ldr lr, [sp], #4)
   15bc8:	eaffff8a 	b	159f8 <ns73Send>

00015bcc <ns73Config>:
   15bcc:	e59f2040 	ldr	r2, [pc, #64]	; 15c14 <ns73Config+0x48>
   15bd0:	e5923018 	ldr	r3, [r2, #24]
   15bd4:	e3833303 	orr	r3, r3, #201326592	; 0xc000000
   15bd8:	e5823018 	str	r3, [r2, #24]
   15bdc:	e5923018 	ldr	r3, [r2, #24]
   15be0:	e3833402 	orr	r3, r3, #33554432	; 0x2000000
   15be4:	e5823018 	str	r3, [r2, #24]
   15be8:	e5923008 	ldr	r3, [r2, #8]
   15bec:	e3c33801 	bic	r3, r3, #65536	; 0x10000
   15bf0:	e5823008 	str	r3, [r2, #8]
   15bf4:	e5923014 	ldr	r3, [r2, #20]
   15bf8:	e3833303 	orr	r3, r3, #201326592	; 0xc000000
   15bfc:	e52de004 	push	{lr}		; (str lr, [sp, #-4]!)
   15c00:	e3a00001 	mov	r0, #1	; 0x1
   15c04:	e5823014 	str	r3, [r2, #20]
   15c08:	ebffe961 	bl	10194 <delay_ms>
   15c0c:	e49de004 	pop	{lr}		; (ldr lr, [sp], #4)
   15c10:	e12fff1e 	bx	lr
   15c14:	e0028000 	.word	0xe0028000

00015c18 <main_msc>:
   15c18:	e52de004 	push	{lr}		; (str lr, [sp, #-4]!)
   15c1c:	eb0002e9 	bl	167c8 <BlockDevInit>
   15c20:	e59f006c 	ldr	r0, [pc, #108]	; 15c94 <main_msc+0x7c>
   15c24:	ebfff044 	bl	11d3c <rprintf>
   15c28:	eb0003d9 	bl	16b94 <USBInit>
   15c2c:	e3a00020 	mov	r0, #32	; 0x20
   15c30:	eb00046b 	bl	16de4 <USBHwNakIntEnable>
   15c34:	e59f005c 	ldr	r0, [pc, #92]	; 15c98 <main_msc+0x80>
   15c38:	eb0005cb 	bl	1736c <USBRegisterDescriptors>
   15c3c:	e59f2058 	ldr	r2, [pc, #88]	; 15c9c <main_msc+0x84>
   15c40:	e3a00001 	mov	r0, #1	; 0x1
   15c44:	e59f1054 	ldr	r1, [pc, #84]	; 15ca0 <main_msc+0x88>
   15c48:	eb000553 	bl	1719c <USBRegisterRequestHandler>
   15c4c:	e3a00085 	mov	r0, #133	; 0x85
   15c50:	e59f104c 	ldr	r1, [pc, #76]	; 15ca4 <main_msc+0x8c>
   15c54:	eb000435 	bl	16d30 <USBHwRegisterEPIntHandler>
   15c58:	e59f1048 	ldr	r1, [pc, #72]	; 15ca8 <main_msc+0x90>
   15c5c:	e3a00002 	mov	r0, #2	; 0x2
   15c60:	eb000432 	bl	16d30 <USBHwRegisterEPIntHandler>
   15c64:	e59f0040 	ldr	r0, [pc, #64]	; 15cac <main_msc+0x94>
   15c68:	ebfff033 	bl	11d3c <rprintf>
   15c6c:	e3a00001 	mov	r0, #1	; 0x1
   15c70:	eb000457 	bl	16dd4 <USBHwConnect>
   15c74:	ea000000 	b	15c7c <main_msc+0x64>
   15c78:	eb0004bc 	bl	16f70 <USBHwISR>
   15c7c:	e59f302c 	ldr	r3, [pc, #44]	; 15cb0 <main_msc+0x98>
   15c80:	e5933000 	ldr	r3, [r3]
   15c84:	e2130502 	ands	r0, r3, #8388608	; 0x800000
   15c88:	1afffffa 	bne	15c78 <main_msc+0x60>
   15c8c:	e49de004 	pop	{lr}		; (ldr lr, [sp], #4)
   15c90:	e12fff1e 	bx	lr
   15c94:	0001954c 	.word	0x0001954c
   15c98:	4000000a 	.word	0x4000000a
   15c9c:	40000f2b 	.word	0x40000f2b
   15ca0:	00015cb4 	.word	0x00015cb4
   15ca4:	00015e74 	.word	0x00015e74
   15ca8:	00015ed8 	.word	0x00015ed8
   15cac:	00019564 	.word	0x00019564
   15cb0:	e0028000 	.word	0xe0028000

00015cb4 <HandleClassRequest>:
   15cb4:	e1d030b4 	ldrh	r3, [r0, #4]
   15cb8:	e3530000 	cmp	r3, #0	; 0x0
   15cbc:	e92d4010 	push	{r4, lr}
   15cc0:	e1a03002 	mov	r3, r2
   15cc4:	e1a04001 	mov	r4, r1
   15cc8:	1a000012 	bne	15d18 <HandleClassRequest+0x64>
   15ccc:	e1d0e0b2 	ldrh	lr, [r0, #2]
   15cd0:	e35e0000 	cmp	lr, #0	; 0x0
   15cd4:	1a00000f 	bne	15d18 <HandleClassRequest+0x64>
   15cd8:	e5d0c001 	ldrb	ip, [r0, #1]
   15cdc:	e35c00fe 	cmp	ip, #254	; 0xfe
   15ce0:	05933000 	ldreq	r3, [r3]
   15ce4:	e3a02001 	mov	r2, #1	; 0x1
   15ce8:	05c3e000 	strbeq	lr, [r3]
   15cec:	e1a01002 	mov	r1, r2
   15cf0:	05842000 	streq	r2, [r4]
   15cf4:	0a000008 	beq	15d1c <HandleClassRequest+0x68>
   15cf8:	e35c00ff 	cmp	ip, #255	; 0xff
   15cfc:	1a000005 	bne	15d18 <HandleClassRequest+0x64>
   15d00:	e1d030b6 	ldrh	r3, [r0, #6]
   15d04:	e3530000 	cmp	r3, #0	; 0x0
   15d08:	1a000002 	bne	15d18 <HandleClassRequest+0x64>
   15d0c:	eb000103 	bl	16120 <MSCBotReset>
   15d10:	e3a01001 	mov	r1, #1	; 0x1
   15d14:	ea000000 	b	15d1c <HandleClassRequest+0x68>
   15d18:	e3a01000 	mov	r1, #0	; 0x0
   15d1c:	e1a00001 	mov	r0, r1
   15d20:	e8bd4010 	pop	{r4, lr}
   15d24:	e12fff1e 	bx	lr

00015d28 <SendCSW>:
   15d28:	e59f203c 	ldr	r2, [pc, #60]	; 15d6c <SendCSW+0x44>
   15d2c:	e59f303c 	ldr	r3, [pc, #60]	; 15d70 <SendCSW+0x48>
   15d30:	e5921008 	ldr	r1, [r2, #8]
   15d34:	e5933000 	ldr	r3, [r3]
   15d38:	e592c004 	ldr	ip, [r2, #4]
   15d3c:	e59f2030 	ldr	r2, [pc, #48]	; 15d74 <SendCSW+0x4c>
   15d40:	e0631001 	rsb	r1, r3, r1
   15d44:	e59f302c 	ldr	r3, [pc, #44]	; 15d78 <SendCSW+0x50>
   15d48:	e5c2000c 	strb	r0, [r2, #12]
   15d4c:	e3a00003 	mov	r0, #3	; 0x3
   15d50:	e5830000 	str	r0, [r3]
   15d54:	e59f3020 	ldr	r3, [pc, #32]	; 15d7c <SendCSW+0x54>
   15d58:	e3510000 	cmp	r1, #0	; 0x0
   15d5c:	b3a01000 	movlt	r1, #0	; 0x0
   15d60:	e8821008 	stm	r2, {r3, ip}
   15d64:	e5821008 	str	r1, [r2, #8]
   15d68:	e12fff1e 	bx	lr
   15d6c:	40000f38 	.word	0x40000f38
   15d70:	40000f30 	.word	0x40000f30
   15d74:	40000f58 	.word	0x40000f58
   15d78:	40000f68 	.word	0x40000f68
   15d7c:	53425355 	.word	0x53425355

00015d80 <BOTStall>:
   15d80:	e52de004 	push	{lr}		; (str lr, [sp, #-4]!)
   15d84:	e59f202c 	ldr	r2, [pc, #44]	; 15db8 <BOTStall+0x38>
   15d88:	e1d230dc 	ldrsb	r3, [r2, #12]
   15d8c:	e3530000 	cmp	r3, #0	; 0x0
   15d90:	e3a00085 	mov	r0, #133	; 0x85
   15d94:	e3a01001 	mov	r1, #1	; 0x1
   15d98:	ba000003 	blt	15dac <BOTStall+0x2c>
   15d9c:	e5923008 	ldr	r3, [r2, #8]
   15da0:	e3530000 	cmp	r3, #0	; 0x0
   15da4:	13a00002 	movne	r0, #2	; 0x2
   15da8:	13a01001 	movne	r1, #1	; 0x1
   15dac:	eb000418 	bl	16e14 <USBHwEPStall>
   15db0:	e49de004 	pop	{lr}		; (ldr lr, [sp], #4)
   15db4:	e12fff1e 	bx	lr
   15db8:	40000f38 	.word	0x40000f38

00015dbc <HandleDataIn>:
   15dbc:	e92d40f0 	push	{r4, r5, r6, r7, lr}
   15dc0:	e59f609c 	ldr	r6, [pc, #156]	; 15e64 <HandleDataIn+0xa8>
   15dc4:	e59f409c 	ldr	r4, [pc, #156]	; 15e68 <HandleDataIn+0xac>
   15dc8:	e59f509c 	ldr	r5, [pc, #156]	; 15e6c <HandleDataIn+0xb0>
   15dcc:	e5d6100e 	ldrb	r1, [r6, #14]
   15dd0:	e5942000 	ldr	r2, [r4]
   15dd4:	e5953000 	ldr	r3, [r5]
   15dd8:	e286000f 	add	r0, r6, #15	; 0xf
   15ddc:	eb000129 	bl	16288 <SCSIHandleData>
   15de0:	e3500000 	cmp	r0, #0	; 0x0
   15de4:	e59f7084 	ldr	r7, [pc, #132]	; 15e70 <HandleDataIn+0xb4>
   15de8:	e5840000 	str	r0, [r4]
   15dec:	1a000002 	bne	15dfc <HandleDataIn+0x40>
   15df0:	ebffffe2 	bl	15d80 <BOTStall>
   15df4:	e3a00001 	mov	r0, #1	; 0x1
   15df8:	ea000015 	b	15e54 <HandleDataIn+0x98>
   15dfc:	e5952000 	ldr	r2, [r5]
   15e00:	e5973000 	ldr	r3, [r7]
   15e04:	e1520003 	cmp	r2, r3
   15e08:	e1a01000 	mov	r1, r0
   15e0c:	e0624003 	rsb	r4, r2, r3
   15e10:	e3a00085 	mov	r0, #133	; 0x85
   15e14:	2a000006 	bcs	15e34 <HandleDataIn+0x78>
   15e18:	e3540040 	cmp	r4, #64	; 0x40
   15e1c:	23a04040 	movcs	r4, #64	; 0x40
   15e20:	e1a02004 	mov	r2, r4
   15e24:	eb000402 	bl	16e34 <USBHwEPWrite>
   15e28:	e5953000 	ldr	r3, [r5]
   15e2c:	e0833004 	add	r3, r3, r4
   15e30:	e5853000 	str	r3, [r5]
   15e34:	e5952000 	ldr	r2, [r5]
   15e38:	e5973000 	ldr	r3, [r7]
   15e3c:	e1520003 	cmp	r2, r3
   15e40:	1a000005 	bne	15e5c <HandleDataIn+0xa0>
   15e44:	e5963008 	ldr	r3, [r6, #8]
   15e48:	e1520003 	cmp	r2, r3
   15e4c:	1bffffcb 	blne	15d80 <BOTStall>
   15e50:	e3a00000 	mov	r0, #0	; 0x0
   15e54:	e8bd40f0 	pop	{r4, r5, r6, r7, lr}
   15e58:	eaffffb2 	b	15d28 <SendCSW>
   15e5c:	e8bd40f0 	pop	{r4, r5, r6, r7, lr}
   15e60:	e12fff1e 	bx	lr
   15e64:	40000f38 	.word	0x40000f38
   15e68:	40000f6c 	.word	0x40000f6c
   15e6c:	40000f34 	.word	0x40000f34
   15e70:	40000f30 	.word	0x40000f30

00015e74 <MSCBotBulkIn>:
   15e74:	e92d4030 	push	{r4, r5, lr}
   15e78:	e2114002 	ands	r4, r1, #2	; 0x2
   15e7c:	e59f504c 	ldr	r5, [pc, #76]	; 15ed0 <MSCBotBulkIn+0x5c>
   15e80:	1a000010 	bne	15ec8 <MSCBotBulkIn+0x54>
   15e84:	e5953000 	ldr	r3, [r5]
   15e88:	e3530003 	cmp	r3, #3	; 0x3
   15e8c:	e3a00085 	mov	r0, #133	; 0x85
   15e90:	e59f103c 	ldr	r1, [pc, #60]	; 15ed4 <MSCBotBulkIn+0x60>
   15e94:	e3a0200d 	mov	r2, #13	; 0xd
   15e98:	0a000006 	beq	15eb8 <MSCBotBulkIn+0x44>
   15e9c:	e3530004 	cmp	r3, #4	; 0x4
   15ea0:	e3a01001 	mov	r1, #1	; 0x1
   15ea4:	0a000006 	beq	15ec4 <MSCBotBulkIn+0x50>
   15ea8:	e3530002 	cmp	r3, #2	; 0x2
   15eac:	1a000005 	bne	15ec8 <MSCBotBulkIn+0x54>
   15eb0:	e8bd4030 	pop	{r4, r5, lr}
   15eb4:	eaffffc0 	b	15dbc <HandleDataIn>
   15eb8:	eb0003dd 	bl	16e34 <USBHwEPWrite>
   15ebc:	e5854000 	str	r4, [r5]
   15ec0:	ea000000 	b	15ec8 <MSCBotBulkIn+0x54>
   15ec4:	eb0003d2 	bl	16e14 <USBHwEPStall>
   15ec8:	e8bd4030 	pop	{r4, r5, lr}
   15ecc:	e12fff1e 	bx	lr
   15ed0:	40000f68 	.word	0x40000f68
   15ed4:	40000f58 	.word	0x40000f58

00015ed8 <MSCBotBulkOut>:
   15ed8:	e92d4070 	push	{r4, r5, r6, lr}
   15edc:	e3110002 	tst	r1, #2	; 0x2
   15ee0:	e24dd008 	sub	sp, sp, #8	; 0x8
   15ee4:	e20000ff 	and	r0, r0, #255	; 0xff
   15ee8:	1a000083 	bne	160fc <MSCBotBulkOut+0x224>
   15eec:	e59f3214 	ldr	r3, [pc, #532]	; 16108 <MSCBotBulkOut+0x230>
   15ef0:	e5933000 	ldr	r3, [r3]
   15ef4:	e3530004 	cmp	r3, #4	; 0x4
   15ef8:	979ff103 	ldrls	pc, [pc, r3, lsl #2]
   15efc:	ea00007e 	b	160fc <MSCBotBulkOut+0x224>
   15f00:	00015f14 	.word	0x00015f14
   15f04:	00015ffc 	.word	0x00015ffc
   15f08:	00016098 	.word	0x00016098
   15f0c:	00016098 	.word	0x00016098
   15f10:	000160b4 	.word	0x000160b4
   15f14:	e59f41f0 	ldr	r4, [pc, #496]	; 1610c <MSCBotBulkOut+0x234>
   15f18:	e3a02020 	mov	r2, #32	; 0x20
   15f1c:	e1a01004 	mov	r1, r4
   15f20:	eb0003e5 	bl	16ebc <USBHwEPRead>
   15f24:	e350001f 	cmp	r0, #31	; 0x1f
   15f28:	e58d0000 	str	r0, [sp]
   15f2c:	1a00000a 	bne	15f5c <MSCBotBulkOut+0x84>
   15f30:	e5942000 	ldr	r2, [r4]
   15f34:	e59f31d4 	ldr	r3, [pc, #468]	; 16110 <MSCBotBulkOut+0x238>
   15f38:	e1520003 	cmp	r2, r3
   15f3c:	1a000006 	bne	15f5c <MSCBotBulkOut+0x84>
   15f40:	e5d4e00d 	ldrb	lr, [r4, #13]
   15f44:	e35e0000 	cmp	lr, #0	; 0x0
   15f48:	1a000003 	bne	15f5c <MSCBotBulkOut+0x84>
   15f4c:	e5d4100e 	ldrb	r1, [r4, #14]
   15f50:	e2413001 	sub	r3, r1, #1	; 0x1
   15f54:	e353000f 	cmp	r3, #15	; 0xf
   15f58:	9a000059 	bls	160c4 <MSCBotBulkOut+0x1ec>
   15f5c:	e3a00085 	mov	r0, #133	; 0x85
   15f60:	e3a01001 	mov	r1, #1	; 0x1
   15f64:	eb0003aa 	bl	16e14 <USBHwEPStall>
   15f68:	e3a00002 	mov	r0, #2	; 0x2
   15f6c:	e3a01001 	mov	r1, #1	; 0x1
   15f70:	eb0003a7 	bl	16e14 <USBHwEPStall>
   15f74:	e3a02004 	mov	r2, #4	; 0x4
   15f78:	ea00004a 	b	160a8 <MSCBotBulkOut+0x1d0>
   15f7c:	e59d2000 	ldr	r2, [sp]
   15f80:	e3520000 	cmp	r2, #0	; 0x0
   15f84:	da00000b 	ble	15fb8 <MSCBotBulkOut+0xe0>
   15f88:	e3140080 	tst	r4, #128	; 0x80
   15f8c:	e59d3004 	ldr	r3, [sp, #4]
   15f90:	0a000002 	beq	15fa0 <MSCBotBulkOut+0xc8>
   15f94:	e3530000 	cmp	r3, #0	; 0x0
   15f98:	0a000002 	beq	15fa8 <MSCBotBulkOut+0xd0>
   15f9c:	ea000005 	b	15fb8 <MSCBotBulkOut+0xe0>
   15fa0:	e3530000 	cmp	r3, #0	; 0x0
   15fa4:	0a000003 	beq	15fb8 <MSCBotBulkOut+0xe0>
   15fa8:	ebffff74 	bl	15d80 <BOTStall>
   15fac:	e3a00002 	mov	r0, #2	; 0x2
   15fb0:	ebffff5c 	bl	15d28 <SendCSW>
   15fb4:	ea000050 	b	160fc <MSCBotBulkOut+0x224>
   15fb8:	e59f314c 	ldr	r3, [pc, #332]	; 1610c <MSCBotBulkOut+0x234>
   15fbc:	e5933008 	ldr	r3, [r3, #8]
   15fc0:	e1520003 	cmp	r2, r3
   15fc4:	8afffff7 	bhi	15fa8 <MSCBotBulkOut+0xd0>
   15fc8:	e59f3144 	ldr	r3, [pc, #324]	; 16114 <MSCBotBulkOut+0x23c>
   15fcc:	e3520000 	cmp	r2, #0	; 0x0
   15fd0:	e5832000 	str	r2, [r3]
   15fd4:	0a000003 	beq	15fe8 <MSCBotBulkOut+0x110>
   15fd8:	e59d3004 	ldr	r3, [sp, #4]
   15fdc:	e3530000 	cmp	r3, #0	; 0x0
   15fe0:	03a02001 	moveq	r2, #1	; 0x1
   15fe4:	0a00002f 	beq	160a8 <MSCBotBulkOut+0x1d0>
   15fe8:	e59f3118 	ldr	r3, [pc, #280]	; 16108 <MSCBotBulkOut+0x230>
   15fec:	e3a02002 	mov	r2, #2	; 0x2
   15ff0:	e5832000 	str	r2, [r3]
   15ff4:	ebffff70 	bl	15dbc <HandleDataIn>
   15ff8:	ea00003f 	b	160fc <MSCBotBulkOut+0x224>
   15ffc:	e59f5114 	ldr	r5, [pc, #276]	; 16118 <MSCBotBulkOut+0x240>
   16000:	e59f310c 	ldr	r3, [pc, #268]	; 16114 <MSCBotBulkOut+0x23c>
   16004:	e5951000 	ldr	r1, [r5]
   16008:	e5932000 	ldr	r2, [r3]
   1600c:	e1510002 	cmp	r1, r2
   16010:	2a000014 	bcs	16068 <MSCBotBulkOut+0x190>
   16014:	e59f4100 	ldr	r4, [pc, #256]	; 1611c <MSCBotBulkOut+0x244>
   16018:	e0612002 	rsb	r2, r1, r2
   1601c:	e3a00002 	mov	r0, #2	; 0x2
   16020:	e5941000 	ldr	r1, [r4]
   16024:	eb0003a4 	bl	16ebc <USBHwEPRead>
   16028:	e1a06000 	mov	r6, r0
   1602c:	e59f00d8 	ldr	r0, [pc, #216]	; 1610c <MSCBotBulkOut+0x234>
   16030:	e5953000 	ldr	r3, [r5]
   16034:	e5d0100e 	ldrb	r1, [r0, #14]
   16038:	e5942000 	ldr	r2, [r4]
   1603c:	e280000f 	add	r0, r0, #15	; 0xf
   16040:	eb000090 	bl	16288 <SCSIHandleData>
   16044:	e3500000 	cmp	r0, #0	; 0x0
   16048:	15953000 	ldrne	r3, [r5]
   1604c:	10833006 	addne	r3, r3, r6
   16050:	e5840000 	str	r0, [r4]
   16054:	15853000 	strne	r3, [r5]
   16058:	1a000002 	bne	16068 <MSCBotBulkOut+0x190>
   1605c:	ebffff47 	bl	15d80 <BOTStall>
   16060:	e3a00001 	mov	r0, #1	; 0x1
   16064:	eaffffd1 	b	15fb0 <MSCBotBulkOut+0xd8>
   16068:	e59f30a8 	ldr	r3, [pc, #168]	; 16118 <MSCBotBulkOut+0x240>
   1606c:	e5932000 	ldr	r2, [r3]
   16070:	e59f309c 	ldr	r3, [pc, #156]	; 16114 <MSCBotBulkOut+0x23c>
   16074:	e5933000 	ldr	r3, [r3]
   16078:	e1520003 	cmp	r2, r3
   1607c:	1a00001e 	bne	160fc <MSCBotBulkOut+0x224>
   16080:	e59f3084 	ldr	r3, [pc, #132]	; 1610c <MSCBotBulkOut+0x234>
   16084:	e5933008 	ldr	r3, [r3, #8]
   16088:	e1520003 	cmp	r2, r3
   1608c:	1bffff3b 	blne	15d80 <BOTStall>
   16090:	e3a00000 	mov	r0, #0	; 0x0
   16094:	eaffffc5 	b	15fb0 <MSCBotBulkOut+0xd8>
   16098:	e3a01000 	mov	r1, #0	; 0x0
   1609c:	e1a02001 	mov	r2, r1
   160a0:	eb000385 	bl	16ebc <USBHwEPRead>
   160a4:	e3a02000 	mov	r2, #0	; 0x0
   160a8:	e59f3058 	ldr	r3, [pc, #88]	; 16108 <MSCBotBulkOut+0x230>
   160ac:	e5832000 	str	r2, [r3]
   160b0:	ea000011 	b	160fc <MSCBotBulkOut+0x224>
   160b4:	e3a00002 	mov	r0, #2	; 0x2
   160b8:	e3a01001 	mov	r1, #1	; 0x1
   160bc:	eb000354 	bl	16e14 <USBHwEPStall>
   160c0:	ea00000d 	b	160fc <MSCBotBulkOut+0x224>
   160c4:	e59fc048 	ldr	ip, [pc, #72]	; 16114 <MSCBotBulkOut+0x23c>
   160c8:	e58ce000 	str	lr, [ip]
   160cc:	e59fc044 	ldr	ip, [pc, #68]	; 16118 <MSCBotBulkOut+0x240>
   160d0:	e284000f 	add	r0, r4, #15	; 0xf
   160d4:	e28d3004 	add	r3, sp, #4	; 0x4
   160d8:	e1a0200d 	mov	r2, sp
   160dc:	e58ce000 	str	lr, [ip]
   160e0:	e5d4400c 	ldrb	r4, [r4, #12]
   160e4:	eb00001a 	bl	16154 <SCSIHandleCmd>
   160e8:	e59f302c 	ldr	r3, [pc, #44]	; 1611c <MSCBotBulkOut+0x244>
   160ec:	e3500000 	cmp	r0, #0	; 0x0
   160f0:	e5830000 	str	r0, [r3]
   160f4:	1affffa0 	bne	15f7c <MSCBotBulkOut+0xa4>
   160f8:	eaffffd7 	b	1605c <MSCBotBulkOut+0x184>
   160fc:	e28dd008 	add	sp, sp, #8	; 0x8
   16100:	e8bd4070 	pop	{r4, r5, r6, lr}
   16104:	e12fff1e 	bx	lr
   16108:	40000f68 	.word	0x40000f68
   1610c:	40000f38 	.word	0x40000f38
   16110:	43425355 	.word	0x43425355
   16114:	40000f30 	.word	0x40000f30
   16118:	40000f34 	.word	0x40000f34
   1611c:	40000f6c 	.word	0x40000f6c

00016120 <MSCBotReset>:
   16120:	e59f3014 	ldr	r3, [pc, #20]	; 1613c <MSCBotReset+0x1c>
   16124:	e3a02000 	mov	r2, #0	; 0x0
   16128:	e52de004 	push	{lr}		; (str lr, [sp, #-4]!)
   1612c:	e5832000 	str	r2, [r3]
   16130:	eb000002 	bl	16140 <SCSIReset>
   16134:	e49de004 	pop	{lr}		; (ldr lr, [sp], #4)
   16138:	e12fff1e 	bx	lr
   1613c:	40000f68 	.word	0x40000f68

00016140 <SCSIReset>:
   16140:	e59f3008 	ldr	r3, [pc, #8]	; 16150 <SCSIReset+0x10>
   16144:	e3a02000 	mov	r2, #0	; 0x0
   16148:	e5832000 	str	r2, [r3]
   1614c:	e12fff1e 	bx	lr
   16150:	40000f70 	.word	0x40000f70

00016154 <SCSIHandleCmd>:
   16154:	e92d41f0 	push	{r4, r5, r6, r7, r8, lr}
   16158:	e1a04000 	mov	r4, r0
   1615c:	e24dd008 	sub	sp, sp, #8	; 0x8
   16160:	e3a08008 	mov	r8, #8	; 0x8
   16164:	e1a06001 	mov	r6, r1
   16168:	e1a05002 	mov	r5, r2
   1616c:	e1a0000d 	mov	r0, sp
   16170:	e1a02008 	mov	r2, r8
   16174:	e1a01004 	mov	r1, r4
   16178:	e1a07003 	mov	r7, r3
   1617c:	eb000718 	bl	17de4 <memcpy>
   16180:	e5dd2000 	ldrb	r2, [sp]
   16184:	e3a03001 	mov	r3, #1	; 0x1
   16188:	e3520012 	cmp	r2, #18	; 0x12
   1618c:	e5873000 	str	r3, [r7]
   16190:	0a000013 	beq	161e4 <SCSIHandleCmd+0x90>
   16194:	8a000006 	bhi	161b4 <SCSIHandleCmd+0x60>
   16198:	e3520000 	cmp	r2, #0	; 0x0
   1619c:	059f00dc 	ldreq	r0, [pc, #220]	; 16280 <SCSIHandleCmd+0x12c>
   161a0:	05852000 	streq	r2, [r5]
   161a4:	0a000032 	beq	16274 <SCSIHandleCmd+0x120>
   161a8:	e3520003 	cmp	r2, #3	; 0x3
   161ac:	1a000028 	bne	16254 <SCSIHandleCmd+0x100>
   161b0:	ea000006 	b	161d0 <SCSIHandleCmd+0x7c>
   161b4:	e3520028 	cmp	r2, #40	; 0x28
   161b8:	0a000012 	beq	16208 <SCSIHandleCmd+0xb4>
   161bc:	e352002a 	cmp	r2, #42	; 0x2a
   161c0:	0a000018 	beq	16228 <SCSIHandleCmd+0xd4>
   161c4:	e3520025 	cmp	r2, #37	; 0x25
   161c8:	1a000021 	bne	16254 <SCSIHandleCmd+0x100>
   161cc:	ea00000a 	b	161fc <SCSIHandleCmd+0xa8>
   161d0:	e5dd3004 	ldrb	r3, [sp, #4]
   161d4:	e59f00a4 	ldr	r0, [pc, #164]	; 16280 <SCSIHandleCmd+0x12c>
   161d8:	e3530012 	cmp	r3, #18	; 0x12
   161dc:	23a03012 	movcs	r3, #18	; 0x12
   161e0:	ea000003 	b	161f4 <SCSIHandleCmd+0xa0>
   161e4:	e5dd3004 	ldrb	r3, [sp, #4]
   161e8:	e59f0090 	ldr	r0, [pc, #144]	; 16280 <SCSIHandleCmd+0x12c>
   161ec:	e3530024 	cmp	r3, #36	; 0x24
   161f0:	23a03024 	movcs	r3, #36	; 0x24
   161f4:	e5853000 	str	r3, [r5]
   161f8:	ea00001d 	b	16274 <SCSIHandleCmd+0x120>
   161fc:	e59f007c 	ldr	r0, [pc, #124]	; 16280 <SCSIHandleCmd+0x12c>
   16200:	e5858000 	str	r8, [r5]
   16204:	ea00001a 	b	16274 <SCSIHandleCmd+0x120>
   16208:	e356000a 	cmp	r6, #10	; 0xa
   1620c:	1a000017 	bne	16270 <SCSIHandleCmd+0x11c>
   16210:	e5d43008 	ldrb	r3, [r4, #8]
   16214:	e5d42007 	ldrb	r2, [r4, #7]
   16218:	e59f0060 	ldr	r0, [pc, #96]	; 16280 <SCSIHandleCmd+0x12c>
   1621c:	e1833402 	orr	r3, r3, r2, lsl #8
   16220:	e1a03483 	lsl	r3, r3, #9
   16224:	eafffff2 	b	161f4 <SCSIHandleCmd+0xa0>
   16228:	e356000a 	cmp	r6, #10	; 0xa
   1622c:	1a00000f 	bne	16270 <SCSIHandleCmd+0x11c>
   16230:	e5d43008 	ldrb	r3, [r4, #8]
   16234:	e5d42007 	ldrb	r2, [r4, #7]
   16238:	e1833402 	orr	r3, r3, r2, lsl #8
   1623c:	e1a03483 	lsl	r3, r3, #9
   16240:	e59f0038 	ldr	r0, [pc, #56]	; 16280 <SCSIHandleCmd+0x12c>
   16244:	e5853000 	str	r3, [r5]
   16248:	e3a03000 	mov	r3, #0	; 0x0
   1624c:	e5873000 	str	r3, [r7]
   16250:	ea000007 	b	16274 <SCSIHandleCmd+0x120>
   16254:	e3a01000 	mov	r1, #0	; 0x0
   16258:	e59f3024 	ldr	r3, [pc, #36]	; 16284 <SCSIHandleCmd+0x130>
   1625c:	e3a02a52 	mov	r2, #335872	; 0x52000
   16260:	e1a00001 	mov	r0, r1
   16264:	e5832000 	str	r2, [r3]
   16268:	e5851000 	str	r1, [r5]
   1626c:	ea000000 	b	16274 <SCSIHandleCmd+0x120>
   16270:	e3a00000 	mov	r0, #0	; 0x0
   16274:	e28dd008 	add	sp, sp, #8	; 0x8
   16278:	e8bd41f0 	pop	{r4, r5, r6, r7, r8, lr}
   1627c:	e12fff1e 	bx	lr
   16280:	40000f74 	.word	0x40000f74
   16284:	40000f70 	.word	0x40000f70

00016288 <SCSIHandleData>:
   16288:	e92d4070 	push	{r4, r5, r6, lr}
   1628c:	e1a04000 	mov	r4, r0
   16290:	e24dd00c 	sub	sp, sp, #12	; 0xc
   16294:	e1a05002 	mov	r5, r2
   16298:	e1a0000d 	mov	r0, sp
   1629c:	e1a01004 	mov	r1, r4
   162a0:	e3a02008 	mov	r2, #8	; 0x8
   162a4:	e1a06003 	mov	r6, r3
   162a8:	eb0006cd 	bl	17de4 <memcpy>
   162ac:	e5dd3000 	ldrb	r3, [sp]
   162b0:	e3530012 	cmp	r3, #18	; 0x12
   162b4:	0a000022 	beq	16344 <SCSIHandleData+0xbc>
   162b8:	8a000004 	bhi	162d0 <SCSIHandleData+0x48>
   162bc:	e3530000 	cmp	r3, #0	; 0x0
   162c0:	0a000009 	beq	162ec <SCSIHandleData+0x64>
   162c4:	e3530003 	cmp	r3, #3	; 0x3
   162c8:	1a000065 	bne	16464 <SCSIHandleData+0x1dc>
   162cc:	ea00000d 	b	16308 <SCSIHandleData+0x80>
   162d0:	e3530028 	cmp	r3, #40	; 0x28
   162d4:	0a000034 	beq	163ac <SCSIHandleData+0x124>
   162d8:	e353002a 	cmp	r3, #42	; 0x2a
   162dc:	0a000046 	beq	163fc <SCSIHandleData+0x174>
   162e0:	e3530025 	cmp	r3, #37	; 0x25
   162e4:	1a00005e 	bne	16464 <SCSIHandleData+0x1dc>
   162e8:	ea00001b 	b	1635c <SCSIHandleData+0xd4>
   162ec:	e59f3190 	ldr	r3, [pc, #400]	; 16484 <SCSIHandleData+0x1fc>
   162f0:	e5932000 	ldr	r2, [r3]
   162f4:	e59f318c 	ldr	r3, [pc, #396]	; 16488 <SCSIHandleData+0x200>
   162f8:	e3520000 	cmp	r2, #0	; 0x0
   162fc:	01a0e003 	moveq	lr, r3
   16300:	13a0e000 	movne	lr, #0	; 0x0
   16304:	ea00005a 	b	16474 <SCSIHandleData+0x1ec>
   16308:	e59f117c 	ldr	r1, [pc, #380]	; 1648c <SCSIHandleData+0x204>
   1630c:	e3a02012 	mov	r2, #18	; 0x12
   16310:	e1a00005 	mov	r0, r5
   16314:	eb0006b2 	bl	17de4 <memcpy>
   16318:	e59f0164 	ldr	r0, [pc, #356]	; 16484 <SCSIHandleData+0x1fc>
   1631c:	e5903000 	ldr	r3, [r0]
   16320:	e59fe160 	ldr	lr, [pc, #352]	; 16488 <SCSIHandleData+0x200>
   16324:	e1a02823 	lsr	r2, r3, #16
   16328:	e1a01423 	lsr	r1, r3, #8
   1632c:	e5c5300d 	strb	r3, [r5, #13]
   16330:	e3a03000 	mov	r3, #0	; 0x0
   16334:	e5c52002 	strb	r2, [r5, #2]
   16338:	e5c5100c 	strb	r1, [r5, #12]
   1633c:	e5803000 	str	r3, [r0]
   16340:	ea00004b 	b	16474 <SCSIHandleData+0x1ec>
   16344:	e1a00005 	mov	r0, r5
   16348:	e59f1140 	ldr	r1, [pc, #320]	; 16490 <SCSIHandleData+0x208>
   1634c:	e3a02024 	mov	r2, #36	; 0x24
   16350:	eb0006a3 	bl	17de4 <memcpy>
   16354:	e59fe12c 	ldr	lr, [pc, #300]	; 16488 <SCSIHandleData+0x200>
   16358:	ea000045 	b	16474 <SCSIHandleData+0x1ec>
   1635c:	e28d0008 	add	r0, sp, #8	; 0x8
   16360:	eb000088 	bl	16588 <BlockDevGetSize>
   16364:	e59d3008 	ldr	r3, [sp, #8]
   16368:	e2433001 	sub	r3, r3, #1	; 0x1
   1636c:	e1a004a3 	lsr	r0, r3, #9
   16370:	e1a0c8a3 	lsr	ip, r3, #17
   16374:	e59fe10c 	ldr	lr, [pc, #268]	; 16488 <SCSIHandleData+0x200>
   16378:	e1a03ca3 	lsr	r3, r3, #25
   1637c:	e3a02000 	mov	r2, #0	; 0x0
   16380:	e1a01c20 	lsr	r1, r0, #24
   16384:	e5c53001 	strb	r3, [r5, #1]
   16388:	e3a03002 	mov	r3, #2	; 0x2
   1638c:	e5c52007 	strb	r2, [r5, #7]
   16390:	e5c51000 	strb	r1, [r5]
   16394:	e5c5c002 	strb	ip, [r5, #2]
   16398:	e5c50003 	strb	r0, [r5, #3]
   1639c:	e5c53006 	strb	r3, [r5, #6]
   163a0:	e5c52004 	strb	r2, [r5, #4]
   163a4:	e5c52005 	strb	r2, [r5, #5]
   163a8:	ea000031 	b	16474 <SCSIHandleData+0x1ec>
   163ac:	e1a05b86 	lsl	r5, r6, #23
   163b0:	e1a05ba5 	lsr	r5, r5, #23
   163b4:	e3550000 	cmp	r5, #0	; 0x0
   163b8:	e5d42005 	ldrb	r2, [r4, #5]
   163bc:	e5d43002 	ldrb	r3, [r4, #2]
   163c0:	e5d40003 	ldrb	r0, [r4, #3]
   163c4:	e5d41004 	ldrb	r1, [r4, #4]
   163c8:	1a000022 	bne	16458 <SCSIHandleData+0x1d0>
   163cc:	e1a00800 	lsl	r0, r0, #16
   163d0:	e1800c03 	orr	r0, r0, r3, lsl #24
   163d4:	e1800002 	orr	r0, r0, r2
   163d8:	e1800401 	orr	r0, r0, r1, lsl #8
   163dc:	e08004a6 	add	r0, r0, r6, lsr #9
   163e0:	e59f10a0 	ldr	r1, [pc, #160]	; 16488 <SCSIHandleData+0x200>
   163e4:	eb0000d2 	bl	16734 <BlockDevRead>
   163e8:	e3500000 	cmp	r0, #0	; 0x0
   163ec:	b1a0e005 	movlt	lr, r5
   163f0:	b59f209c 	ldrlt	r2, [pc, #156]	; 16494 <SCSIHandleData+0x20c>
   163f4:	ba000014 	blt	1644c <SCSIHandleData+0x1c4>
   163f8:	ea000016 	b	16458 <SCSIHandleData+0x1d0>
   163fc:	e2863040 	add	r3, r6, #64	; 0x40
   16400:	e1a05b83 	lsl	r5, r3, #23
   16404:	e1a05ba5 	lsr	r5, r5, #23
   16408:	e3550000 	cmp	r5, #0	; 0x0
   1640c:	e5d42005 	ldrb	r2, [r4, #5]
   16410:	e5d43002 	ldrb	r3, [r4, #2]
   16414:	e5d40003 	ldrb	r0, [r4, #3]
   16418:	e5d41004 	ldrb	r1, [r4, #4]
   1641c:	1a00000d 	bne	16458 <SCSIHandleData+0x1d0>
   16420:	e1a00800 	lsl	r0, r0, #16
   16424:	e1800c03 	orr	r0, r0, r3, lsl #24
   16428:	e1800002 	orr	r0, r0, r2
   1642c:	e1800401 	orr	r0, r0, r1, lsl #8
   16430:	e08004a6 	add	r0, r0, r6, lsr #9
   16434:	e59f104c 	ldr	r1, [pc, #76]	; 16488 <SCSIHandleData+0x200>
   16438:	eb000039 	bl	16524 <BlockDevWrite>
   1643c:	e3500000 	cmp	r0, #0	; 0x0
   16440:	aa000004 	bge	16458 <SCSIHandleData+0x1d0>
   16444:	e1a0e005 	mov	lr, r5
   16448:	e3a02bc3 	mov	r2, #199680	; 0x30c00
   1644c:	e59f3030 	ldr	r3, [pc, #48]	; 16484 <SCSIHandleData+0x1fc>
   16450:	e5832000 	str	r2, [r3]
   16454:	ea000006 	b	16474 <SCSIHandleData+0x1ec>
   16458:	e59f3028 	ldr	r3, [pc, #40]	; 16488 <SCSIHandleData+0x200>
   1645c:	e085e003 	add	lr, r5, r3
   16460:	ea000003 	b	16474 <SCSIHandleData+0x1ec>
   16464:	e59f3018 	ldr	r3, [pc, #24]	; 16484 <SCSIHandleData+0x1fc>
   16468:	e3a02a52 	mov	r2, #335872	; 0x52000
   1646c:	e5832000 	str	r2, [r3]
   16470:	e3a0e000 	mov	lr, #0	; 0x0
   16474:	e1a0000e 	mov	r0, lr
   16478:	e28dd00c 	add	sp, sp, #12	; 0xc
   1647c:	e8bd4070 	pop	{r4, r5, r6, lr}
   16480:	e12fff1e 	bx	lr
   16484:	40000f70 	.word	0x40000f70
   16488:	40000f74 	.word	0x40000f74
   1648c:	0001931a 	.word	0x0001931a
   16490:	0001932c 	.word	0x0001932c
   16494:	00031100 	.word	0x00031100

00016498 <Resp8b>:
   16498:	e92d4010 	push	{r4, lr}
   1649c:	e3a04000 	mov	r4, #0	; 0x0
   164a0:	e3a000ff 	mov	r0, #255	; 0xff
   164a4:	eb000146 	bl	169c4 <SPISend>
   164a8:	e2843001 	add	r3, r4, #1	; 0x1
   164ac:	e35000ff 	cmp	r0, #255	; 0xff
   164b0:	e20340ff 	and	r4, r3, #255	; 0xff
   164b4:	1a000001 	bne	164c0 <Resp8b+0x28>
   164b8:	e3540008 	cmp	r4, #8	; 0x8
   164bc:	1afffff7 	bne	164a0 <Resp8b+0x8>
   164c0:	e8bd4010 	pop	{r4, lr}
   164c4:	e12fff1e 	bx	lr

000164c8 <Command>:
   164c8:	e92d4030 	push	{r4, r5, lr}
   164cc:	e1a03001 	mov	r3, r1
   164d0:	e24dd008 	sub	sp, sp, #8	; 0x8
   164d4:	e3804040 	orr	r4, r0, #64	; 0x40
   164d8:	e3e05000 	mvn	r5, #0	; 0x0
   164dc:	e1a02c21 	lsr	r2, r1, #24
   164e0:	e1a0c821 	lsr	ip, r1, #16
   164e4:	e1a0e421 	lsr	lr, r1, #8
   164e8:	e5cd3005 	strb	r3, [sp, #5]
   164ec:	e1a0000d 	mov	r0, sp
   164f0:	e3e0306a 	mvn	r3, #106	; 0x6a
   164f4:	e3a01008 	mov	r1, #8	; 0x8
   164f8:	e5cd4001 	strb	r4, [sp, #1]
   164fc:	e5cd2002 	strb	r2, [sp, #2]
   16500:	e5cdc003 	strb	ip, [sp, #3]
   16504:	e5cde004 	strb	lr, [sp, #4]
   16508:	e5cd3006 	strb	r3, [sp, #6]
   1650c:	e5cd5007 	strb	r5, [sp, #7]
   16510:	e5cd5000 	strb	r5, [sp]
   16514:	eb00013d 	bl	16a10 <SPISendN>
   16518:	e28dd008 	add	sp, sp, #8	; 0x8
   1651c:	e8bd4030 	pop	{r4, r5, lr}
   16520:	e12fff1e 	bx	lr

00016524 <BlockDevWrite>:
   16524:	e1a00480 	lsl	r0, r0, #9
   16528:	e92d4010 	push	{r4, lr}
   1652c:	e1a04001 	mov	r4, r1
   16530:	e1a01000 	mov	r1, r0
   16534:	e3a00018 	mov	r0, #24	; 0x18
   16538:	ebffffe2 	bl	164c8 <Command>
   1653c:	ebffffd5 	bl	16498 <Resp8b>
   16540:	e3a000fe 	mov	r0, #254	; 0xfe
   16544:	eb00011e 	bl	169c4 <SPISend>
   16548:	e3a01c02 	mov	r1, #512	; 0x200
   1654c:	e1a00004 	mov	r0, r4
   16550:	eb00012e 	bl	16a10 <SPISendN>
   16554:	e3a000ff 	mov	r0, #255	; 0xff
   16558:	eb000119 	bl	169c4 <SPISend>
   1655c:	e3a000ff 	mov	r0, #255	; 0xff
   16560:	eb000117 	bl	169c4 <SPISend>
   16564:	e3a000ff 	mov	r0, #255	; 0xff
   16568:	eb000115 	bl	169c4 <SPISend>
   1656c:	e3a000ff 	mov	r0, #255	; 0xff
   16570:	eb000113 	bl	169c4 <SPISend>
   16574:	e35000ff 	cmp	r0, #255	; 0xff
   16578:	1afffffb 	bne	1656c <BlockDevWrite+0x48>
   1657c:	e3a00000 	mov	r0, #0	; 0x0
   16580:	e8bd4010 	pop	{r4, lr}
   16584:	e12fff1e 	bx	lr

00016588 <BlockDevGetSize>:
   16588:	e92d4030 	push	{r4, r5, lr}
   1658c:	e3a01000 	mov	r1, #0	; 0x0
   16590:	e1a05000 	mov	r5, r0
   16594:	e24dd010 	sub	sp, sp, #16	; 0x10
   16598:	e3a00009 	mov	r0, #9	; 0x9
   1659c:	ebffffc9 	bl	164c8 <Command>
   165a0:	ebffffbc 	bl	16498 <Resp8b>
   165a4:	e35000fe 	cmp	r0, #254	; 0xfe
   165a8:	1afffffc 	bne	165a0 <BlockDevGetSize+0x18>
   165ac:	e59f00bc 	ldr	r0, [pc, #188]	; 16670 <BlockDevGetSize+0xe8>
   165b0:	ebffede1 	bl	11d3c <rprintf>
   165b4:	e3a04000 	mov	r4, #0	; 0x0
   165b8:	e3a000ff 	mov	r0, #255	; 0xff
   165bc:	eb000100 	bl	169c4 <SPISend>
   165c0:	e1a0300d 	mov	r3, sp
   165c4:	e7c40003 	strb	r0, [r4, r3]
   165c8:	e1a01000 	mov	r1, r0
   165cc:	e2844001 	add	r4, r4, #1	; 0x1
   165d0:	e59f009c 	ldr	r0, [pc, #156]	; 16674 <BlockDevGetSize+0xec>
   165d4:	ebffedd8 	bl	11d3c <rprintf>
   165d8:	e3540010 	cmp	r4, #16	; 0x10
   165dc:	1afffff5 	bne	165b8 <BlockDevGetSize+0x30>
   165e0:	e59f0090 	ldr	r0, [pc, #144]	; 16678 <BlockDevGetSize+0xf0>
   165e4:	ebffedd4 	bl	11d3c <rprintf>
   165e8:	e3a000ff 	mov	r0, #255	; 0xff
   165ec:	eb0000f4 	bl	169c4 <SPISend>
   165f0:	e3a000ff 	mov	r0, #255	; 0xff
   165f4:	eb0000f2 	bl	169c4 <SPISend>
   165f8:	e5dd1005 	ldrb	r1, [sp, #5]
   165fc:	e3a00001 	mov	r0, #1	; 0x1
   16600:	e201100f 	and	r1, r1, #15	; 0xf
   16604:	e1a01110 	lsl	r1, r0, r1
   16608:	e5dd2009 	ldrb	r2, [sp, #9]
   1660c:	e5dd300a 	ldrb	r3, [sp, #10]
   16610:	e2022003 	and	r2, r2, #3	; 0x3
   16614:	e1a033a3 	lsr	r3, r3, #7
   16618:	e0833082 	add	r3, r3, r2, lsl #1
   1661c:	e2833002 	add	r3, r3, #2	; 0x2
   16620:	e1a00310 	lsl	r0, r0, r3
   16624:	e5dd3007 	ldrb	r3, [sp, #7]
   16628:	e5dd2006 	ldrb	r2, [sp, #6]
   1662c:	e5ddc008 	ldrb	ip, [sp, #8]
   16630:	e1a03103 	lsl	r3, r3, #2
   16634:	e083332c 	add	r3, r3, ip, lsr #6
   16638:	e2022003 	and	r2, r2, #3	; 0x3
   1663c:	e0833502 	add	r3, r3, r2, lsl #10
   16640:	e1a01801 	lsl	r1, r1, #16
   16644:	e1a01821 	lsr	r1, r1, #16
   16648:	e2833001 	add	r3, r3, #1	; 0x1
   1664c:	e0030391 	mul	r3, r1, r3
   16650:	e1a00800 	lsl	r0, r0, #16
   16654:	e1a00820 	lsr	r0, r0, #16
   16658:	e0030390 	mul	r3, r0, r3
   1665c:	e3a00000 	mov	r0, #0	; 0x0
   16660:	e5853000 	str	r3, [r5]
   16664:	e28dd010 	add	sp, sp, #16	; 0x10
   16668:	e8bd4030 	pop	{r4, r5, lr}
   1666c:	e12fff1e 	bx	lr
   16670:	00019580 	.word	0x00019580
   16674:	00019588 	.word	0x00019588
   16678:	00019660 	.word	0x00019660

0001667c <Resp8bError>:
   1667c:	e20010ff 	and	r1, r0, #255	; 0xff
   16680:	e3510008 	cmp	r1, #8	; 0x8
   16684:	e52de004 	push	{lr}		; (str lr, [sp, #-4]!)
   16688:	0a000015 	beq	166e4 <Resp8bError+0x68>
   1668c:	8a000006 	bhi	166ac <Resp8bError+0x30>
   16690:	e3510002 	cmp	r1, #2	; 0x2
   16694:	0a000016 	beq	166f4 <Resp8bError+0x78>
   16698:	e3510004 	cmp	r1, #4	; 0x4
   1669c:	0a000012 	beq	166ec <Resp8bError+0x70>
   166a0:	e3510001 	cmp	r1, #1	; 0x1
   166a4:	1a000016 	bne	16704 <Resp8bError+0x88>
   166a8:	ea000013 	b	166fc <Resp8bError+0x80>
   166ac:	e3510020 	cmp	r1, #32	; 0x20
   166b0:	0a000006 	beq	166d0 <Resp8bError+0x54>
   166b4:	e3510040 	cmp	r1, #64	; 0x40
   166b8:	0a000002 	beq	166c8 <Resp8bError+0x4c>
   166bc:	e3510010 	cmp	r1, #16	; 0x10
   166c0:	1a00000f 	bne	16704 <Resp8bError+0x88>
   166c4:	ea000004 	b	166dc <Resp8bError+0x60>
   166c8:	e59f0044 	ldr	r0, [pc, #68]	; 16714 <Resp8bError+0x98>
   166cc:	ea000000 	b	166d4 <Resp8bError+0x58>
   166d0:	e59f0040 	ldr	r0, [pc, #64]	; 16718 <Resp8bError+0x9c>
   166d4:	ebffed98 	bl	11d3c <rprintf>
   166d8:	ea00000b 	b	1670c <Resp8bError+0x90>
   166dc:	e59f0038 	ldr	r0, [pc, #56]	; 1671c <Resp8bError+0xa0>
   166e0:	eafffffb 	b	166d4 <Resp8bError+0x58>
   166e4:	e59f0034 	ldr	r0, [pc, #52]	; 16720 <Resp8bError+0xa4>
   166e8:	eafffff9 	b	166d4 <Resp8bError+0x58>
   166ec:	e59f0030 	ldr	r0, [pc, #48]	; 16724 <Resp8bError+0xa8>
   166f0:	eafffff7 	b	166d4 <Resp8bError+0x58>
   166f4:	e59f002c 	ldr	r0, [pc, #44]	; 16728 <Resp8bError+0xac>
   166f8:	eafffff5 	b	166d4 <Resp8bError+0x58>
   166fc:	e59f0028 	ldr	r0, [pc, #40]	; 1672c <Resp8bError+0xb0>
   16700:	eafffff3 	b	166d4 <Resp8bError+0x58>
   16704:	e59f0024 	ldr	r0, [pc, #36]	; 16730 <Resp8bError+0xb4>
   16708:	ebffed8b 	bl	11d3c <rprintf>
   1670c:	e49de004 	pop	{lr}		; (ldr lr, [sp], #4)
   16710:	e12fff1e 	bx	lr
   16714:	00019590 	.word	0x00019590
   16718:	000195ac 	.word	0x000195ac
   1671c:	000195c4 	.word	0x000195c4
   16720:	000195e4 	.word	0x000195e4
   16724:	000195f4 	.word	0x000195f4
   16728:	00019608 	.word	0x00019608
   1672c:	00019630 	.word	0x00019630
   16730:	00019634 	.word	0x00019634

00016734 <BlockDevRead>:
   16734:	e1a00480 	lsl	r0, r0, #9
   16738:	e92d4070 	push	{r4, r5, r6, lr}
   1673c:	e1a06001 	mov	r6, r1
   16740:	e1a01000 	mov	r1, r0
   16744:	e3a00011 	mov	r0, #17	; 0x11
   16748:	ebffff5e 	bl	164c8 <Command>
   1674c:	ebffff51 	bl	16498 <Resp8b>
   16750:	e59f506c 	ldr	r5, [pc, #108]	; 167c4 <BlockDevRead+0x90>
   16754:	e1a04000 	mov	r4, r0
   16758:	ebffff4e 	bl	16498 <Resp8b>
   1675c:	e2453001 	sub	r3, r5, #1	; 0x1
   16760:	e35000ff 	cmp	r0, #255	; 0xff
   16764:	e1a03803 	lsl	r3, r3, #16
   16768:	1a000003 	bne	1677c <BlockDevRead+0x48>
   1676c:	e3730801 	cmn	r3, #65536	; 0x10000
   16770:	e1a05823 	lsr	r5, r3, #16
   16774:	0a000005 	beq	16790 <BlockDevRead+0x5c>
   16778:	eafffff6 	b	16758 <BlockDevRead+0x24>
   1677c:	e35000fe 	cmp	r0, #254	; 0xfe
   16780:	03540000 	cmpeq	r4, #0	; 0x0
   16784:	03a04000 	moveq	r4, #0	; 0x0
   16788:	13a04001 	movne	r4, #1	; 0x1
   1678c:	0a000002 	beq	1679c <BlockDevRead+0x68>
   16790:	ebffffb9 	bl	1667c <Resp8bError>
   16794:	e3e00000 	mvn	r0, #0	; 0x0
   16798:	ea000007 	b	167bc <BlockDevRead+0x88>
   1679c:	e3a01c02 	mov	r1, #512	; 0x200
   167a0:	e1a00006 	mov	r0, r6
   167a4:	eb0000b0 	bl	16a6c <SPIRecvN>
   167a8:	e3a000ff 	mov	r0, #255	; 0xff
   167ac:	eb000084 	bl	169c4 <SPISend>
   167b0:	e3a000ff 	mov	r0, #255	; 0xff
   167b4:	eb000082 	bl	169c4 <SPISend>
   167b8:	e1a00004 	mov	r0, r4
   167bc:	e8bd4070 	pop	{r4, r5, r6, lr}
   167c0:	e12fff1e 	bx	lr
   167c4:	0000ffff 	.word	0x0000ffff

000167c8 <BlockDevInit>:
   167c8:	e92d4030 	push	{r4, r5, lr}
   167cc:	eb0000bf 	bl	16ad0 <SPIInit>
   167d0:	e3a04064 	mov	r4, #100	; 0x64
   167d4:	e3a00000 	mov	r0, #0	; 0x0
   167d8:	e1a01000 	mov	r1, r0
   167dc:	ebffff39 	bl	164c8 <Command>
   167e0:	ebffff2c 	bl	16498 <Resp8b>
   167e4:	e3500001 	cmp	r0, #1	; 0x1
   167e8:	e2444001 	sub	r4, r4, #1	; 0x1
   167ec:	0a00000a 	beq	1681c <BlockDevInit+0x54>
   167f0:	e3740001 	cmn	r4, #1	; 0x1
   167f4:	1afffff6 	bne	167d4 <BlockDevInit+0xc>
   167f8:	e35000ff 	cmp	r0, #255	; 0xff
   167fc:	1a000003 	bne	16810 <BlockDevInit+0x48>
   16800:	e59f016c 	ldr	r0, [pc, #364]	; 16974 <BlockDevInit+0x1ac>
   16804:	ebffed4c 	bl	11d3c <rprintf>
   16808:	e1a00004 	mov	r0, r4
   1680c:	ea000056 	b	1696c <BlockDevInit+0x1a4>
   16810:	ebffff99 	bl	1667c <Resp8bError>
   16814:	e59f015c 	ldr	r0, [pc, #348]	; 16978 <BlockDevInit+0x1b0>
   16818:	ea000051 	b	16964 <BlockDevInit+0x19c>
   1681c:	e3a04c7d 	mov	r4, #32000	; 0x7d00
   16820:	e3a01000 	mov	r1, #0	; 0x0
   16824:	e3a00001 	mov	r0, #1	; 0x1
   16828:	ebffff26 	bl	164c8 <Command>
   1682c:	ebffff19 	bl	16498 <Resp8b>
   16830:	e2505000 	subs	r5, r0, #0	; 0x0
   16834:	e2444001 	sub	r4, r4, #1	; 0x1
   16838:	0a000008 	beq	16860 <BlockDevInit+0x98>
   1683c:	ebffff8e 	bl	1667c <Resp8bError>
   16840:	e3550001 	cmp	r5, #1	; 0x1
   16844:	1a000001 	bne	16850 <BlockDevInit+0x88>
   16848:	e3740001 	cmn	r4, #1	; 0x1
   1684c:	1afffff3 	bne	16820 <BlockDevInit+0x58>
   16850:	e1a00005 	mov	r0, r5
   16854:	ebffff88 	bl	1667c <Resp8bError>
   16858:	e3e00002 	mvn	r0, #2	; 0x2
   1685c:	ea000042 	b	1696c <BlockDevInit+0x1a4>
   16860:	e3a00008 	mov	r0, #8	; 0x8
   16864:	eb00004f 	bl	169a8 <SPISetSpeed>
   16868:	e1a01005 	mov	r1, r5
   1686c:	e3a0000d 	mov	r0, #13	; 0xd
   16870:	ebffff14 	bl	164c8 <Command>
   16874:	ebffff07 	bl	16498 <Resp8b>
   16878:	e1a04c00 	lsl	r4, r0, #24
   1687c:	e3a000ff 	mov	r0, #255	; 0xff
   16880:	eb00004f 	bl	169c4 <SPISend>
   16884:	e1a04824 	lsr	r4, r4, #16
   16888:	e1844000 	orr	r4, r4, r0
   1688c:	e1a04804 	lsl	r4, r4, #16
   16890:	e1a01824 	lsr	r1, r4, #16
   16894:	e3510008 	cmp	r1, #8	; 0x8
   16898:	0a00001a 	beq	16908 <BlockDevInit+0x140>
   1689c:	8a000007 	bhi	168c0 <BlockDevInit+0xf8>
   168a0:	e3510001 	cmp	r1, #1	; 0x1
   168a4:	0a000010 	beq	168ec <BlockDevInit+0x124>
   168a8:	3a000028 	bcc	16950 <BlockDevInit+0x188>
   168ac:	e3510002 	cmp	r1, #2	; 0x2
   168b0:	0a00000f 	beq	168f4 <BlockDevInit+0x12c>
   168b4:	e3510004 	cmp	r1, #4	; 0x4
   168b8:	1a00001c 	bne	16930 <BlockDevInit+0x168>
   168bc:	ea00000f 	b	16900 <BlockDevInit+0x138>
   168c0:	e3510020 	cmp	r1, #32	; 0x20
   168c4:	0a000013 	beq	16918 <BlockDevInit+0x150>
   168c8:	8a000002 	bhi	168d8 <BlockDevInit+0x110>
   168cc:	e3510010 	cmp	r1, #16	; 0x10
   168d0:	1a000016 	bne	16930 <BlockDevInit+0x168>
   168d4:	ea00000d 	b	16910 <BlockDevInit+0x148>
   168d8:	e3510040 	cmp	r1, #64	; 0x40
   168dc:	0a00000f 	beq	16920 <BlockDevInit+0x158>
   168e0:	e3510080 	cmp	r1, #128	; 0x80
   168e4:	1a000011 	bne	16930 <BlockDevInit+0x168>
   168e8:	ea00000e 	b	16928 <BlockDevInit+0x160>
   168ec:	e59f0088 	ldr	r0, [pc, #136]	; 1697c <BlockDevInit+0x1b4>
   168f0:	ea000000 	b	168f8 <BlockDevInit+0x130>
   168f4:	e59f0084 	ldr	r0, [pc, #132]	; 16980 <BlockDevInit+0x1b8>
   168f8:	ebffed0f 	bl	11d3c <rprintf>
   168fc:	ea000017 	b	16960 <BlockDevInit+0x198>
   16900:	e59f007c 	ldr	r0, [pc, #124]	; 16984 <BlockDevInit+0x1bc>
   16904:	eafffffb 	b	168f8 <BlockDevInit+0x130>
   16908:	e59f0078 	ldr	r0, [pc, #120]	; 16988 <BlockDevInit+0x1c0>
   1690c:	eafffff9 	b	168f8 <BlockDevInit+0x130>
   16910:	e59f0074 	ldr	r0, [pc, #116]	; 1698c <BlockDevInit+0x1c4>
   16914:	eafffff7 	b	168f8 <BlockDevInit+0x130>
   16918:	e59f0070 	ldr	r0, [pc, #112]	; 16990 <BlockDevInit+0x1c8>
   1691c:	eafffff5 	b	168f8 <BlockDevInit+0x130>
   16920:	e59f006c 	ldr	r0, [pc, #108]	; 16994 <BlockDevInit+0x1cc>
   16924:	eafffff3 	b	168f8 <BlockDevInit+0x130>
   16928:	e59f0068 	ldr	r0, [pc, #104]	; 16998 <BlockDevInit+0x1d0>
   1692c:	eafffff1 	b	168f8 <BlockDevInit+0x130>
   16930:	e35100ff 	cmp	r1, #255	; 0xff
   16934:	9a000002 	bls	16944 <BlockDevInit+0x17c>
   16938:	e1a00421 	lsr	r0, r1, #8
   1693c:	ebffff4e 	bl	1667c <Resp8bError>
   16940:	ea000006 	b	16960 <BlockDevInit+0x198>
   16944:	e59f0050 	ldr	r0, [pc, #80]	; 1699c <BlockDevInit+0x1d4>
   16948:	ebffecfb 	bl	11d3c <rprintf>
   1694c:	ea000003 	b	16960 <BlockDevInit+0x198>
   16950:	e59f0048 	ldr	r0, [pc, #72]	; 169a0 <BlockDevInit+0x1d8>
   16954:	ebffecf8 	bl	11d3c <rprintf>
   16958:	e1a00005 	mov	r0, r5
   1695c:	ea000002 	b	1696c <BlockDevInit+0x1a4>
   16960:	e59f003c 	ldr	r0, [pc, #60]	; 169a4 <BlockDevInit+0x1dc>
   16964:	ebffecf4 	bl	11d3c <rprintf>
   16968:	e3e00001 	mvn	r0, #1	; 0x1
   1696c:	e8bd4030 	pop	{r4, r5, lr}
   16970:	e12fff1e 	bx	lr
   16974:	00019664 	.word	0x00019664
   16978:	00019670 	.word	0x00019670
   1697c:	0001967c 	.word	0x0001967c
   16980:	00019690 	.word	0x00019690
   16984:	000196b8 	.word	0x000196b8
   16988:	000196e4 	.word	0x000196e4
   1698c:	00019708 	.word	0x00019708
   16990:	00019748 	.word	0x00019748
   16994:	00019764 	.word	0x00019764
   16998:	00019790 	.word	0x00019790
   1699c:	000197b0 	.word	0x000197b0
   169a0:	000197e0 	.word	0x000197e0
   169a4:	000197f4 	.word	0x000197f4

000169a8 <SPISetSpeed>:
   169a8:	e20000fe 	and	r0, r0, #254	; 0xfe
   169ac:	e3500007 	cmp	r0, #7	; 0x7
   169b0:	e59f3008 	ldr	r3, [pc, #8]	; 169c0 <SPISetSpeed+0x18>
   169b4:	93a00008 	movls	r0, #8	; 0x8
   169b8:	e5c3000c 	strb	r0, [r3, #12]
   169bc:	e12fff1e 	bx	lr
   169c0:	e0020000 	.word	0xe0020000

000169c4 <SPISend>:
   169c4:	e59f203c 	ldr	r2, [pc, #60]	; 16a08 <SPISend+0x44>
   169c8:	e592300c 	ldr	r3, [r2, #12]
   169cc:	e3833080 	orr	r3, r3, #128	; 0x80
   169d0:	e582300c 	str	r3, [r2, #12]
   169d4:	e59f3030 	ldr	r3, [pc, #48]	; 16a0c <SPISend+0x48>
   169d8:	e20000ff 	and	r0, r0, #255	; 0xff
   169dc:	e5c30008 	strb	r0, [r3, #8]
   169e0:	e59f2024 	ldr	r2, [pc, #36]	; 16a0c <SPISend+0x48>
   169e4:	e5d23004 	ldrb	r3, [r2, #4]
   169e8:	e3130080 	tst	r3, #128	; 0x80
   169ec:	0afffffb 	beq	169e0 <SPISend+0x1c>
   169f0:	e59f3010 	ldr	r3, [pc, #16]	; 16a08 <SPISend+0x44>
   169f4:	e5d20008 	ldrb	r0, [r2, #8]
   169f8:	e5932004 	ldr	r2, [r3, #4]
   169fc:	e3822080 	orr	r2, r2, #128	; 0x80
   16a00:	e5832004 	str	r2, [r3, #4]
   16a04:	e12fff1e 	bx	lr
   16a08:	e0028000 	.word	0xe0028000
   16a0c:	e0020000 	.word	0xe0020000

00016a10 <SPISendN>:
   16a10:	e59f204c 	ldr	r2, [pc, #76]	; 16a64 <SPISendN+0x54>
   16a14:	e592300c 	ldr	r3, [r2, #12]
   16a18:	e3a0c000 	mov	ip, #0	; 0x0
   16a1c:	e3833080 	orr	r3, r3, #128	; 0x80
   16a20:	e582300c 	str	r3, [r2, #12]
   16a24:	ea000007 	b	16a48 <SPISendN+0x38>
   16a28:	e7d0200c 	ldrb	r2, [r0, ip]
   16a2c:	e59f3034 	ldr	r3, [pc, #52]	; 16a68 <SPISendN+0x58>
   16a30:	e5c32008 	strb	r2, [r3, #8]
   16a34:	e59f302c 	ldr	r3, [pc, #44]	; 16a68 <SPISendN+0x58>
   16a38:	e5d33004 	ldrb	r3, [r3, #4]
   16a3c:	e3130080 	tst	r3, #128	; 0x80
   16a40:	0afffffb 	beq	16a34 <SPISendN+0x24>
   16a44:	e28cc001 	add	ip, ip, #1	; 0x1
   16a48:	e15c0001 	cmp	ip, r1
   16a4c:	bafffff5 	blt	16a28 <SPISendN+0x18>
   16a50:	e59f200c 	ldr	r2, [pc, #12]	; 16a64 <SPISendN+0x54>
   16a54:	e5923004 	ldr	r3, [r2, #4]
   16a58:	e3833080 	orr	r3, r3, #128	; 0x80
   16a5c:	e5823004 	str	r3, [r2, #4]
   16a60:	e12fff1e 	bx	lr
   16a64:	e0028000 	.word	0xe0028000
   16a68:	e0020000 	.word	0xe0020000

00016a6c <SPIRecvN>:
   16a6c:	e59f2054 	ldr	r2, [pc, #84]	; 16ac8 <SPIRecvN+0x5c>
   16a70:	e592300c 	ldr	r3, [r2, #12]
   16a74:	e3a0c000 	mov	ip, #0	; 0x0
   16a78:	e3833080 	orr	r3, r3, #128	; 0x80
   16a7c:	e582300c 	str	r3, [r2, #12]
   16a80:	ea000009 	b	16aac <SPIRecvN+0x40>
   16a84:	e59f3040 	ldr	r3, [pc, #64]	; 16acc <SPIRecvN+0x60>
   16a88:	e3e02000 	mvn	r2, #0	; 0x0
   16a8c:	e5c32008 	strb	r2, [r3, #8]
   16a90:	e59f2034 	ldr	r2, [pc, #52]	; 16acc <SPIRecvN+0x60>
   16a94:	e5d23004 	ldrb	r3, [r2, #4]
   16a98:	e3130080 	tst	r3, #128	; 0x80
   16a9c:	0afffffb 	beq	16a90 <SPIRecvN+0x24>
   16aa0:	e5d23008 	ldrb	r3, [r2, #8]
   16aa4:	e7c0300c 	strb	r3, [r0, ip]
   16aa8:	e28cc001 	add	ip, ip, #1	; 0x1
   16aac:	e15c0001 	cmp	ip, r1
   16ab0:	bafffff3 	blt	16a84 <SPIRecvN+0x18>
   16ab4:	e59f200c 	ldr	r2, [pc, #12]	; 16ac8 <SPIRecvN+0x5c>
   16ab8:	e5923004 	ldr	r3, [r2, #4]
   16abc:	e3833080 	orr	r3, r3, #128	; 0x80
   16ac0:	e5823004 	str	r3, [r2, #4]
   16ac4:	e12fff1e 	bx	lr
   16ac8:	e0028000 	.word	0xe0028000
   16acc:	e0020000 	.word	0xe0020000

00016ad0 <SPIInit>:
   16ad0:	e59f00a8 	ldr	r0, [pc, #168]	; 16b80 <SPIInit+0xb0>
   16ad4:	e52de004 	push	{lr}		; (str lr, [sp, #-4]!)
   16ad8:	ebffec97 	bl	11d3c <rprintf>
   16adc:	e59f10a0 	ldr	r1, [pc, #160]	; 16b84 <SPIInit+0xb4>
   16ae0:	e3a00000 	mov	r0, #0	; 0x0
   16ae4:	e5810014 	str	r0, [r1, #20]
   16ae8:	e59f2098 	ldr	r2, [pc, #152]	; 16b88 <SPIInit+0xb8>
   16aec:	e5923008 	ldr	r3, [r2, #8]
   16af0:	e3833050 	orr	r3, r3, #80	; 0x50
   16af4:	e5823008 	str	r3, [r2, #8]
   16af8:	e5923008 	ldr	r3, [r2, #8]
   16afc:	e3833080 	orr	r3, r3, #128	; 0x80
   16b00:	e5823008 	str	r3, [r2, #8]
   16b04:	e5923008 	ldr	r3, [r2, #8]
   16b08:	e3c33020 	bic	r3, r3, #32	; 0x20
   16b0c:	e5823008 	str	r3, [r2, #8]
   16b10:	e5913000 	ldr	r3, [r1]
   16b14:	e3c33c3f 	bic	r3, r3, #16128	; 0x3f00
   16b18:	e5813000 	str	r3, [r1]
   16b1c:	e5913000 	ldr	r3, [r1]
   16b20:	e3833c15 	orr	r3, r3, #5376	; 0x1500
   16b24:	e5813000 	str	r3, [r1]
   16b28:	e5923004 	ldr	r3, [r2, #4]
   16b2c:	e3833080 	orr	r3, r3, #128	; 0x80
   16b30:	e5823004 	str	r3, [r2, #4]
   16b34:	e2411903 	sub	r1, r1, #49152	; 0xc000
   16b38:	e3a03020 	mov	r3, #32	; 0x20
   16b3c:	e5c13000 	strb	r3, [r1]
   16b40:	e3e03001 	mvn	r3, #1	; 0x1
   16b44:	e5c1300c 	strb	r3, [r1, #12]
   16b48:	e59f303c 	ldr	r3, [pc, #60]	; 16b8c <SPIInit+0xbc>
   16b4c:	e3e02000 	mvn	r2, #0	; 0x0
   16b50:	e5c32008 	strb	r2, [r3, #8]
   16b54:	e59f2030 	ldr	r2, [pc, #48]	; 16b8c <SPIInit+0xbc>
   16b58:	e5d23004 	ldrb	r3, [r2, #4]
   16b5c:	e3130080 	tst	r3, #128	; 0x80
   16b60:	0afffffb 	beq	16b54 <SPIInit+0x84>
   16b64:	e2803001 	add	r3, r0, #1	; 0x1
   16b68:	e20300ff 	and	r0, r3, #255	; 0xff
   16b6c:	e3500015 	cmp	r0, #21	; 0x15
   16b70:	e5d23008 	ldrb	r3, [r2, #8]
   16b74:	1afffff3 	bne	16b48 <SPIInit+0x78>
   16b78:	e49de004 	pop	{lr}		; (ldr lr, [sp], #4)
   16b7c:	e12fff1e 	bx	lr
   16b80:	00019828 	.word	0x00019828
   16b84:	e002c000 	.word	0xe002c000
   16b88:	e0028000 	.word	0xe0028000
   16b8c:	e0020000 	.word	0xe0020000

00016b90 <HandleUsbReset>:
   16b90:	e12fff1e 	bx	lr

00016b94 <USBInit>:
   16b94:	e92d4010 	push	{r4, lr}
   16b98:	e59f4054 	ldr	r4, [pc, #84]	; 16bf4 <USBInit+0x60>
   16b9c:	eb00013d 	bl	17098 <USBHwInit>
   16ba0:	e59f0050 	ldr	r0, [pc, #80]	; 16bf8 <USBInit+0x64>
   16ba4:	eb000074 	bl	16d7c <USBHwRegisterDevIntHandler>
   16ba8:	e1a01004 	mov	r1, r4
   16bac:	e3a00000 	mov	r0, #0	; 0x0
   16bb0:	eb00005e 	bl	16d30 <USBHwRegisterEPIntHandler>
   16bb4:	e1a01004 	mov	r1, r4
   16bb8:	e3a00080 	mov	r0, #128	; 0x80
   16bbc:	eb00005b 	bl	16d30 <USBHwRegisterEPIntHandler>
   16bc0:	e3a00000 	mov	r0, #0	; 0x0
   16bc4:	e3a01040 	mov	r1, #64	; 0x40
   16bc8:	eb000041 	bl	16cd4 <USBHwEPConfig>
   16bcc:	e3a00080 	mov	r0, #128	; 0x80
   16bd0:	e3a01040 	mov	r1, #64	; 0x40
   16bd4:	eb00003e 	bl	16cd4 <USBHwEPConfig>
   16bd8:	e3a00000 	mov	r0, #0	; 0x0
   16bdc:	e59f1018 	ldr	r1, [pc, #24]	; 16bfc <USBInit+0x68>
   16be0:	e59f2018 	ldr	r2, [pc, #24]	; 16c00 <USBInit+0x6c>
   16be4:	eb00016c 	bl	1719c <USBRegisterRequestHandler>
   16be8:	e3a00001 	mov	r0, #1	; 0x1
   16bec:	e8bd4010 	pop	{r4, lr}
   16bf0:	e12fff1e 	bx	lr
   16bf4:	00017220 	.word	0x00017220
   16bf8:	00016b90 	.word	0x00016b90
   16bfc:	00017410 	.word	0x00017410
   16c00:	40001174 	.word	0x40001174

00016c04 <USBHwCmd>:
   16c04:	e1a00800 	lsl	r0, r0, #16
   16c08:	e59f202c 	ldr	r2, [pc, #44]	; 16c3c <USBHwCmd+0x38>
   16c0c:	e20008ff 	and	r0, r0, #16711680	; 0xff0000
   16c10:	e3800c05 	orr	r0, r0, #1280	; 0x500
   16c14:	e3a03030 	mov	r3, #48	; 0x30
   16c18:	e5823008 	str	r3, [r2, #8]
   16c1c:	e5820010 	str	r0, [r2, #16]
   16c20:	e59f2014 	ldr	r2, [pc, #20]	; 16c3c <USBHwCmd+0x38>
   16c24:	e5923000 	ldr	r3, [r2]
   16c28:	e2033010 	and	r3, r3, #16	; 0x10
   16c2c:	e3530010 	cmp	r3, #16	; 0x10
   16c30:	1afffffa 	bne	16c20 <USBHwCmd+0x1c>
   16c34:	e5823008 	str	r3, [r2, #8]
   16c38:	e12fff1e 	bx	lr
   16c3c:	e0090000 	.word	0xe0090000

00016c40 <USBHwCmdWrite>:
   16c40:	e92d4010 	push	{r4, lr}
   16c44:	e1a04801 	lsl	r4, r1, #16
   16c48:	e20000ff 	and	r0, r0, #255	; 0xff
   16c4c:	e1a04824 	lsr	r4, r4, #16
   16c50:	ebffffeb 	bl	16c04 <USBHwCmd>
   16c54:	e1a04804 	lsl	r4, r4, #16
   16c58:	e59f3024 	ldr	r3, [pc, #36]	; 16c84 <USBHwCmdWrite+0x44>
   16c5c:	e3844c01 	orr	r4, r4, #256	; 0x100
   16c60:	e5834010 	str	r4, [r3, #16]
   16c64:	e59f2018 	ldr	r2, [pc, #24]	; 16c84 <USBHwCmdWrite+0x44>
   16c68:	e5923000 	ldr	r3, [r2]
   16c6c:	e2033010 	and	r3, r3, #16	; 0x10
   16c70:	e3530010 	cmp	r3, #16	; 0x10
   16c74:	1afffffa 	bne	16c64 <USBHwCmdWrite+0x24>
   16c78:	e5823008 	str	r3, [r2, #8]
   16c7c:	e8bd4010 	pop	{r4, lr}
   16c80:	e12fff1e 	bx	lr
   16c84:	e0090000 	.word	0xe0090000

00016c88 <USBHwCmdRead>:
   16c88:	e92d4010 	push	{r4, lr}
   16c8c:	e20040ff 	and	r4, r0, #255	; 0xff
   16c90:	e1a00004 	mov	r0, r4
   16c94:	ebffffda 	bl	16c04 <USBHwCmd>
   16c98:	e1a04804 	lsl	r4, r4, #16
   16c9c:	e59f302c 	ldr	r3, [pc, #44]	; 16cd0 <USBHwCmdRead+0x48>
   16ca0:	e3844c02 	orr	r4, r4, #512	; 0x200
   16ca4:	e5834010 	str	r4, [r3, #16]
   16ca8:	e59f2020 	ldr	r2, [pc, #32]	; 16cd0 <USBHwCmdRead+0x48>
   16cac:	e5923000 	ldr	r3, [r2]
   16cb0:	e2033020 	and	r3, r3, #32	; 0x20
   16cb4:	e3530020 	cmp	r3, #32	; 0x20
   16cb8:	1afffffa 	bne	16ca8 <USBHwCmdRead+0x20>
   16cbc:	e5823008 	str	r3, [r2, #8]
   16cc0:	e5920014 	ldr	r0, [r2, #20]
   16cc4:	e20000ff 	and	r0, r0, #255	; 0xff
   16cc8:	e8bd4010 	pop	{r4, lr}
   16ccc:	e12fff1e 	bx	lr
   16cd0:	e0090000 	.word	0xe0090000

00016cd4 <USBHwEPConfig>:
   16cd4:	e59fc050 	ldr	ip, [pc, #80]	; 16d2c <USBHwEPConfig+0x58>
   16cd8:	e2003080 	and	r3, r0, #128	; 0x80
   16cdc:	e59c2044 	ldr	r2, [ip, #68]
   16ce0:	e1a033c3 	asr	r3, r3, #7
   16ce4:	e200000f 	and	r0, r0, #15	; 0xf
   16ce8:	e1830080 	orr	r0, r3, r0, lsl #1
   16cec:	e3a03001 	mov	r3, #1	; 0x1
   16cf0:	e1822013 	orr	r2, r2, r3, lsl r0
   16cf4:	e1a01801 	lsl	r1, r1, #16
   16cf8:	e1a01821 	lsr	r1, r1, #16
   16cfc:	e58c2044 	str	r2, [ip, #68]
   16d00:	e58c0048 	str	r0, [ip, #72]
   16d04:	e58c104c 	str	r1, [ip, #76]
   16d08:	e59f201c 	ldr	r2, [pc, #28]	; 16d2c <USBHwEPConfig+0x58>
   16d0c:	e5923000 	ldr	r3, [r2]
   16d10:	e2033c01 	and	r3, r3, #256	; 0x100
   16d14:	e3530c01 	cmp	r3, #256	; 0x100
   16d18:	1afffffa 	bne	16d08 <USBHwEPConfig+0x34>
   16d1c:	e3800040 	orr	r0, r0, #64	; 0x40
   16d20:	e3a01000 	mov	r1, #0	; 0x0
   16d24:	e5823008 	str	r3, [r2, #8]
   16d28:	eaffffc4 	b	16c40 <USBHwCmdWrite>
   16d2c:	e0090000 	.word	0xe0090000

00016d30 <USBHwRegisterEPIntHandler>:
   16d30:	e52de004 	push	{lr}		; (str lr, [sp, #-4]!)
   16d34:	e59fe038 	ldr	lr, [pc, #56]	; 16d74 <USBHwRegisterEPIntHandler+0x44>
   16d38:	e2003080 	and	r3, r0, #128	; 0x80
   16d3c:	e59ec034 	ldr	ip, [lr, #52]
   16d40:	e200000f 	and	r0, r0, #15	; 0xf
   16d44:	e1a033c3 	asr	r3, r3, #7
   16d48:	e1833080 	orr	r3, r3, r0, lsl #1
   16d4c:	e3a02001 	mov	r2, #1	; 0x1
   16d50:	e18cc312 	orr	ip, ip, r2, lsl r3
   16d54:	e58ec034 	str	ip, [lr, #52]
   16d58:	e59e3004 	ldr	r3, [lr, #4]
   16d5c:	e59f2014 	ldr	r2, [pc, #20]	; 16d78 <USBHwRegisterEPIntHandler+0x48>
   16d60:	e3833004 	orr	r3, r3, #4	; 0x4
   16d64:	e7821100 	str	r1, [r2, r0, lsl #2]
   16d68:	e58e3004 	str	r3, [lr, #4]
   16d6c:	e49de004 	pop	{lr}		; (ldr lr, [sp], #4)
   16d70:	e12fff1e 	bx	lr
   16d74:	e0090000 	.word	0xe0090000
   16d78:	40001184 	.word	0x40001184

00016d7c <USBHwRegisterDevIntHandler>:
   16d7c:	e59f3014 	ldr	r3, [pc, #20]	; 16d98 <USBHwRegisterDevIntHandler+0x1c>
   16d80:	e5932004 	ldr	r2, [r3, #4]
   16d84:	e59f1010 	ldr	r1, [pc, #16]	; 16d9c <USBHwRegisterDevIntHandler+0x20>
   16d88:	e3822008 	orr	r2, r2, #8	; 0x8
   16d8c:	e5810000 	str	r0, [r1]
   16d90:	e5832004 	str	r2, [r3, #4]
   16d94:	e12fff1e 	bx	lr
   16d98:	e0090000 	.word	0xe0090000
   16d9c:	40001180 	.word	0x40001180

00016da0 <USBHwRegisterFrameHandler>:
   16da0:	e59f3014 	ldr	r3, [pc, #20]	; 16dbc <USBHwRegisterFrameHandler+0x1c>
   16da4:	e5932004 	ldr	r2, [r3, #4]
   16da8:	e59f1010 	ldr	r1, [pc, #16]	; 16dc0 <USBHwRegisterFrameHandler+0x20>
   16dac:	e3822001 	orr	r2, r2, #1	; 0x1
   16db0:	e5810000 	str	r0, [r1]
   16db4:	e5832004 	str	r2, [r3, #4]
   16db8:	e12fff1e 	bx	lr
   16dbc:	e0090000 	.word	0xe0090000
   16dc0:	4000117c 	.word	0x4000117c

00016dc4 <USBHwSetAddress>:
   16dc4:	e20010ff 	and	r1, r0, #255	; 0xff
   16dc8:	e3811080 	orr	r1, r1, #128	; 0x80
   16dcc:	e3a000d0 	mov	r0, #208	; 0xd0
   16dd0:	eaffff9a 	b	16c40 <USBHwCmdWrite>

00016dd4 <USBHwConnect>:
   16dd4:	e2501000 	subs	r1, r0, #0	; 0x0
   16dd8:	13a01001 	movne	r1, #1	; 0x1
   16ddc:	e3a000fe 	mov	r0, #254	; 0xfe
   16de0:	eaffff96 	b	16c40 <USBHwCmdWrite>

00016de4 <USBHwNakIntEnable>:
   16de4:	e20010ff 	and	r1, r0, #255	; 0xff
   16de8:	e3a000f3 	mov	r0, #243	; 0xf3
   16dec:	eaffff93 	b	16c40 <USBHwCmdWrite>

00016df0 <USBHwEPGetStatus>:
   16df0:	e1a03000 	mov	r3, r0
   16df4:	e2000080 	and	r0, r0, #128	; 0x80
   16df8:	e203300f 	and	r3, r3, #15	; 0xf
   16dfc:	e1a003c0 	asr	r0, r0, #7
   16e00:	e52de004 	push	{lr}		; (str lr, [sp, #-4]!)
   16e04:	e1800083 	orr	r0, r0, r3, lsl #1
   16e08:	ebffff9e 	bl	16c88 <USBHwCmdRead>
   16e0c:	e49de004 	pop	{lr}		; (ldr lr, [sp], #4)
   16e10:	e12fff1e 	bx	lr

00016e14 <USBHwEPStall>:
   16e14:	e2003080 	and	r3, r0, #128	; 0x80
   16e18:	e1a033c3 	asr	r3, r3, #7
   16e1c:	e200000f 	and	r0, r0, #15	; 0xf
   16e20:	e1833080 	orr	r3, r3, r0, lsl #1
   16e24:	e2511000 	subs	r1, r1, #0	; 0x0
   16e28:	13a01001 	movne	r1, #1	; 0x1
   16e2c:	e3830040 	orr	r0, r3, #64	; 0x40
   16e30:	eaffff82 	b	16c40 <USBHwCmdWrite>

00016e34 <USBHwEPWrite>:
   16e34:	e92d4030 	push	{r4, r5, lr}
   16e38:	e200400f 	and	r4, r0, #15	; 0xf
   16e3c:	e59fc074 	ldr	ip, [pc, #116]	; 16eb8 <USBHwEPWrite+0x84>
   16e40:	e1a03104 	lsl	r3, r4, #2
   16e44:	e3833002 	orr	r3, r3, #2	; 0x2
   16e48:	e1a05002 	mov	r5, r2
   16e4c:	e1a0e001 	mov	lr, r1
   16e50:	e20000ff 	and	r0, r0, #255	; 0xff
   16e54:	e58c3028 	str	r3, [ip, #40]
   16e58:	e58c2024 	str	r2, [ip, #36]
   16e5c:	ea000008 	b	16e84 <USBHwEPWrite+0x50>
   16e60:	e55e3002 	ldrb	r3, [lr, #-2]
   16e64:	e55e2001 	ldrb	r2, [lr, #-1]
   16e68:	e55e1004 	ldrb	r1, [lr, #-4]
   16e6c:	e1a03803 	lsl	r3, r3, #16
   16e70:	e1833c02 	orr	r3, r3, r2, lsl #24
   16e74:	e55e2003 	ldrb	r2, [lr, #-3]
   16e78:	e1833001 	orr	r3, r3, r1
   16e7c:	e1833402 	orr	r3, r3, r2, lsl #8
   16e80:	e58c301c 	str	r3, [ip, #28]
   16e84:	e59fc02c 	ldr	ip, [pc, #44]	; 16eb8 <USBHwEPWrite+0x84>
   16e88:	e59c3028 	ldr	r3, [ip, #40]
   16e8c:	e3130002 	tst	r3, #2	; 0x2
   16e90:	e28ee004 	add	lr, lr, #4	; 0x4
   16e94:	1afffff1 	bne	16e60 <USBHwEPWrite+0x2c>
   16e98:	e1a003a0 	lsr	r0, r0, #7
   16e9c:	e1800084 	orr	r0, r0, r4, lsl #1
   16ea0:	ebffff57 	bl	16c04 <USBHwCmd>
   16ea4:	e3a000fa 	mov	r0, #250	; 0xfa
   16ea8:	ebffff55 	bl	16c04 <USBHwCmd>
   16eac:	e1a00005 	mov	r0, r5
   16eb0:	e8bd4030 	pop	{r4, r5, lr}
   16eb4:	e12fff1e 	bx	lr
   16eb8:	e0090000 	.word	0xe0090000

00016ebc <USBHwEPRead>:
   16ebc:	e92d4010 	push	{r4, lr}
   16ec0:	e200e00f 	and	lr, r0, #15	; 0xf
   16ec4:	e1a0310e 	lsl	r3, lr, #2
   16ec8:	e59fc08c 	ldr	ip, [pc, #140]	; 16f5c <USBHwEPRead+0xa0>
   16ecc:	e3833001 	orr	r3, r3, #1	; 0x1
   16ed0:	e58c3028 	str	r3, [ip, #40]
   16ed4:	e20000ff 	and	r0, r0, #255	; 0xff
   16ed8:	e59f307c 	ldr	r3, [pc, #124]	; 16f5c <USBHwEPRead+0xa0>
   16edc:	e5933020 	ldr	r3, [r3, #32]
   16ee0:	e3130b02 	tst	r3, #2048	; 0x800
   16ee4:	0afffffb 	beq	16ed8 <USBHwEPRead+0x1c>
   16ee8:	e3130b01 	tst	r3, #1024	; 0x400
   16eec:	03e04000 	mvneq	r4, #0	; 0x0
   16ef0:	0a000016 	beq	16f50 <USBHwEPRead+0x94>
   16ef4:	e1a0cb03 	lsl	ip, r3, #22
   16ef8:	e3a04000 	mov	r4, #0	; 0x0
   16efc:	e1a0cb2c 	lsr	ip, ip, #22
   16f00:	e1a03004 	mov	r3, r4
   16f04:	ea000007 	b	16f28 <USBHwEPRead+0x6c>
   16f08:	e3140003 	tst	r4, #3	; 0x3
   16f0c:	059f3048 	ldreq	r3, [pc, #72]	; 16f5c <USBHwEPRead+0xa0>
   16f10:	05933018 	ldreq	r3, [r3, #24]
   16f14:	e3510000 	cmp	r1, #0	; 0x0
   16f18:	11540002 	cmpne	r4, r2
   16f1c:	b7c43001 	strblt	r3, [r4, r1]
   16f20:	e1a03423 	lsr	r3, r3, #8
   16f24:	e2844001 	add	r4, r4, #1	; 0x1
   16f28:	e154000c 	cmp	r4, ip
   16f2c:	1afffff5 	bne	16f08 <USBHwEPRead+0x4c>
   16f30:	e59f3024 	ldr	r3, [pc, #36]	; 16f5c <USBHwEPRead+0xa0>
   16f34:	e3a02000 	mov	r2, #0	; 0x0
   16f38:	e1a003a0 	lsr	r0, r0, #7
   16f3c:	e180008e 	orr	r0, r0, lr, lsl #1
   16f40:	e5832028 	str	r2, [r3, #40]
   16f44:	ebffff2e 	bl	16c04 <USBHwCmd>
   16f48:	e3a000f2 	mov	r0, #242	; 0xf2
   16f4c:	ebffff2c 	bl	16c04 <USBHwCmd>
   16f50:	e1a00004 	mov	r0, r4
   16f54:	e8bd4010 	pop	{r4, lr}
   16f58:	e12fff1e 	bx	lr
   16f5c:	e0090000 	.word	0xe0090000

00016f60 <USBHwConfigDevice>:
   16f60:	e2501000 	subs	r1, r0, #0	; 0x0
   16f64:	13a01001 	movne	r1, #1	; 0x1
   16f68:	e3a000d8 	mov	r0, #216	; 0xd8
   16f6c:	eaffff33 	b	16c40 <USBHwCmdWrite>

00016f70 <USBHwISR>:
   16f70:	e59f2110 	ldr	r2, [pc, #272]	; 17088 <USBHwISR+0x118>
   16f74:	e92d4030 	push	{r4, r5, lr}
   16f78:	e5925000 	ldr	r5, [r2]
   16f7c:	e3150001 	tst	r5, #1	; 0x1
   16f80:	0a00000b 	beq	16fb4 <USBHwISR+0x44>
   16f84:	e59f3100 	ldr	r3, [pc, #256]	; 1708c <USBHwISR+0x11c>
   16f88:	e5934000 	ldr	r4, [r3]
   16f8c:	e3a03001 	mov	r3, #1	; 0x1
   16f90:	e3540000 	cmp	r4, #0	; 0x0
   16f94:	e5823008 	str	r3, [r2, #8]
   16f98:	0a000005 	beq	16fb4 <USBHwISR+0x44>
   16f9c:	e3a000f5 	mov	r0, #245	; 0xf5
   16fa0:	ebffff38 	bl	16c88 <USBHwCmdRead>
   16fa4:	e1a00800 	lsl	r0, r0, #16
   16fa8:	e1a00820 	lsr	r0, r0, #16
   16fac:	e1a0e00f 	mov	lr, pc
   16fb0:	e12fff14 	bx	r4
   16fb4:	e3150008 	tst	r5, #8	; 0x8
   16fb8:	0a00000c 	beq	16ff0 <USBHwISR+0x80>
   16fbc:	e59f30c4 	ldr	r3, [pc, #196]	; 17088 <USBHwISR+0x118>
   16fc0:	e3a02008 	mov	r2, #8	; 0x8
   16fc4:	e3a000fe 	mov	r0, #254	; 0xfe
   16fc8:	e5832008 	str	r2, [r3, #8]
   16fcc:	ebffff2d 	bl	16c88 <USBHwCmdRead>
   16fd0:	e310001a 	tst	r0, #26	; 0x1a
   16fd4:	0a000005 	beq	16ff0 <USBHwISR+0x80>
   16fd8:	e59f30b0 	ldr	r3, [pc, #176]	; 17090 <USBHwISR+0x120>
   16fdc:	e5933000 	ldr	r3, [r3]
   16fe0:	e3530000 	cmp	r3, #0	; 0x0
   16fe4:	12000015 	andne	r0, r0, #21	; 0x15
   16fe8:	11a0e00f 	movne	lr, pc
   16fec:	112fff13 	bxne	r3
   16ff0:	e3150004 	tst	r5, #4	; 0x4
   16ff4:	0a000021 	beq	17080 <USBHwISR+0x110>
   16ff8:	e59f3088 	ldr	r3, [pc, #136]	; 17088 <USBHwISR+0x118>
   16ffc:	e3a02004 	mov	r2, #4	; 0x4
   17000:	e5832008 	str	r2, [r3, #8]
   17004:	e3a04000 	mov	r4, #0	; 0x0
   17008:	e3a03001 	mov	r3, #1	; 0x1
   1700c:	e1a02413 	lsl	r2, r3, r4
   17010:	e59f1070 	ldr	r1, [pc, #112]	; 17088 <USBHwISR+0x118>
   17014:	e5913030 	ldr	r3, [r1, #48]
   17018:	e1130002 	tst	r3, r2
   1701c:	0a000014 	beq	17074 <USBHwISR+0x104>
   17020:	e5812038 	str	r2, [r1, #56]
   17024:	e59f105c 	ldr	r1, [pc, #92]	; 17088 <USBHwISR+0x118>
   17028:	e5913000 	ldr	r3, [r1]
   1702c:	e2030020 	and	r0, r3, #32	; 0x20
   17030:	e3500020 	cmp	r0, #32	; 0x20
   17034:	1afffffa 	bne	17024 <USBHwISR+0xb4>
   17038:	e0843fa4 	add	r3, r4, r4, lsr #31
   1703c:	e59f2050 	ldr	r2, [pc, #80]	; 17094 <USBHwISR+0x124>
   17040:	e1a030c3 	asr	r3, r3, #1
   17044:	e7923103 	ldr	r3, [r2, r3, lsl #2]
   17048:	e5810008 	str	r0, [r1, #8]
   1704c:	e3530000 	cmp	r3, #0	; 0x0
   17050:	e5911014 	ldr	r1, [r1, #20]
   17054:	0a000006 	beq	17074 <USBHwISR+0x104>
   17058:	e1a000c4 	asr	r0, r4, #1
   1705c:	e200000f 	and	r0, r0, #15	; 0xf
   17060:	e1800384 	orr	r0, r0, r4, lsl #7
   17064:	e200008f 	and	r0, r0, #143	; 0x8f
   17068:	e201101f 	and	r1, r1, #31	; 0x1f
   1706c:	e1a0e00f 	mov	lr, pc
   17070:	e12fff13 	bx	r3
   17074:	e2844001 	add	r4, r4, #1	; 0x1
   17078:	e3540020 	cmp	r4, #32	; 0x20
   1707c:	1affffe1 	bne	17008 <USBHwISR+0x98>
   17080:	e8bd4030 	pop	{r4, r5, lr}
   17084:	e12fff1e 	bx	lr
   17088:	e0090000 	.word	0xe0090000
   1708c:	4000117c 	.word	0x4000117c
   17090:	40001180 	.word	0x40001180
   17094:	40001184 	.word	0x40001184

00017098 <USBHwInit>:
   17098:	e59f20b0 	ldr	r2, [pc, #176]	; 17150 <USBHwInit+0xb8>
   1709c:	e5923004 	ldr	r3, [r2, #4]
   170a0:	e3c33903 	bic	r3, r3, #49152	; 0xc000
   170a4:	e3833901 	orr	r3, r3, #16384	; 0x4000
   170a8:	e5823004 	str	r3, [r2, #4]
   170ac:	e5923004 	ldr	r3, [r2, #4]
   170b0:	e3c33103 	bic	r3, r3, #-1073741824	; 0xc0000000
   170b4:	e3833102 	orr	r3, r3, #-2147483648	; 0x80000000
   170b8:	e5823004 	str	r3, [r2, #4]
   170bc:	e282281d 	add	r2, r2, #1900544	; 0x1d0000
   170c0:	e59230c4 	ldr	r3, [r2, #196]
   170c4:	e3833102 	orr	r3, r3, #-2147483648	; 0x80000000
   170c8:	e58230c4 	str	r3, [r2, #196]
   170cc:	e3a03001 	mov	r3, #1	; 0x1
   170d0:	e58230a0 	str	r3, [r2, #160]
   170d4:	e52de004 	push	{lr}		; (str lr, [sp, #-4]!)
   170d8:	e2833022 	add	r3, r3, #34	; 0x22
   170dc:	e58230a4 	str	r3, [r2, #164]
   170e0:	e2833087 	add	r3, r3, #135	; 0x87
   170e4:	e58230ac 	str	r3, [r2, #172]
   170e8:	e3a03055 	mov	r3, #85	; 0x55
   170ec:	e58230ac 	str	r3, [r2, #172]
   170f0:	e59fe05c 	ldr	lr, [pc, #92]	; 17154 <USBHwInit+0xbc>
   170f4:	e59e30a8 	ldr	r3, [lr, #168]
   170f8:	e3130b01 	tst	r3, #1024	; 0x400
   170fc:	0afffffb 	beq	170f0 <USBHwInit+0x58>
   17100:	e3a03003 	mov	r3, #3	; 0x3
   17104:	e58e30a0 	str	r3, [lr, #160]
   17108:	e59f2048 	ldr	r2, [pc, #72]	; 17158 <USBHwInit+0xc0>
   1710c:	e28330a7 	add	r3, r3, #167	; 0xa7
   17110:	e58e30ac 	str	r3, [lr, #172]
   17114:	e3a01000 	mov	r1, #0	; 0x0
   17118:	e3e0c000 	mvn	ip, #0	; 0x0
   1711c:	e3a03055 	mov	r3, #85	; 0x55
   17120:	e58e30ac 	str	r3, [lr, #172]
   17124:	e1a00001 	mov	r0, r1
   17128:	e5821004 	str	r1, [r2, #4]
   1712c:	e582c008 	str	ip, [r2, #8]
   17130:	e582102c 	str	r1, [r2, #44]
   17134:	e5821034 	str	r1, [r2, #52]
   17138:	e582c038 	str	ip, [r2, #56]
   1713c:	e5821040 	str	r1, [r2, #64]
   17140:	ebffff27 	bl	16de4 <USBHwNakIntEnable>
   17144:	e3a00001 	mov	r0, #1	; 0x1
   17148:	e49de004 	pop	{lr}		; (ldr lr, [sp], #4)
   1714c:	e12fff1e 	bx	lr
   17150:	e002c000 	.word	0xe002c000
   17154:	e01fc000 	.word	0xe01fc000
   17158:	e0090000 	.word	0xe0090000

0001715c <_HandleRequest>:
   1715c:	e52de004 	push	{lr}		; (str lr, [sp, #-4]!)
   17160:	e5d03000 	ldrb	r3, [r0]
   17164:	e59fc02c 	ldr	ip, [pc, #44]	; 17198 <_HandleRequest+0x3c>
   17168:	e1a032a3 	lsr	r3, r3, #5
   1716c:	e2033003 	and	r3, r3, #3	; 0x3
   17170:	e79c3103 	ldr	r3, [ip, r3, lsl #2]
   17174:	e3530000 	cmp	r3, #0	; 0x0
   17178:	e1a0c003 	mov	ip, r3
   1717c:	0a000002 	beq	1718c <_HandleRequest+0x30>
   17180:	e1a0e00f 	mov	lr, pc
   17184:	e12fff13 	bx	r3
   17188:	e1a0c000 	mov	ip, r0
   1718c:	e1a0000c 	mov	r0, ip
   17190:	e49de004 	pop	{lr}		; (ldr lr, [sp], #4)
   17194:	e12fff1e 	bx	lr
   17198:	400011c4 	.word	0x400011c4

0001719c <USBRegisterRequestHandler>:
   1719c:	e59f300c 	ldr	r3, [pc, #12]	; 171b0 <USBRegisterRequestHandler+0x14>
   171a0:	e7832100 	str	r2, [r3, r0, lsl #2]
   171a4:	e59f3008 	ldr	r3, [pc, #8]	; 171b4 <USBRegisterRequestHandler+0x18>
   171a8:	e7831100 	str	r1, [r3, r0, lsl #2]
   171ac:	e12fff1e 	bx	lr
   171b0:	400011d4 	.word	0x400011d4
   171b4:	400011c4 	.word	0x400011c4

000171b8 <StallControlPipe>:
   171b8:	e52de004 	push	{lr}		; (str lr, [sp, #-4]!)
   171bc:	e3a00080 	mov	r0, #128	; 0x80
   171c0:	e3a01001 	mov	r1, #1	; 0x1
   171c4:	ebffff12 	bl	16e14 <USBHwEPStall>
   171c8:	e49de004 	pop	{lr}		; (ldr lr, [sp], #4)
   171cc:	e12fff1e 	bx	lr

000171d0 <DataIn>:
   171d0:	e92d4070 	push	{r4, r5, r6, lr}
   171d4:	e59f603c 	ldr	r6, [pc, #60]	; 17218 <DataIn+0x48>
   171d8:	e5964000 	ldr	r4, [r6]
   171dc:	e59f5038 	ldr	r5, [pc, #56]	; 1721c <DataIn+0x4c>
   171e0:	e3540040 	cmp	r4, #64	; 0x40
   171e4:	a3a04040 	movge	r4, #64	; 0x40
   171e8:	e1a02004 	mov	r2, r4
   171ec:	e3a00080 	mov	r0, #128	; 0x80
   171f0:	e5951000 	ldr	r1, [r5]
   171f4:	ebffff0e 	bl	16e34 <USBHwEPWrite>
   171f8:	e5953000 	ldr	r3, [r5]
   171fc:	e5962000 	ldr	r2, [r6]
   17200:	e0833004 	add	r3, r3, r4
   17204:	e0642002 	rsb	r2, r4, r2
   17208:	e5853000 	str	r3, [r5]
   1720c:	e5862000 	str	r2, [r6]
   17210:	e8bd4070 	pop	{r4, r5, r6, lr}
   17214:	e12fff1e 	bx	lr
   17218:	400011f0 	.word	0x400011f0
   1721c:	400011ec 	.word	0x400011ec

00017220 <USBHandleControlTransfer>:
   17220:	e21000ff 	ands	r0, r0, #255	; 0xff
   17224:	e92d40f0 	push	{r4, r5, r6, r7, lr}
   17228:	e20170ff 	and	r7, r1, #255	; 0xff
   1722c:	1a000043 	bne	17340 <USBHandleControlTransfer+0x120>
   17230:	e3110004 	tst	r1, #4	; 0x4
   17234:	e59f611c 	ldr	r6, [pc, #284]	; 17358 <USBHandleControlTransfer+0x138>
   17238:	0a00001d 	beq	172b4 <USBHandleControlTransfer+0x94>
   1723c:	e59f5118 	ldr	r5, [pc, #280]	; 1735c <USBHandleControlTransfer+0x13c>
   17240:	e3a02008 	mov	r2, #8	; 0x8
   17244:	e1a01005 	mov	r1, r5
   17248:	ebffff1b 	bl	16ebc <USBHwEPRead>
   1724c:	e5d50000 	ldrb	r0, [r5]
   17250:	e59f2108 	ldr	r2, [pc, #264]	; 17360 <USBHandleControlTransfer+0x140>
   17254:	e1a032a0 	lsr	r3, r0, #5
   17258:	e1d510b6 	ldrh	r1, [r5, #6]
   1725c:	e2033003 	and	r3, r3, #3	; 0x3
   17260:	e7923103 	ldr	r3, [r2, r3, lsl #2]
   17264:	e59f40f8 	ldr	r4, [pc, #248]	; 17364 <USBHandleControlTransfer+0x144>
   17268:	e59f20f8 	ldr	r2, [pc, #248]	; 17368 <USBHandleControlTransfer+0x148>
   1726c:	e3510000 	cmp	r1, #0	; 0x0
   17270:	e5823000 	str	r3, [r2]
   17274:	e5861000 	str	r1, [r6]
   17278:	e5841000 	str	r1, [r4]
   1727c:	0a000001 	beq	17288 <USBHandleControlTransfer+0x68>
   17280:	e1b003a0 	lsrs	r0, r0, #7
   17284:	0a000031 	beq	17350 <USBHandleControlTransfer+0x130>
   17288:	e1a00005 	mov	r0, r5
   1728c:	e1a01004 	mov	r1, r4
   17290:	ebffffb1 	bl	1715c <_HandleRequest>
   17294:	e3500000 	cmp	r0, #0	; 0x0
   17298:	0a000021 	beq	17324 <USBHandleControlTransfer+0x104>
   1729c:	e1d520b6 	ldrh	r2, [r5, #6]
   172a0:	e5943000 	ldr	r3, [r4]
   172a4:	e1520003 	cmp	r2, r3
   172a8:	d5862000 	strle	r2, [r6]
   172ac:	c5863000 	strgt	r3, [r6]
   172b0:	ea000024 	b	17348 <USBHandleControlTransfer+0x128>
   172b4:	e5962000 	ldr	r2, [r6]
   172b8:	e3520000 	cmp	r2, #0	; 0x0
   172bc:	da00001b 	ble	17330 <USBHandleControlTransfer+0x110>
   172c0:	e59f40a0 	ldr	r4, [pc, #160]	; 17368 <USBHandleControlTransfer+0x148>
   172c4:	e5941000 	ldr	r1, [r4]
   172c8:	ebfffefb 	bl	16ebc <USBHwEPRead>
   172cc:	e3500000 	cmp	r0, #0	; 0x0
   172d0:	ba000013 	blt	17324 <USBHandleControlTransfer+0x104>
   172d4:	e5962000 	ldr	r2, [r6]
   172d8:	e5943000 	ldr	r3, [r4]
   172dc:	e0602002 	rsb	r2, r0, r2
   172e0:	e0833000 	add	r3, r3, r0
   172e4:	e3520000 	cmp	r2, #0	; 0x0
   172e8:	e5843000 	str	r3, [r4]
   172ec:	e5862000 	str	r2, [r6]
   172f0:	1a000016 	bne	17350 <USBHandleControlTransfer+0x130>
   172f4:	e59f0060 	ldr	r0, [pc, #96]	; 1735c <USBHandleControlTransfer+0x13c>
   172f8:	e5d03000 	ldrb	r3, [r0]
   172fc:	e59f205c 	ldr	r2, [pc, #92]	; 17360 <USBHandleControlTransfer+0x140>
   17300:	e1a032a3 	lsr	r3, r3, #5
   17304:	e2033003 	and	r3, r3, #3	; 0x3
   17308:	e7923103 	ldr	r3, [r2, r3, lsl #2]
   1730c:	e59f1050 	ldr	r1, [pc, #80]	; 17364 <USBHandleControlTransfer+0x144>
   17310:	e1a02004 	mov	r2, r4
   17314:	e5843000 	str	r3, [r4]
   17318:	ebffff8f 	bl	1715c <_HandleRequest>
   1731c:	e3500000 	cmp	r0, #0	; 0x0
   17320:	1a000008 	bne	17348 <USBHandleControlTransfer+0x128>
   17324:	e1a00007 	mov	r0, r7
   17328:	e8bd40f0 	pop	{r4, r5, r6, r7, lr}
   1732c:	eaffffa1 	b	171b8 <StallControlPipe>
   17330:	e1a01000 	mov	r1, r0
   17334:	e1a02000 	mov	r2, r0
   17338:	ebfffedf 	bl	16ebc <USBHwEPRead>
   1733c:	ea000003 	b	17350 <USBHandleControlTransfer+0x130>
   17340:	e3500080 	cmp	r0, #128	; 0x80
   17344:	1a000001 	bne	17350 <USBHandleControlTransfer+0x130>
   17348:	e8bd40f0 	pop	{r4, r5, r6, r7, lr}
   1734c:	eaffff9f 	b	171d0 <DataIn>
   17350:	e8bd40f0 	pop	{r4, r5, r6, r7, lr}
   17354:	e12fff1e 	bx	lr
   17358:	400011f0 	.word	0x400011f0
   1735c:	400011e4 	.word	0x400011e4
   17360:	400011d4 	.word	0x400011d4
   17364:	400011f4 	.word	0x400011f4
   17368:	400011ec 	.word	0x400011ec

0001736c <USBRegisterDescriptors>:
   1736c:	e59f3004 	ldr	r3, [pc, #4]	; 17378 <USBRegisterDescriptors+0xc>
   17370:	e5830000 	str	r0, [r3]
   17374:	e12fff1e 	bx	lr
   17378:	40001200 	.word	0x40001200

0001737c <USBGetDescriptor>:
   1737c:	e92d4030 	push	{r4, r5, lr}
   17380:	e59f1074 	ldr	r1, [pc, #116]	; 173fc <USBGetDescriptor+0x80>
   17384:	e1a00800 	lsl	r0, r0, #16
   17388:	e591c000 	ldr	ip, [r1]
   1738c:	e1a01820 	lsr	r1, r0, #16
   17390:	e1a05002 	mov	r5, r2
   17394:	e1a04003 	mov	r4, r3
   17398:	e1a0ec20 	lsr	lr, r0, #24
   1739c:	e20110ff 	and	r1, r1, #255	; 0xff
   173a0:	e3a02000 	mov	r2, #0	; 0x0
   173a4:	ea00000f 	b	173e8 <USBGetDescriptor+0x6c>
   173a8:	e5dc3001 	ldrb	r3, [ip, #1]
   173ac:	e153000e 	cmp	r3, lr
   173b0:	1a00000b 	bne	173e4 <USBGetDescriptor+0x68>
   173b4:	e1520001 	cmp	r2, r1
   173b8:	e2822001 	add	r2, r2, #1	; 0x1
   173bc:	1a000008 	bne	173e4 <USBGetDescriptor+0x68>
   173c0:	e584c000 	str	ip, [r4]
   173c4:	e35e0002 	cmp	lr, #2	; 0x2
   173c8:	05dc2003 	ldrbeq	r2, [ip, #3]
   173cc:	05dc3002 	ldrbeq	r3, [ip, #2]
   173d0:	15dc3000 	ldrbne	r3, [ip]
   173d4:	01833402 	orreq	r3, r3, r2, lsl #8
   173d8:	e3a00001 	mov	r0, #1	; 0x1
   173dc:	e5853000 	str	r3, [r5]
   173e0:	ea000003 	b	173f4 <USBGetDescriptor+0x78>
   173e4:	e08cc000 	add	ip, ip, r0
   173e8:	e5dc0000 	ldrb	r0, [ip]
   173ec:	e3500000 	cmp	r0, #0	; 0x0
   173f0:	1affffec 	bne	173a8 <USBGetDescriptor+0x2c>
   173f4:	e8bd4030 	pop	{r4, r5, lr}
   173f8:	e12fff1e 	bx	lr
   173fc:	40001200 	.word	0x40001200

00017400 <USBRegisterCustomReqHandler>:
   17400:	e59f3004 	ldr	r3, [pc, #4]	; 1740c <USBRegisterCustomReqHandler+0xc>
   17404:	e5830000 	str	r0, [r3]
   17408:	e12fff1e 	bx	lr
   1740c:	400011f8 	.word	0x400011f8

00017410 <USBHandleStandardRequest>:
   17410:	e59f3264 	ldr	r3, [pc, #612]	; 1767c <USBHandleStandardRequest+0x26c>
   17414:	e5933000 	ldr	r3, [r3]
   17418:	e3530000 	cmp	r3, #0	; 0x0
   1741c:	e92d41f0 	push	{r4, r5, r6, r7, r8, lr}
   17420:	e1a05000 	mov	r5, r0
   17424:	e1a08001 	mov	r8, r1
   17428:	e1a07002 	mov	r7, r2
   1742c:	0a000003 	beq	17440 <USBHandleStandardRequest+0x30>
   17430:	e1a0e00f 	mov	lr, pc
   17434:	e12fff13 	bx	r3
   17438:	e3500000 	cmp	r0, #0	; 0x0
   1743c:	1a00001e 	bne	174bc <USBHandleStandardRequest+0xac>
   17440:	e5d53000 	ldrb	r3, [r5]
   17444:	e203401f 	and	r4, r3, #31	; 0x1f
   17448:	e3540001 	cmp	r4, #1	; 0x1
   1744c:	0a00004e 	beq	1758c <USBHandleStandardRequest+0x17c>
   17450:	e3540002 	cmp	r4, #2	; 0x2
   17454:	0a000064 	beq	175ec <USBHandleStandardRequest+0x1dc>
   17458:	e3540000 	cmp	r4, #0	; 0x0
   1745c:	1a000082 	bne	1766c <USBHandleStandardRequest+0x25c>
   17460:	e5d53001 	ldrb	r3, [r5, #1]
   17464:	e5971000 	ldr	r1, [r7]
   17468:	e3530009 	cmp	r3, #9	; 0x9
   1746c:	979ff103 	ldrls	pc, [pc, r3, lsl #2]
   17470:	ea00007d 	b	1766c <USBHandleStandardRequest+0x25c>
   17474:	0001749c 	.word	0x0001749c
   17478:	0001766c 	.word	0x0001766c
   1747c:	0001766c 	.word	0x0001766c
   17480:	0001766c 	.word	0x0001766c
   17484:	0001766c 	.word	0x0001766c
   17488:	000174b4 	.word	0x000174b4
   1748c:	000174c4 	.word	0x000174c4
   17490:	0001766c 	.word	0x0001766c
   17494:	000174dc 	.word	0x000174dc
   17498:	000174f8 	.word	0x000174f8
   1749c:	e3a03000 	mov	r3, #0	; 0x0
   174a0:	e5c13001 	strb	r3, [r1, #1]
   174a4:	e5c13000 	strb	r3, [r1]
   174a8:	e3a0c001 	mov	ip, #1	; 0x1
   174ac:	e2833002 	add	r3, r3, #2	; 0x2
   174b0:	ea00000e 	b	174f0 <USBHandleStandardRequest+0xe0>
   174b4:	e5d50002 	ldrb	r0, [r5, #2]
   174b8:	ebfffe41 	bl	16dc4 <USBHwSetAddress>
   174bc:	e3a0c001 	mov	ip, #1	; 0x1
   174c0:	ea00006a 	b	17670 <USBHandleStandardRequest+0x260>
   174c4:	e1d510b4 	ldrh	r1, [r5, #4]
   174c8:	e1d500b2 	ldrh	r0, [r5, #2]
   174cc:	e1a02008 	mov	r2, r8
   174d0:	e1a03007 	mov	r3, r7
   174d4:	e8bd41f0 	pop	{r4, r5, r6, r7, r8, lr}
   174d8:	eaffffa7 	b	1737c <USBGetDescriptor>
   174dc:	e59f319c 	ldr	r3, [pc, #412]	; 17680 <USBHandleStandardRequest+0x270>
   174e0:	e5d32000 	ldrb	r2, [r3]
   174e4:	e3a03001 	mov	r3, #1	; 0x1
   174e8:	e5c12000 	strb	r2, [r1]
   174ec:	e1a0c003 	mov	ip, r3
   174f0:	e5883000 	str	r3, [r8]
   174f4:	ea00005d 	b	17670 <USBHandleStandardRequest+0x260>
   174f8:	e5d56002 	ldrb	r6, [r5, #2]
   174fc:	e3560000 	cmp	r6, #0	; 0x0
   17500:	01a00006 	moveq	r0, r6
   17504:	0a00001a 	beq	17574 <USBHandleStandardRequest+0x164>
   17508:	e59f3174 	ldr	r3, [pc, #372]	; 17684 <USBHandleStandardRequest+0x274>
   1750c:	e3a070ff 	mov	r7, #255	; 0xff
   17510:	e5934000 	ldr	r4, [r3]
   17514:	e1a08007 	mov	r8, r7
   17518:	ea000011 	b	17564 <USBHandleStandardRequest+0x154>
   1751c:	e5d43001 	ldrb	r3, [r4, #1]
   17520:	e3530004 	cmp	r3, #4	; 0x4
   17524:	05d47003 	ldrbeq	r7, [r4, #3]
   17528:	0a00000b 	beq	1755c <USBHandleStandardRequest+0x14c>
   1752c:	e3530005 	cmp	r3, #5	; 0x5
   17530:	0a000002 	beq	17540 <USBHandleStandardRequest+0x130>
   17534:	e3530002 	cmp	r3, #2	; 0x2
   17538:	05d48005 	ldrbeq	r8, [r4, #5]
   1753c:	ea000006 	b	1755c <USBHandleStandardRequest+0x14c>
   17540:	e1580006 	cmp	r8, r6
   17544:	03570000 	cmpeq	r7, #0	; 0x0
   17548:	05d43004 	ldrbeq	r3, [r4, #4]
   1754c:	05d41005 	ldrbeq	r1, [r4, #5]
   17550:	05d40002 	ldrbeq	r0, [r4, #2]
   17554:	01831401 	orreq	r1, r3, r1, lsl #8
   17558:	0bfffddd 	bleq	16cd4 <USBHwEPConfig>
   1755c:	e5d43000 	ldrb	r3, [r4]
   17560:	e0844003 	add	r4, r4, r3
   17564:	e5d43000 	ldrb	r3, [r4]
   17568:	e3530000 	cmp	r3, #0	; 0x0
   1756c:	1affffea 	bne	1751c <USBHandleStandardRequest+0x10c>
   17570:	e3a00001 	mov	r0, #1	; 0x1
   17574:	ebfffe79 	bl	16f60 <USBHwConfigDevice>
   17578:	e1d520b2 	ldrh	r2, [r5, #2]
   1757c:	e59f30fc 	ldr	r3, [pc, #252]	; 17680 <USBHandleStandardRequest+0x270>
   17580:	e3a0c001 	mov	ip, #1	; 0x1
   17584:	e5c32000 	strb	r2, [r3]
   17588:	ea000038 	b	17670 <USBHandleStandardRequest+0x260>
   1758c:	e5d53001 	ldrb	r3, [r5, #1]
   17590:	e3530000 	cmp	r3, #0	; 0x0
   17594:	e5972000 	ldr	r2, [r7]
   17598:	0a000004 	beq	175b0 <USBHandleStandardRequest+0x1a0>
   1759c:	e353000a 	cmp	r3, #10	; 0xa
   175a0:	0a000007 	beq	175c4 <USBHandleStandardRequest+0x1b4>
   175a4:	e353000b 	cmp	r3, #11	; 0xb
   175a8:	1a00002f 	bne	1766c <USBHandleStandardRequest+0x25c>
   175ac:	ea000008 	b	175d4 <USBHandleStandardRequest+0x1c4>
   175b0:	e5c23001 	strb	r3, [r2, #1]
   175b4:	e5c23000 	strb	r3, [r2]
   175b8:	e1a0c004 	mov	ip, r4
   175bc:	e3a03002 	mov	r3, #2	; 0x2
   175c0:	eaffffca 	b	174f0 <USBHandleStandardRequest+0xe0>
   175c4:	e3a03000 	mov	r3, #0	; 0x0
   175c8:	e1a0c004 	mov	ip, r4
   175cc:	e5c23000 	strb	r3, [r2]
   175d0:	ea000015 	b	1762c <USBHandleStandardRequest+0x21c>
   175d4:	e1d500b2 	ldrh	r0, [r5, #2]
   175d8:	e3500000 	cmp	r0, #0	; 0x0
   175dc:	03a0c001 	moveq	ip, #1	; 0x1
   175e0:	05880000 	streq	r0, [r8]
   175e4:	0a000021 	beq	17670 <USBHandleStandardRequest+0x260>
   175e8:	ea00001f 	b	1766c <USBHandleStandardRequest+0x25c>
   175ec:	e5d56001 	ldrb	r6, [r5, #1]
   175f0:	e3560001 	cmp	r6, #1	; 0x1
   175f4:	e5977000 	ldr	r7, [r7]
   175f8:	0a00000d 	beq	17634 <USBHandleStandardRequest+0x224>
   175fc:	3a000002 	bcc	1760c <USBHandleStandardRequest+0x1fc>
   17600:	e3560003 	cmp	r6, #3	; 0x3
   17604:	1a000018 	bne	1766c <USBHandleStandardRequest+0x25c>
   17608:	ea000010 	b	17650 <USBHandleStandardRequest+0x240>
   1760c:	e5d50004 	ldrb	r0, [r5, #4]
   17610:	ebfffdf6 	bl	16df0 <USBHwEPGetStatus>
   17614:	e1a000a0 	lsr	r0, r0, #1
   17618:	e2000001 	and	r0, r0, #1	; 0x1
   1761c:	e3a03000 	mov	r3, #0	; 0x0
   17620:	e5c73001 	strb	r3, [r7, #1]
   17624:	e5c70000 	strb	r0, [r7]
   17628:	e3a0c001 	mov	ip, #1	; 0x1
   1762c:	e5884000 	str	r4, [r8]
   17630:	ea00000e 	b	17670 <USBHandleStandardRequest+0x260>
   17634:	e1d510b2 	ldrh	r1, [r5, #2]
   17638:	e3510000 	cmp	r1, #0	; 0x0
   1763c:	1a00000a 	bne	1766c <USBHandleStandardRequest+0x25c>
   17640:	e5d50004 	ldrb	r0, [r5, #4]
   17644:	ebfffdf2 	bl	16e14 <USBHwEPStall>
   17648:	e1a0c006 	mov	ip, r6
   1764c:	ea000007 	b	17670 <USBHandleStandardRequest+0x260>
   17650:	e1d530b2 	ldrh	r3, [r5, #2]
   17654:	e3530000 	cmp	r3, #0	; 0x0
   17658:	1a000003 	bne	1766c <USBHandleStandardRequest+0x25c>
   1765c:	e5d50004 	ldrb	r0, [r5, #4]
   17660:	e3a01001 	mov	r1, #1	; 0x1
   17664:	ebfffdea 	bl	16e14 <USBHwEPStall>
   17668:	eaffff93 	b	174bc <USBHandleStandardRequest+0xac>
   1766c:	e3a0c000 	mov	ip, #0	; 0x0
   17670:	e1a0000c 	mov	r0, ip
   17674:	e8bd41f0 	pop	{r4, r5, r6, r7, r8, lr}
   17678:	e12fff1e 	bx	lr
   1767c:	400011f8 	.word	0x400011f8
   17680:	400011fc 	.word	0x400011fc
   17684:	40001200 	.word	0x40001200

00017688 <free>:
   17688:	e59f3008 	ldr	r3, [pc, #8]	; 17698 <free+0x10>
   1768c:	e1a01000 	mov	r1, r0
   17690:	e5930000 	ldr	r0, [r3]
   17694:	ea0003d8 	b	185fc <_free_r>
   17698:	40000490 	.word	0x40000490

0001769c <malloc>:
   1769c:	e59f3008 	ldr	r3, [pc, #8]	; 176ac <malloc+0x10>
   176a0:	e1a01000 	mov	r1, r0
   176a4:	e5930000 	ldr	r0, [r3]
   176a8:	ea000000 	b	176b0 <_malloc_r>
   176ac:	40000490 	.word	0x40000490

000176b0 <_malloc_r>:
   176b0:	e1a03001 	mov	r3, r1
   176b4:	e281100b 	add	r1, r1, #11	; 0xb
   176b8:	e3510016 	cmp	r1, #22	; 0x16
   176bc:	e92d4ff0 	push	{r4, r5, r6, r7, r8, r9, sl, fp, lr}
   176c0:	83c16007 	bichi	r6, r1, #7	; 0x7
   176c4:	93a06010 	movls	r6, #16	; 0x10
   176c8:	93a01000 	movls	r1, #0	; 0x0
   176cc:	81a01fa6 	lsrhi	r1, r6, #31
   176d0:	e1560003 	cmp	r6, r3
   176d4:	21a03001 	movcs	r3, r1
   176d8:	33813001 	orrcc	r3, r1, #1	; 0x1
   176dc:	e3530000 	cmp	r3, #0	; 0x0
   176e0:	13a0300c 	movne	r3, #12	; 0xc
   176e4:	e1a08000 	mov	r8, r0
   176e8:	15803000 	strne	r3, [r0]
   176ec:	13a05000 	movne	r5, #0	; 0x0
   176f0:	1a000015 	bne	1774c <_malloc_r+0x9c>
   176f4:	eb00022d 	bl	17fb0 <__malloc_lock>
   176f8:	e3560f7e 	cmp	r6, #504	; 0x1f8
   176fc:	2a000014 	bcs	17754 <_malloc_r+0xa4>
   17700:	e59fe6c0 	ldr	lr, [pc, #1728]	; 17dc8 <_malloc_r+0x718>
   17704:	e08e3006 	add	r3, lr, r6
   17708:	e593400c 	ldr	r4, [r3, #12]
   1770c:	e1540003 	cmp	r4, r3
   17710:	e1a021a6 	lsr	r2, r6, #3
   17714:	0a00015a 	beq	17c84 <_malloc_r+0x5d4>
   17718:	e5943004 	ldr	r3, [r4, #4]
   1771c:	e3c33003 	bic	r3, r3, #3	; 0x3
   17720:	e0843003 	add	r3, r4, r3
   17724:	e5932004 	ldr	r2, [r3, #4]
   17728:	e594000c 	ldr	r0, [r4, #12]
   1772c:	e5941008 	ldr	r1, [r4, #8]
   17730:	e3822001 	orr	r2, r2, #1	; 0x1
   17734:	e5801008 	str	r1, [r0, #8]
   17738:	e581000c 	str	r0, [r1, #12]
   1773c:	e5832004 	str	r2, [r3, #4]
   17740:	e1a00008 	mov	r0, r8
   17744:	eb00021a 	bl	17fb4 <__malloc_unlock>
   17748:	e2845008 	add	r5, r4, #8	; 0x8
   1774c:	e1a00005 	mov	r0, r5
   17750:	e8bd8ff0 	pop	{r4, r5, r6, r7, r8, r9, sl, fp, pc}
   17754:	e1b024a6 	lsrs	r2, r6, #9
   17758:	01a021a6 	lsreq	r2, r6, #3
   1775c:	01a03182 	lsleq	r3, r2, #3
   17760:	0a000004 	beq	17778 <_malloc_r+0xc8>
   17764:	e3520004 	cmp	r2, #4	; 0x4
   17768:	91a03326 	lsrls	r3, r6, #6
   1776c:	92832038 	addls	r2, r3, #56	; 0x38
   17770:	91a03182 	lslls	r3, r2, #3
   17774:	8a00006b 	bhi	17928 <_malloc_r+0x278>
   17778:	e59fe648 	ldr	lr, [pc, #1608]	; 17dc8 <_malloc_r+0x718>
   1777c:	e08e0003 	add	r0, lr, r3
   17780:	e590400c 	ldr	r4, [r0, #12]
   17784:	e1500004 	cmp	r0, r4
   17788:	1a000005 	bne	177a4 <_malloc_r+0xf4>
   1778c:	ea00000a 	b	177bc <_malloc_r+0x10c>
   17790:	e3510000 	cmp	r1, #0	; 0x0
   17794:	aa00007a 	bge	17984 <_malloc_r+0x2d4>
   17798:	e594400c 	ldr	r4, [r4, #12]
   1779c:	e1500004 	cmp	r0, r4
   177a0:	0a000005 	beq	177bc <_malloc_r+0x10c>
   177a4:	e5943004 	ldr	r3, [r4, #4]
   177a8:	e3c33003 	bic	r3, r3, #3	; 0x3
   177ac:	e0661003 	rsb	r1, r6, r3
   177b0:	e351000f 	cmp	r1, #15	; 0xf
   177b4:	dafffff5 	ble	17790 <_malloc_r+0xe0>
   177b8:	e2422001 	sub	r2, r2, #1	; 0x1
   177bc:	e2825001 	add	r5, r2, #1	; 0x1
   177c0:	e59f7604 	ldr	r7, [pc, #1540]	; 17dcc <_malloc_r+0x71c>
   177c4:	e5974008 	ldr	r4, [r7, #8]
   177c8:	e1570004 	cmp	r7, r4
   177cc:	0a000017 	beq	17830 <_malloc_r+0x180>
   177d0:	e5943004 	ldr	r3, [r4, #4]
   177d4:	e3c3c003 	bic	ip, r3, #3	; 0x3
   177d8:	e066000c 	rsb	r0, r6, ip
   177dc:	e350000f 	cmp	r0, #15	; 0xf
   177e0:	ca0000e9 	bgt	17b8c <_malloc_r+0x4dc>
   177e4:	e3500000 	cmp	r0, #0	; 0x0
   177e8:	e587700c 	str	r7, [r7, #12]
   177ec:	e5877008 	str	r7, [r7, #8]
   177f0:	aa000043 	bge	17904 <_malloc_r+0x254>
   177f4:	e35c0c02 	cmp	ip, #512	; 0x200
   177f8:	2a0000f1 	bcs	17bc4 <_malloc_r+0x514>
   177fc:	e1a031ac 	lsr	r3, ip, #3
   17800:	e59e1004 	ldr	r1, [lr, #4]
   17804:	e1a00143 	asr	r0, r3, #2
   17808:	e3a02001 	mov	r2, #1	; 0x1
   1780c:	e1811012 	orr	r1, r1, r2, lsl r0
   17810:	e1a03183 	lsl	r3, r3, #3
   17814:	e08e3003 	add	r3, lr, r3
   17818:	e5932008 	ldr	r2, [r3, #8]
   1781c:	e584300c 	str	r3, [r4, #12]
   17820:	e5842008 	str	r2, [r4, #8]
   17824:	e58e1004 	str	r1, [lr, #4]
   17828:	e582400c 	str	r4, [r2, #12]
   1782c:	e5834008 	str	r4, [r3, #8]
   17830:	e247a008 	sub	sl, r7, #8	; 0x8
   17834:	e1a02145 	asr	r2, r5, #2
   17838:	e3a03001 	mov	r3, #1	; 0x1
   1783c:	e1a00213 	lsl	r0, r3, r2
   17840:	e59a1004 	ldr	r1, [sl, #4]
   17844:	e1500001 	cmp	r0, r1
   17848:	8a00005a 	bhi	179b8 <_malloc_r+0x308>
   1784c:	e1100001 	tst	r0, r1
   17850:	1a000008 	bne	17878 <_malloc_r+0x1c8>
   17854:	e1a00310 	lsl	r0, r0, r3
   17858:	e3c53003 	bic	r3, r5, #3	; 0x3
   1785c:	e1100001 	tst	r0, r1
   17860:	e2835004 	add	r5, r3, #4	; 0x4
   17864:	1a000003 	bne	17878 <_malloc_r+0x1c8>
   17868:	e1a00080 	lsl	r0, r0, #1
   1786c:	e1100001 	tst	r0, r1
   17870:	e2855004 	add	r5, r5, #4	; 0x4
   17874:	0afffffb 	beq	17868 <_malloc_r+0x1b8>
   17878:	e1a03185 	lsl	r3, r5, #3
   1787c:	e08a1003 	add	r1, sl, r3
   17880:	e1a09005 	mov	r9, r5
   17884:	e1a02001 	mov	r2, r1
   17888:	e592400c 	ldr	r4, [r2, #12]
   1788c:	e1520004 	cmp	r2, r4
   17890:	1a000005 	bne	178ac <_malloc_r+0x1fc>
   17894:	ea000100 	b	17c9c <_malloc_r+0x5ec>
   17898:	e35e0000 	cmp	lr, #0	; 0x0
   1789c:	aa000103 	bge	17cb0 <_malloc_r+0x600>
   178a0:	e594400c 	ldr	r4, [r4, #12]
   178a4:	e1520004 	cmp	r2, r4
   178a8:	0a0000fb 	beq	17c9c <_malloc_r+0x5ec>
   178ac:	e5943004 	ldr	r3, [r4, #4]
   178b0:	e3c33003 	bic	r3, r3, #3	; 0x3
   178b4:	e066e003 	rsb	lr, r6, r3
   178b8:	e35e000f 	cmp	lr, #15	; 0xf
   178bc:	dafffff5 	ble	17898 <_malloc_r+0x1e8>
   178c0:	e1a05004 	mov	r5, r4
   178c4:	e5b50008 	ldr	r0, [r5, #8]!
   178c8:	e594c00c 	ldr	ip, [r4, #12]
   178cc:	e0843006 	add	r3, r4, r6
   178d0:	e3861001 	orr	r1, r6, #1	; 0x1
   178d4:	e38e2001 	orr	r2, lr, #1	; 0x1
   178d8:	e58c0008 	str	r0, [ip, #8]
   178dc:	e580c00c 	str	ip, [r0, #12]
   178e0:	e5841004 	str	r1, [r4, #4]
   178e4:	e5873008 	str	r3, [r7, #8]
   178e8:	e587300c 	str	r3, [r7, #12]
   178ec:	e783e00e 	str	lr, [r3, lr]
   178f0:	e9830084 	stmib	r3, {r2, r7}
   178f4:	e1a00008 	mov	r0, r8
   178f8:	e583700c 	str	r7, [r3, #12]
   178fc:	eb0001ac 	bl	17fb4 <__malloc_unlock>
   17900:	eaffff91 	b	1774c <_malloc_r+0x9c>
   17904:	e084200c 	add	r2, r4, ip
   17908:	e5923004 	ldr	r3, [r2, #4]
   1790c:	e3833001 	orr	r3, r3, #1	; 0x1
   17910:	e1a00008 	mov	r0, r8
   17914:	e5823004 	str	r3, [r2, #4]
   17918:	e2845008 	add	r5, r4, #8	; 0x8
   1791c:	eb0001a4 	bl	17fb4 <__malloc_unlock>
   17920:	e1a00005 	mov	r0, r5
   17924:	e8bd8ff0 	pop	{r4, r5, r6, r7, r8, r9, sl, fp, pc}
   17928:	e3520014 	cmp	r2, #20	; 0x14
   1792c:	9282205b 	addls	r2, r2, #91	; 0x5b
   17930:	91a03182 	lslls	r3, r2, #3
   17934:	9affff8f 	bls	17778 <_malloc_r+0xc8>
   17938:	e3520054 	cmp	r2, #84	; 0x54
   1793c:	91a03626 	lsrls	r3, r6, #12
   17940:	9283206e 	addls	r2, r3, #110	; 0x6e
   17944:	91a03182 	lslls	r3, r2, #3
   17948:	9affff8a 	bls	17778 <_malloc_r+0xc8>
   1794c:	e3520f55 	cmp	r2, #340	; 0x154
   17950:	91a037a6 	lsrls	r3, r6, #15
   17954:	92832077 	addls	r2, r3, #119	; 0x77
   17958:	91a03182 	lslls	r3, r2, #3
   1795c:	9affff85 	bls	17778 <_malloc_r+0xc8>
   17960:	e3a03e55 	mov	r3, #1360	; 0x550
   17964:	e2833004 	add	r3, r3, #4	; 0x4
   17968:	e1520003 	cmp	r2, r3
   1796c:	91a03926 	lsrls	r3, r6, #18
   17970:	9283207c 	addls	r2, r3, #124	; 0x7c
   17974:	83a0207e 	movhi	r2, #126	; 0x7e
   17978:	82433f59 	subhi	r3, r3, #356	; 0x164
   1797c:	91a03182 	lslls	r3, r2, #3
   17980:	eaffff7c 	b	17778 <_malloc_r+0xc8>
   17984:	e0840003 	add	r0, r4, r3
   17988:	e5903004 	ldr	r3, [r0, #4]
   1798c:	e594100c 	ldr	r1, [r4, #12]
   17990:	e5942008 	ldr	r2, [r4, #8]
   17994:	e3833001 	orr	r3, r3, #1	; 0x1
   17998:	e5803004 	str	r3, [r0, #4]
   1799c:	e5812008 	str	r2, [r1, #8]
   179a0:	e1a00008 	mov	r0, r8
   179a4:	e582100c 	str	r1, [r2, #12]
   179a8:	e2845008 	add	r5, r4, #8	; 0x8
   179ac:	eb000180 	bl	17fb4 <__malloc_unlock>
   179b0:	e1a00005 	mov	r0, r5
   179b4:	e8bd8ff0 	pop	{r4, r5, r6, r7, r8, r9, sl, fp, pc}
   179b8:	e59a5008 	ldr	r5, [sl, #8]
   179bc:	e5953004 	ldr	r3, [r5, #4]
   179c0:	e3c39003 	bic	r9, r3, #3	; 0x3
   179c4:	e0660009 	rsb	r0, r6, r9
   179c8:	e350000f 	cmp	r0, #15	; 0xf
   179cc:	c3a03000 	movgt	r3, #0	; 0x0
   179d0:	d3a03001 	movle	r3, #1	; 0x1
   179d4:	e1560009 	cmp	r6, r9
   179d8:	83833001 	orrhi	r3, r3, #1	; 0x1
   179dc:	e3530000 	cmp	r3, #0	; 0x0
   179e0:	0a00005e 	beq	17b60 <_malloc_r+0x4b0>
   179e4:	e59f33e4 	ldr	r3, [pc, #996]	; 17dd0 <_malloc_r+0x720>
   179e8:	e59f03e4 	ldr	r0, [pc, #996]	; 17dd4 <_malloc_r+0x724>
   179ec:	e5932000 	ldr	r2, [r3]
   179f0:	e5901000 	ldr	r1, [r0]
   179f4:	e2822010 	add	r2, r2, #16	; 0x10
   179f8:	e3710001 	cmn	r1, #1	; 0x1
   179fc:	e0824006 	add	r4, r2, r6
   17a00:	12843eff 	addne	r3, r4, #4080	; 0xff0
   17a04:	1283300f 	addne	r3, r3, #15	; 0xf
   17a08:	13c34eff 	bicne	r4, r3, #4080	; 0xff0
   17a0c:	13c4400f 	bicne	r4, r4, #15	; 0xf
   17a10:	e1a00008 	mov	r0, r8
   17a14:	e1a01004 	mov	r1, r4
   17a18:	ebffe8a8 	bl	11cc0 <_sbrk_r>
   17a1c:	e3700001 	cmn	r0, #1	; 0x1
   17a20:	e1a07000 	mov	r7, r0
   17a24:	0a000042 	beq	17b34 <_malloc_r+0x484>
   17a28:	e0852009 	add	r2, r5, r9
   17a2c:	e1520000 	cmp	r2, r0
   17a30:	9a0000c2 	bls	17d40 <_malloc_r+0x690>
   17a34:	e155000a 	cmp	r5, sl
   17a38:	1a00003d 	bne	17b34 <_malloc_r+0x484>
   17a3c:	e59fb394 	ldr	fp, [pc, #916]	; 17dd8 <_malloc_r+0x728>
   17a40:	e59b3000 	ldr	r3, [fp]
   17a44:	e0841003 	add	r1, r4, r3
   17a48:	e58b1000 	str	r1, [fp]
   17a4c:	e59f0380 	ldr	r0, [pc, #896]	; 17dd4 <_malloc_r+0x724>
   17a50:	e5903000 	ldr	r3, [r0]
   17a54:	e3730001 	cmn	r3, #1	; 0x1
   17a58:	10623007 	rsbne	r3, r2, r7
   17a5c:	10833001 	addne	r3, r3, r1
   17a60:	01a03000 	moveq	r3, r0
   17a64:	05837000 	streq	r7, [r3]
   17a68:	158b3000 	strne	r3, [fp]
   17a6c:	e2173007 	ands	r3, r7, #7	; 0x7
   17a70:	12633008 	rsbne	r3, r3, #8	; 0x8
   17a74:	10877003 	addne	r7, r7, r3
   17a78:	12831a01 	addne	r1, r3, #4096	; 0x1000
   17a7c:	e0873004 	add	r3, r7, r4
   17a80:	e1a03a03 	lsl	r3, r3, #20
   17a84:	e1a03a23 	lsr	r3, r3, #20
   17a88:	03a01a01 	moveq	r1, #4096	; 0x1000
   17a8c:	e0634001 	rsb	r4, r3, r1
   17a90:	e1a01004 	mov	r1, r4
   17a94:	e1a00008 	mov	r0, r8
   17a98:	ebffe888 	bl	11cc0 <_sbrk_r>
   17a9c:	e3700001 	cmn	r0, #1	; 0x1
   17aa0:	10673000 	rsbne	r3, r7, r0
   17aa4:	10833004 	addne	r3, r3, r4
   17aa8:	13830001 	orrne	r0, r3, #1	; 0x1
   17aac:	e59b3000 	ldr	r3, [fp]
   17ab0:	03a04000 	moveq	r4, #0	; 0x0
   17ab4:	02800002 	addeq	r0, r0, #2	; 0x2
   17ab8:	e0843003 	add	r3, r4, r3
   17abc:	e155000a 	cmp	r5, sl
   17ac0:	e58b3000 	str	r3, [fp]
   17ac4:	e5870004 	str	r0, [r7, #4]
   17ac8:	e58a7008 	str	r7, [sl, #8]
   17acc:	0a00000f 	beq	17b10 <_malloc_r+0x460>
   17ad0:	e359000f 	cmp	r9, #15	; 0xf
   17ad4:	93a03001 	movls	r3, #1	; 0x1
   17ad8:	95873004 	strls	r3, [r7, #4]
   17adc:	9a000014 	bls	17b34 <_malloc_r+0x484>
   17ae0:	e249200c 	sub	r2, r9, #12	; 0xc
   17ae4:	e3c22007 	bic	r2, r2, #7	; 0x7
   17ae8:	e0850002 	add	r0, r5, r2
   17aec:	e3a01005 	mov	r1, #5	; 0x5
   17af0:	e5801008 	str	r1, [r0, #8]
   17af4:	e5801004 	str	r1, [r0, #4]
   17af8:	e5953004 	ldr	r3, [r5, #4]
   17afc:	e2033001 	and	r3, r3, #1	; 0x1
   17b00:	e352000f 	cmp	r2, #15	; 0xf
   17b04:	e1822003 	orr	r2, r2, r3
   17b08:	e5852004 	str	r2, [r5, #4]
   17b0c:	8a0000a0 	bhi	17d94 <_malloc_r+0x6e4>
   17b10:	e59f12c4 	ldr	r1, [pc, #708]	; 17ddc <_malloc_r+0x72c>
   17b14:	e59b2000 	ldr	r2, [fp]
   17b18:	e5913000 	ldr	r3, [r1]
   17b1c:	e1520003 	cmp	r2, r3
   17b20:	85812000 	strhi	r2, [r1]
   17b24:	e59f12b4 	ldr	r1, [pc, #692]	; 17de0 <_malloc_r+0x730>
   17b28:	e5913000 	ldr	r3, [r1]
   17b2c:	e1520003 	cmp	r2, r3
   17b30:	85812000 	strhi	r2, [r1]
   17b34:	e59a5008 	ldr	r5, [sl, #8]
   17b38:	e5952004 	ldr	r2, [r5, #4]
   17b3c:	e3c22003 	bic	r2, r2, #3	; 0x3
   17b40:	e0660002 	rsb	r0, r6, r2
   17b44:	e350000f 	cmp	r0, #15	; 0xf
   17b48:	c3a03000 	movgt	r3, #0	; 0x0
   17b4c:	d3a03001 	movle	r3, #1	; 0x1
   17b50:	e1560002 	cmp	r6, r2
   17b54:	83833001 	orrhi	r3, r3, #1	; 0x1
   17b58:	e3530000 	cmp	r3, #0	; 0x0
   17b5c:	1a000095 	bne	17db8 <_malloc_r+0x708>
   17b60:	e0851006 	add	r1, r5, r6
   17b64:	e3802001 	orr	r2, r0, #1	; 0x1
   17b68:	e3863001 	orr	r3, r6, #1	; 0x1
   17b6c:	e5853004 	str	r3, [r5, #4]
   17b70:	e1a00008 	mov	r0, r8
   17b74:	e5812004 	str	r2, [r1, #4]
   17b78:	e58a1008 	str	r1, [sl, #8]
   17b7c:	e2855008 	add	r5, r5, #8	; 0x8
   17b80:	eb00010b 	bl	17fb4 <__malloc_unlock>
   17b84:	e1a00005 	mov	r0, r5
   17b88:	e8bd8ff0 	pop	{r4, r5, r6, r7, r8, r9, sl, fp, pc}
   17b8c:	e0842006 	add	r2, r4, r6
   17b90:	e3801001 	orr	r1, r0, #1	; 0x1
   17b94:	e3863001 	orr	r3, r6, #1	; 0x1
   17b98:	e7820000 	str	r0, [r2, r0]
   17b9c:	e5843004 	str	r3, [r4, #4]
   17ba0:	e587200c 	str	r2, [r7, #12]
   17ba4:	e5872008 	str	r2, [r7, #8]
   17ba8:	e1a00008 	mov	r0, r8
   17bac:	e9820082 	stmib	r2, {r1, r7}
   17bb0:	e582700c 	str	r7, [r2, #12]
   17bb4:	e2845008 	add	r5, r4, #8	; 0x8
   17bb8:	eb0000fd 	bl	17fb4 <__malloc_unlock>
   17bbc:	e1a00005 	mov	r0, r5
   17bc0:	e8bd8ff0 	pop	{r4, r5, r6, r7, r8, r9, sl, fp, pc}
   17bc4:	e1a014ac 	lsr	r1, ip, #9
   17bc8:	e3510004 	cmp	r1, #4	; 0x4
   17bcc:	91a0332c 	lsrls	r3, ip, #6
   17bd0:	92831038 	addls	r1, r3, #56	; 0x38
   17bd4:	91a03181 	lslls	r3, r1, #3
   17bd8:	9a000015 	bls	17c34 <_malloc_r+0x584>
   17bdc:	e3510014 	cmp	r1, #20	; 0x14
   17be0:	9281105b 	addls	r1, r1, #91	; 0x5b
   17be4:	91a03181 	lslls	r3, r1, #3
   17be8:	9a000011 	bls	17c34 <_malloc_r+0x584>
   17bec:	e3510054 	cmp	r1, #84	; 0x54
   17bf0:	91a0362c 	lsrls	r3, ip, #12
   17bf4:	9283106e 	addls	r1, r3, #110	; 0x6e
   17bf8:	91a03181 	lslls	r3, r1, #3
   17bfc:	9a00000c 	bls	17c34 <_malloc_r+0x584>
   17c00:	e3510f55 	cmp	r1, #340	; 0x154
   17c04:	91a037ac 	lsrls	r3, ip, #15
   17c08:	92831077 	addls	r1, r3, #119	; 0x77
   17c0c:	91a03181 	lslls	r3, r1, #3
   17c10:	9a000007 	bls	17c34 <_malloc_r+0x584>
   17c14:	e3a03e55 	mov	r3, #1360	; 0x550
   17c18:	e2833004 	add	r3, r3, #4	; 0x4
   17c1c:	e1510003 	cmp	r1, r3
   17c20:	91a0392c 	lsrls	r3, ip, #18
   17c24:	9283107c 	addls	r1, r3, #124	; 0x7c
   17c28:	83a0107e 	movhi	r1, #126	; 0x7e
   17c2c:	82433f59 	subhi	r3, r3, #356	; 0x164
   17c30:	91a03181 	lslls	r3, r1, #3
   17c34:	e08e0003 	add	r0, lr, r3
   17c38:	e590e008 	ldr	lr, [r0, #8]
   17c3c:	e15e0000 	cmp	lr, r0
   17c40:	e59fa180 	ldr	sl, [pc, #384]	; 17dc8 <_malloc_r+0x718>
   17c44:	11a0200e 	movne	r2, lr
   17c48:	0a00004a 	beq	17d78 <_malloc_r+0x6c8>
   17c4c:	e5923004 	ldr	r3, [r2, #4]
   17c50:	e3c33003 	bic	r3, r3, #3	; 0x3
   17c54:	e15c0003 	cmp	ip, r3
   17c58:	2a000002 	bcs	17c68 <_malloc_r+0x5b8>
   17c5c:	e5922008 	ldr	r2, [r2, #8]
   17c60:	e1500002 	cmp	r0, r2
   17c64:	1afffff8 	bne	17c4c <_malloc_r+0x59c>
   17c68:	e592300c 	ldr	r3, [r2, #12]
   17c6c:	e1a0e002 	mov	lr, r2
   17c70:	e584300c 	str	r3, [r4, #12]
   17c74:	e584e008 	str	lr, [r4, #8]
   17c78:	e58e400c 	str	r4, [lr, #12]
   17c7c:	e5834008 	str	r4, [r3, #8]
   17c80:	eafffeeb 	b	17834 <_malloc_r+0x184>
   17c84:	e2843008 	add	r3, r4, #8	; 0x8
   17c88:	e593400c 	ldr	r4, [r3, #12]
   17c8c:	e1530004 	cmp	r3, r4
   17c90:	02825002 	addeq	r5, r2, #2	; 0x2
   17c94:	0afffec9 	beq	177c0 <_malloc_r+0x110>
   17c98:	eafffe9e 	b	17718 <_malloc_r+0x68>
   17c9c:	e2899001 	add	r9, r9, #1	; 0x1
   17ca0:	e3190003 	tst	r9, #3	; 0x3
   17ca4:	0a00000d 	beq	17ce0 <_malloc_r+0x630>
   17ca8:	e2822008 	add	r2, r2, #8	; 0x8
   17cac:	eafffef5 	b	17888 <_malloc_r+0x1d8>
   17cb0:	e0840003 	add	r0, r4, r3
   17cb4:	e5903004 	ldr	r3, [r0, #4]
   17cb8:	e1a05004 	mov	r5, r4
   17cbc:	e594100c 	ldr	r1, [r4, #12]
   17cc0:	e5b52008 	ldr	r2, [r5, #8]!
   17cc4:	e3833001 	orr	r3, r3, #1	; 0x1
   17cc8:	e5803004 	str	r3, [r0, #4]
   17ccc:	e5812008 	str	r2, [r1, #8]
   17cd0:	e582100c 	str	r1, [r2, #12]
   17cd4:	e1a00008 	mov	r0, r8
   17cd8:	eb0000b5 	bl	17fb4 <__malloc_unlock>
   17cdc:	eafffe9a 	b	1774c <_malloc_r+0x9c>
   17ce0:	e1a02005 	mov	r2, r5
   17ce4:	e1a0c001 	mov	ip, r1
   17ce8:	e3120003 	tst	r2, #3	; 0x3
   17cec:	e1a0100c 	mov	r1, ip
   17cf0:	e2422001 	sub	r2, r2, #1	; 0x1
   17cf4:	0a00002a 	beq	17da4 <_malloc_r+0x6f4>
   17cf8:	e411c008 	ldr	ip, [r1], #-8
   17cfc:	e15c0001 	cmp	ip, r1
   17d00:	0afffff8 	beq	17ce8 <_malloc_r+0x638>
   17d04:	e59a3004 	ldr	r3, [sl, #4]
   17d08:	e1a00080 	lsl	r0, r0, #1
   17d0c:	e1500003 	cmp	r0, r3
   17d10:	8affff28 	bhi	179b8 <_malloc_r+0x308>
   17d14:	e3500000 	cmp	r0, #0	; 0x0
   17d18:	0affff26 	beq	179b8 <_malloc_r+0x308>
   17d1c:	e1100003 	tst	r0, r3
   17d20:	11a05009 	movne	r5, r9
   17d24:	1afffed3 	bne	17878 <_malloc_r+0x1c8>
   17d28:	e1a00080 	lsl	r0, r0, #1
   17d2c:	e1100003 	tst	r0, r3
   17d30:	e2899004 	add	r9, r9, #4	; 0x4
   17d34:	0afffffb 	beq	17d28 <_malloc_r+0x678>
   17d38:	e1a05009 	mov	r5, r9
   17d3c:	eafffecd 	b	17878 <_malloc_r+0x1c8>
   17d40:	e59fb090 	ldr	fp, [pc, #144]	; 17dd8 <_malloc_r+0x728>
   17d44:	e59b3000 	ldr	r3, [fp]
   17d48:	e0841003 	add	r1, r4, r3
   17d4c:	e58b1000 	str	r1, [fp]
   17d50:	1affff3d 	bne	17a4c <_malloc_r+0x39c>
   17d54:	e1a03a02 	lsl	r3, r2, #20
   17d58:	e1a03a23 	lsr	r3, r3, #20
   17d5c:	e3530000 	cmp	r3, #0	; 0x0
   17d60:	1affff39 	bne	17a4c <_malloc_r+0x39c>
   17d64:	e0843009 	add	r3, r4, r9
   17d68:	e59a2008 	ldr	r2, [sl, #8]
   17d6c:	e3833001 	orr	r3, r3, #1	; 0x1
   17d70:	e5823004 	str	r3, [r2, #4]
   17d74:	eaffff65 	b	17b10 <_malloc_r+0x460>
   17d78:	e59a3004 	ldr	r3, [sl, #4]
   17d7c:	e1a01141 	asr	r1, r1, #2
   17d80:	e3a02001 	mov	r2, #1	; 0x1
   17d84:	e1833112 	orr	r3, r3, r2, lsl r1
   17d88:	e58a3004 	str	r3, [sl, #4]
   17d8c:	e1a0300e 	mov	r3, lr
   17d90:	eaffffb6 	b	17c70 <_malloc_r+0x5c0>
   17d94:	e2851008 	add	r1, r5, #8	; 0x8
   17d98:	e1a00008 	mov	r0, r8
   17d9c:	eb000216 	bl	185fc <_free_r>
   17da0:	eaffff5a 	b	17b10 <_malloc_r+0x460>
   17da4:	e59a3004 	ldr	r3, [sl, #4]
   17da8:	e1e02000 	mvn	r2, r0
   17dac:	e0033002 	and	r3, r3, r2
   17db0:	e58a3004 	str	r3, [sl, #4]
   17db4:	eaffffd2 	b	17d04 <_malloc_r+0x654>
   17db8:	e1a00008 	mov	r0, r8
   17dbc:	eb00007c 	bl	17fb4 <__malloc_unlock>
   17dc0:	e3a05000 	mov	r5, #0	; 0x0
   17dc4:	eafffe60 	b	1774c <_malloc_r+0x9c>
   17dc8:	40000080 	.word	0x40000080
   17dcc:	40000088 	.word	0x40000088
   17dd0:	40001204 	.word	0x40001204
   17dd4:	4000048c 	.word	0x4000048c
   17dd8:	40001210 	.word	0x40001210
   17ddc:	40001208 	.word	0x40001208
   17de0:	4000120c 	.word	0x4000120c

00017de4 <memcpy>:
   17de4:	e92d0070 	push	{r4, r5, r6}
   17de8:	e352000f 	cmp	r2, #15	; 0xf
   17dec:	e1a04002 	mov	r4, r2
   17df0:	e1a05001 	mov	r5, r1
   17df4:	e1a02001 	mov	r2, r1
   17df8:	e1a06000 	mov	r6, r0
   17dfc:	e1a01004 	mov	r1, r4
   17e00:	9a000002 	bls	17e10 <memcpy+0x2c>
   17e04:	e1853006 	orr	r3, r5, r6
   17e08:	e3130003 	tst	r3, #3	; 0x3
   17e0c:	0a00000a 	beq	17e3c <memcpy+0x58>
   17e10:	e3510000 	cmp	r1, #0	; 0x0
   17e14:	0a000005 	beq	17e30 <memcpy+0x4c>
   17e18:	e3a0c000 	mov	ip, #0	; 0x0
   17e1c:	e7d2300c 	ldrb	r3, [r2, ip]
   17e20:	e7c0300c 	strb	r3, [r0, ip]
   17e24:	e28cc001 	add	ip, ip, #1	; 0x1
   17e28:	e15c0001 	cmp	ip, r1
   17e2c:	1afffffa 	bne	17e1c <memcpy+0x38>
   17e30:	e1a00006 	mov	r0, r6
   17e34:	e8bd0070 	pop	{r4, r5, r6}
   17e38:	e12fff1e 	bx	lr
   17e3c:	e1a01006 	mov	r1, r6
   17e40:	e1a0c005 	mov	ip, r5
   17e44:	e1a00004 	mov	r0, r4
   17e48:	e59c3000 	ldr	r3, [ip]
   17e4c:	e5813000 	str	r3, [r1]
   17e50:	e59c2004 	ldr	r2, [ip, #4]
   17e54:	e5812004 	str	r2, [r1, #4]
   17e58:	e59c3008 	ldr	r3, [ip, #8]
   17e5c:	e5813008 	str	r3, [r1, #8]
   17e60:	e2400010 	sub	r0, r0, #16	; 0x10
   17e64:	e59c300c 	ldr	r3, [ip, #12]
   17e68:	e350000f 	cmp	r0, #15	; 0xf
   17e6c:	e581300c 	str	r3, [r1, #12]
   17e70:	e28cc010 	add	ip, ip, #16	; 0x10
   17e74:	e2811010 	add	r1, r1, #16	; 0x10
   17e78:	8afffff2 	bhi	17e48 <memcpy+0x64>
   17e7c:	e2442010 	sub	r2, r4, #16	; 0x10
   17e80:	e1a03222 	lsr	r3, r2, #4
   17e84:	e0421203 	sub	r1, r2, r3, lsl #4
   17e88:	e2833001 	add	r3, r3, #1	; 0x1
   17e8c:	e1a03203 	lsl	r3, r3, #4
   17e90:	e3510003 	cmp	r1, #3	; 0x3
   17e94:	e0854003 	add	r4, r5, r3
   17e98:	e0860003 	add	r0, r6, r3
   17e9c:	9a00000d 	bls	17ed8 <memcpy+0xf4>
   17ea0:	e3a0c000 	mov	ip, #0	; 0x0
   17ea4:	e794300c 	ldr	r3, [r4, ip]
   17ea8:	e780300c 	str	r3, [r0, ip]
   17eac:	e28cc004 	add	ip, ip, #4	; 0x4
   17eb0:	e06c3001 	rsb	r3, ip, r1
   17eb4:	e3530003 	cmp	r3, #3	; 0x3
   17eb8:	8afffff9 	bhi	17ea4 <memcpy+0xc0>
   17ebc:	e2411004 	sub	r1, r1, #4	; 0x4
   17ec0:	e1a02121 	lsr	r2, r1, #2
   17ec4:	e2823001 	add	r3, r2, #1	; 0x1
   17ec8:	e1a03103 	lsl	r3, r3, #2
   17ecc:	e0800003 	add	r0, r0, r3
   17ed0:	e0411102 	sub	r1, r1, r2, lsl #2
   17ed4:	e0844003 	add	r4, r4, r3
   17ed8:	e1a02004 	mov	r2, r4
   17edc:	eaffffcb 	b	17e10 <memcpy+0x2c>

00017ee0 <memset>:
   17ee0:	e3520003 	cmp	r2, #3	; 0x3
   17ee4:	e92d0030 	push	{r4, r5}
   17ee8:	e1a0c000 	mov	ip, r0
   17eec:	e1a04000 	mov	r4, r0
   17ef0:	e20150ff 	and	r5, r1, #255	; 0xff
   17ef4:	9a000022 	bls	17f84 <memset+0xa4>
   17ef8:	e3100003 	tst	r0, #3	; 0x3
   17efc:	1a000022 	bne	17f8c <memset+0xac>
   17f00:	e352000f 	cmp	r2, #15	; 0xf
   17f04:	e1853405 	orr	r3, r5, r5, lsl #8
   17f08:	e1831803 	orr	r1, r3, r3, lsl #16
   17f0c:	81a0c002 	movhi	ip, r2
   17f10:	81a03004 	movhi	r3, r4
   17f14:	9a00000e 	bls	17f54 <memset+0x74>
   17f18:	e24cc010 	sub	ip, ip, #16	; 0x10
   17f1c:	e35c000f 	cmp	ip, #15	; 0xf
   17f20:	e5831000 	str	r1, [r3]
   17f24:	e5831004 	str	r1, [r3, #4]
   17f28:	e5831008 	str	r1, [r3, #8]
   17f2c:	e583100c 	str	r1, [r3, #12]
   17f30:	e2833010 	add	r3, r3, #16	; 0x10
   17f34:	8afffff7 	bhi	17f18 <memset+0x38>
   17f38:	e2422010 	sub	r2, r2, #16	; 0x10
   17f3c:	e3c2300f 	bic	r3, r2, #15	; 0xf
   17f40:	e202200f 	and	r2, r2, #15	; 0xf
   17f44:	e2833010 	add	r3, r3, #16	; 0x10
   17f48:	e3520003 	cmp	r2, #3	; 0x3
   17f4c:	e0840003 	add	r0, r4, r3
   17f50:	9a00000a 	bls	17f80 <memset+0xa0>
   17f54:	e3a0c000 	mov	ip, #0	; 0x0
   17f58:	e780100c 	str	r1, [r0, ip]
   17f5c:	e28cc004 	add	ip, ip, #4	; 0x4
   17f60:	e06c3002 	rsb	r3, ip, r2
   17f64:	e3530003 	cmp	r3, #3	; 0x3
   17f68:	8afffffa 	bhi	17f58 <memset+0x78>
   17f6c:	e2422004 	sub	r2, r2, #4	; 0x4
   17f70:	e3c23003 	bic	r3, r2, #3	; 0x3
   17f74:	e2833004 	add	r3, r3, #4	; 0x4
   17f78:	e0800003 	add	r0, r0, r3
   17f7c:	e2022003 	and	r2, r2, #3	; 0x3
   17f80:	e1a0c000 	mov	ip, r0
   17f84:	e3520000 	cmp	r2, #0	; 0x0
   17f88:	0a000005 	beq	17fa4 <memset+0xc4>
   17f8c:	e20510ff 	and	r1, r5, #255	; 0xff
   17f90:	e3a03000 	mov	r3, #0	; 0x0
   17f94:	e7cc1003 	strb	r1, [ip, r3]
   17f98:	e2833001 	add	r3, r3, #1	; 0x1
   17f9c:	e1530002 	cmp	r3, r2
   17fa0:	1afffffb 	bne	17f94 <memset+0xb4>
   17fa4:	e1a00004 	mov	r0, r4
   17fa8:	e8bd0030 	pop	{r4, r5}
   17fac:	e12fff1e 	bx	lr

00017fb0 <__malloc_lock>:
   17fb0:	e12fff1e 	bx	lr

00017fb4 <__malloc_unlock>:
   17fb4:	e12fff1e 	bx	lr

00017fb8 <strchr>:
   17fb8:	e2102003 	ands	r2, r0, #3	; 0x3
   17fbc:	e52d4004 	push	{r4}		; (str r4, [sp, #-4]!)
   17fc0:	e201c0ff 	and	ip, r1, #255	; 0xff
   17fc4:	1a00003a 	bne	180b4 <strchr+0xfc>
   17fc8:	e1a04002 	mov	r4, r2
   17fcc:	e1a03002 	mov	r3, r2
   17fd0:	e2833001 	add	r3, r3, #1	; 0x1
   17fd4:	e3530004 	cmp	r3, #4	; 0x4
   17fd8:	e18c4404 	orr	r4, ip, r4, lsl #8
   17fdc:	1afffffb 	bne	17fd0 <strchr+0x18>
   17fe0:	e5901000 	ldr	r1, [r0]
   17fe4:	e28124ff 	add	r2, r1, #-16777216	; 0xff000000
   17fe8:	e2422801 	sub	r2, r2, #65536	; 0x10000
   17fec:	e2422c01 	sub	r2, r2, #256	; 0x100
   17ff0:	e2422001 	sub	r2, r2, #1	; 0x1
   17ff4:	e1e03001 	mvn	r3, r1
   17ff8:	e0033002 	and	r3, r3, r2
   17ffc:	e3c3347f 	bic	r3, r3, #2130706432	; 0x7f000000
   18000:	e3c3387f 	bic	r3, r3, #8323072	; 0x7f0000
   18004:	e3c33c7f 	bic	r3, r3, #32512	; 0x7f00
   18008:	e3c3307f 	bic	r3, r3, #127	; 0x7f
   1800c:	e3530000 	cmp	r3, #0	; 0x0
   18010:	1a000027 	bne	180b4 <strchr+0xfc>
   18014:	e0242001 	eor	r2, r4, r1
   18018:	e28234ff 	add	r3, r2, #-16777216	; 0xff000000
   1801c:	e2433801 	sub	r3, r3, #65536	; 0x10000
   18020:	e2433c01 	sub	r3, r3, #256	; 0x100
   18024:	e2433001 	sub	r3, r3, #1	; 0x1
   18028:	e1e02002 	mvn	r2, r2
   1802c:	e0033002 	and	r3, r3, r2
   18030:	e3c3347f 	bic	r3, r3, #2130706432	; 0x7f000000
   18034:	e3c3387f 	bic	r3, r3, #8323072	; 0x7f0000
   18038:	e3c33c7f 	bic	r3, r3, #32512	; 0x7f00
   1803c:	e3c3307f 	bic	r3, r3, #127	; 0x7f
   18040:	e3530000 	cmp	r3, #0	; 0x0
   18044:	0a000002 	beq	18054 <strchr+0x9c>
   18048:	ea000019 	b	180b4 <strchr+0xfc>
   1804c:	e3520000 	cmp	r2, #0	; 0x0
   18050:	1a000017 	bne	180b4 <strchr+0xfc>
   18054:	e5b01004 	ldr	r1, [r0, #4]!
   18058:	e0242001 	eor	r2, r4, r1
   1805c:	e28234ff 	add	r3, r2, #-16777216	; 0xff000000
   18060:	e2433801 	sub	r3, r3, #65536	; 0x10000
   18064:	e2433c01 	sub	r3, r3, #256	; 0x100
   18068:	e1e02002 	mvn	r2, r2
   1806c:	e2433001 	sub	r3, r3, #1	; 0x1
   18070:	e0033002 	and	r3, r3, r2
   18074:	e3c3247f 	bic	r2, r3, #2130706432	; 0x7f000000
   18078:	e28134ff 	add	r3, r1, #-16777216	; 0xff000000
   1807c:	e2433801 	sub	r3, r3, #65536	; 0x10000
   18080:	e2433c01 	sub	r3, r3, #256	; 0x100
   18084:	e2433001 	sub	r3, r3, #1	; 0x1
   18088:	e1e01001 	mvn	r1, r1
   1808c:	e0033001 	and	r3, r3, r1
   18090:	e3c3347f 	bic	r3, r3, #2130706432	; 0x7f000000
   18094:	e3c3387f 	bic	r3, r3, #8323072	; 0x7f0000
   18098:	e3c33c7f 	bic	r3, r3, #32512	; 0x7f00
   1809c:	e3c2287f 	bic	r2, r2, #8323072	; 0x7f0000
   180a0:	e3c3307f 	bic	r3, r3, #127	; 0x7f
   180a4:	e3c22c7f 	bic	r2, r2, #32512	; 0x7f00
   180a8:	e3530000 	cmp	r3, #0	; 0x0
   180ac:	e3c2207f 	bic	r2, r2, #127	; 0x7f
   180b0:	0affffe5 	beq	1804c <strchr+0x94>
   180b4:	e5d03000 	ldrb	r3, [r0]
   180b8:	e3530000 	cmp	r3, #0	; 0x0
   180bc:	1a000003 	bne	180d0 <strchr+0x118>
   180c0:	ea000006 	b	180e0 <strchr+0x128>
   180c4:	e5f03001 	ldrb	r3, [r0, #1]!
   180c8:	e3530000 	cmp	r3, #0	; 0x0
   180cc:	0a000003 	beq	180e0 <strchr+0x128>
   180d0:	e15c0003 	cmp	ip, r3
   180d4:	1afffffa 	bne	180c4 <strchr+0x10c>
   180d8:	e8bd0010 	pop	{r4}
   180dc:	e12fff1e 	bx	lr
   180e0:	e35c0000 	cmp	ip, #0	; 0x0
   180e4:	13a00000 	movne	r0, #0	; 0x0
   180e8:	eafffffa 	b	180d8 <strchr+0x120>

000180ec <strcmp>:
   180ec:	e1813000 	orr	r3, r1, r0
   180f0:	e3130003 	tst	r3, #3	; 0x3
   180f4:	e1a02000 	mov	r2, r0
   180f8:	1a000023 	bne	1818c <strcmp+0xa0>
   180fc:	e5902000 	ldr	r2, [r0]
   18100:	e5913000 	ldr	r3, [r1]
   18104:	e1520003 	cmp	r2, r3
   18108:	e1a0c001 	mov	ip, r1
   1810c:	1a00001c 	bne	18184 <strcmp+0x98>
   18110:	e28234ff 	add	r3, r2, #-16777216	; 0xff000000
   18114:	e2433801 	sub	r3, r3, #65536	; 0x10000
   18118:	e2433c01 	sub	r3, r3, #256	; 0x100
   1811c:	e2433001 	sub	r3, r3, #1	; 0x1
   18120:	e1e02002 	mvn	r2, r2
   18124:	e0033002 	and	r3, r3, r2
   18128:	e3c3347f 	bic	r3, r3, #2130706432	; 0x7f000000
   1812c:	e3c3387f 	bic	r3, r3, #8323072	; 0x7f0000
   18130:	e3c33c7f 	bic	r3, r3, #32512	; 0x7f00
   18134:	e3c3307f 	bic	r3, r3, #127	; 0x7f
   18138:	e3530000 	cmp	r3, #0	; 0x0
   1813c:	0a000002 	beq	1814c <strcmp+0x60>
   18140:	ea000021 	b	181cc <strcmp+0xe0>
   18144:	e3520000 	cmp	r2, #0	; 0x0
   18148:	1a00001f 	bne	181cc <strcmp+0xe0>
   1814c:	e5b01004 	ldr	r1, [r0, #4]!
   18150:	e28134ff 	add	r3, r1, #-16777216	; 0xff000000
   18154:	e2433801 	sub	r3, r3, #65536	; 0x10000
   18158:	e2433c01 	sub	r3, r3, #256	; 0x100
   1815c:	e1e02001 	mvn	r2, r1
   18160:	e2433001 	sub	r3, r3, #1	; 0x1
   18164:	e0033002 	and	r3, r3, r2
   18168:	e3c3247f 	bic	r2, r3, #2130706432	; 0x7f000000
   1816c:	e5bc3004 	ldr	r3, [ip, #4]!
   18170:	e3c2287f 	bic	r2, r2, #8323072	; 0x7f0000
   18174:	e3c22c7f 	bic	r2, r2, #32512	; 0x7f00
   18178:	e1510003 	cmp	r1, r3
   1817c:	e3c2207f 	bic	r2, r2, #127	; 0x7f
   18180:	0affffef 	beq	18144 <strcmp+0x58>
   18184:	e1a02000 	mov	r2, r0
   18188:	e1a0100c 	mov	r1, ip
   1818c:	e5d23000 	ldrb	r3, [r2]
   18190:	e3530000 	cmp	r3, #0	; 0x0
   18194:	1a000004 	bne	181ac <strcmp+0xc0>
   18198:	ea000008 	b	181c0 <strcmp+0xd4>
   1819c:	e5f23001 	ldrb	r3, [r2, #1]!
   181a0:	e3530000 	cmp	r3, #0	; 0x0
   181a4:	e2811001 	add	r1, r1, #1	; 0x1
   181a8:	0a000004 	beq	181c0 <strcmp+0xd4>
   181ac:	e5d10000 	ldrb	r0, [r1]
   181b0:	e1500003 	cmp	r0, r3
   181b4:	0afffff8 	beq	1819c <strcmp+0xb0>
   181b8:	e0600003 	rsb	r0, r0, r3
   181bc:	e12fff1e 	bx	lr
   181c0:	e5d10000 	ldrb	r0, [r1]
   181c4:	e0600003 	rsb	r0, r0, r3
   181c8:	e12fff1e 	bx	lr
   181cc:	e3a00000 	mov	r0, #0	; 0x0
   181d0:	e12fff1e 	bx	lr

000181d4 <strlen>:
   181d4:	e3100003 	tst	r0, #3	; 0x3
   181d8:	e1a01000 	mov	r1, r0
   181dc:	11a00000 	movne	r0, r0
   181e0:	1a00001a 	bne	18250 <strlen+0x7c>
   181e4:	e5912000 	ldr	r2, [r1]
   181e8:	e28234ff 	add	r3, r2, #-16777216	; 0xff000000
   181ec:	e2433801 	sub	r3, r3, #65536	; 0x10000
   181f0:	e2433c01 	sub	r3, r3, #256	; 0x100
   181f4:	e2433001 	sub	r3, r3, #1	; 0x1
   181f8:	e1e02002 	mvn	r2, r2
   181fc:	e0033002 	and	r3, r3, r2
   18200:	e3c3347f 	bic	r3, r3, #2130706432	; 0x7f000000
   18204:	e3c3387f 	bic	r3, r3, #8323072	; 0x7f0000
   18208:	e3c33c7f 	bic	r3, r3, #32512	; 0x7f00
   1820c:	e3c3307f 	bic	r3, r3, #127	; 0x7f
   18210:	e3530000 	cmp	r3, #0	; 0x0
   18214:	e1a00001 	mov	r0, r1
   18218:	1a00000c 	bne	18250 <strlen+0x7c>
   1821c:	e5b02004 	ldr	r2, [r0, #4]!
   18220:	e28234ff 	add	r3, r2, #-16777216	; 0xff000000
   18224:	e2433801 	sub	r3, r3, #65536	; 0x10000
   18228:	e2433c01 	sub	r3, r3, #256	; 0x100
   1822c:	e2433001 	sub	r3, r3, #1	; 0x1
   18230:	e1e02002 	mvn	r2, r2
   18234:	e0033002 	and	r3, r3, r2
   18238:	e3c3347f 	bic	r3, r3, #2130706432	; 0x7f000000
   1823c:	e3c3387f 	bic	r3, r3, #8323072	; 0x7f0000
   18240:	e3c33c7f 	bic	r3, r3, #32512	; 0x7f00
   18244:	e3c3307f 	bic	r3, r3, #127	; 0x7f
   18248:	e3530000 	cmp	r3, #0	; 0x0
   1824c:	0afffff2 	beq	1821c <strlen+0x48>
   18250:	e5d03000 	ldrb	r3, [r0]
   18254:	e3530000 	cmp	r3, #0	; 0x0
   18258:	0a000002 	beq	18268 <strlen+0x94>
   1825c:	e5f03001 	ldrb	r3, [r0, #1]!
   18260:	e3530000 	cmp	r3, #0	; 0x0
   18264:	1afffffc 	bne	1825c <strlen+0x88>
   18268:	e0610000 	rsb	r0, r1, r0
   1826c:	e12fff1e 	bx	lr

00018270 <strncmp>:
   18270:	e92d0070 	push	{r4, r5, r6}
   18274:	e2525000 	subs	r5, r2, #0	; 0x0
   18278:	e1a04000 	mov	r4, r0
   1827c:	e1a0c001 	mov	ip, r1
   18280:	0a000048 	beq	183a8 <strncmp+0x138>
   18284:	e1813000 	orr	r3, r1, r0
   18288:	e3130003 	tst	r3, #3	; 0x3
   1828c:	1a000035 	bne	18368 <strncmp+0xf8>
   18290:	e3550003 	cmp	r5, #3	; 0x3
   18294:	e1a06001 	mov	r6, r1
   18298:	9a000030 	bls	18360 <strncmp+0xf0>
   1829c:	e5942000 	ldr	r2, [r4]
   182a0:	e5913000 	ldr	r3, [r1]
   182a4:	e1520003 	cmp	r2, r3
   182a8:	1a00002c 	bne	18360 <strncmp+0xf0>
   182ac:	e2555004 	subs	r5, r5, #4	; 0x4
   182b0:	0a00003c 	beq	183a8 <strncmp+0x138>
   182b4:	e28234ff 	add	r3, r2, #-16777216	; 0xff000000
   182b8:	e2433801 	sub	r3, r3, #65536	; 0x10000
   182bc:	e2433c01 	sub	r3, r3, #256	; 0x100
   182c0:	e2433001 	sub	r3, r3, #1	; 0x1
   182c4:	e1e02002 	mvn	r2, r2
   182c8:	e0033002 	and	r3, r3, r2
   182cc:	e3c3347f 	bic	r3, r3, #2130706432	; 0x7f000000
   182d0:	e3c3387f 	bic	r3, r3, #8323072	; 0x7f0000
   182d4:	e3c33c7f 	bic	r3, r3, #32512	; 0x7f00
   182d8:	e3c3307f 	bic	r3, r3, #127	; 0x7f
   182dc:	e3530000 	cmp	r3, #0	; 0x0
   182e0:	0a000012 	beq	18330 <strncmp+0xc0>
   182e4:	ea00002f 	b	183a8 <strncmp+0x138>
   182e8:	e5901000 	ldr	r1, [r0]
   182ec:	e28134ff 	add	r3, r1, #-16777216	; 0xff000000
   182f0:	e2433801 	sub	r3, r3, #65536	; 0x10000
   182f4:	e2433c01 	sub	r3, r3, #256	; 0x100
   182f8:	e1e02001 	mvn	r2, r1
   182fc:	e2433001 	sub	r3, r3, #1	; 0x1
   18300:	e0033002 	and	r3, r3, r2
   18304:	e3c3247f 	bic	r2, r3, #2130706432	; 0x7f000000
   18308:	e5963000 	ldr	r3, [r6]
   1830c:	e3c2287f 	bic	r2, r2, #8323072	; 0x7f0000
   18310:	e3c22c7f 	bic	r2, r2, #32512	; 0x7f00
   18314:	e1510003 	cmp	r1, r3
   18318:	e3c2207f 	bic	r2, r2, #127	; 0x7f
   1831c:	1a00000f 	bne	18360 <strncmp+0xf0>
   18320:	e2555004 	subs	r5, r5, #4	; 0x4
   18324:	0a00001f 	beq	183a8 <strncmp+0x138>
   18328:	e3520000 	cmp	r2, #0	; 0x0
   1832c:	1a00001d 	bne	183a8 <strncmp+0x138>
   18330:	e3550003 	cmp	r5, #3	; 0x3
   18334:	e2800004 	add	r0, r0, #4	; 0x4
   18338:	e2866004 	add	r6, r6, #4	; 0x4
   1833c:	8affffe9 	bhi	182e8 <strncmp+0x78>
   18340:	e3550000 	cmp	r5, #0	; 0x0
   18344:	e1a04000 	mov	r4, r0
   18348:	e1a0c006 	mov	ip, r6
   1834c:	1a000005 	bne	18368 <strncmp+0xf8>
   18350:	e5d01000 	ldrb	r1, [r0]
   18354:	e5d60000 	ldrb	r0, [r6]
   18358:	e0600001 	rsb	r0, r0, r1
   1835c:	ea000012 	b	183ac <strncmp+0x13c>
   18360:	e1a04000 	mov	r4, r0
   18364:	e1a0c006 	mov	ip, r6
   18368:	e5d41000 	ldrb	r1, [r4]
   1836c:	e5dc0000 	ldrb	r0, [ip]
   18370:	e1500001 	cmp	r0, r1
   18374:	e2452001 	sub	r2, r5, #1	; 0x1
   18378:	1afffff6 	bne	18358 <strncmp+0xe8>
   1837c:	e3520000 	cmp	r2, #0	; 0x0
   18380:	1a000006 	bne	183a0 <strncmp+0x130>
   18384:	ea000007 	b	183a8 <strncmp+0x138>
   18388:	e5fc0001 	ldrb	r0, [ip, #1]!
   1838c:	e5f41001 	ldrb	r1, [r4, #1]!
   18390:	e1500001 	cmp	r0, r1
   18394:	1affffef 	bne	18358 <strncmp+0xe8>
   18398:	e2522001 	subs	r2, r2, #1	; 0x1
   1839c:	0a000001 	beq	183a8 <strncmp+0x138>
   183a0:	e3500000 	cmp	r0, #0	; 0x0
   183a4:	1afffff7 	bne	18388 <strncmp+0x118>
   183a8:	e3a00000 	mov	r0, #0	; 0x0
   183ac:	e8bd0070 	pop	{r4, r5, r6}
   183b0:	e12fff1e 	bx	lr

000183b4 <strncpy>:
   183b4:	e1a0c001 	mov	ip, r1
   183b8:	e1811000 	orr	r1, r1, r0
   183bc:	e3110003 	tst	r1, #3	; 0x3
   183c0:	13a03000 	movne	r3, #0	; 0x0
   183c4:	03a03001 	moveq	r3, #1	; 0x1
   183c8:	e3520003 	cmp	r2, #3	; 0x3
   183cc:	93a03000 	movls	r3, #0	; 0x0
   183d0:	82033001 	andhi	r3, r3, #1	; 0x1
   183d4:	e92d0030 	push	{r4, r5}
   183d8:	e3530000 	cmp	r3, #0	; 0x0
   183dc:	e1a05000 	mov	r5, r0
   183e0:	11a0100c 	movne	r1, ip
   183e4:	e1a00002 	mov	r0, r2
   183e8:	11a04005 	movne	r4, r5
   183ec:	1a00001e 	bne	1846c <strncpy+0xb8>
   183f0:	e1a0400c 	mov	r4, ip
   183f4:	e1a0c005 	mov	ip, r5
   183f8:	e3500000 	cmp	r0, #0	; 0x0
   183fc:	0a000017 	beq	18460 <strncpy+0xac>
   18400:	e5d43000 	ldrb	r3, [r4]
   18404:	e1a0100c 	mov	r1, ip
   18408:	e3530000 	cmp	r3, #0	; 0x0
   1840c:	e2402001 	sub	r2, r0, #1	; 0x1
   18410:	e4c13001 	strb	r3, [r1], #1
   18414:	128cc002 	addne	ip, ip, #2	; 0x2
   18418:	0a000008 	beq	18440 <strncpy+0x8c>
   1841c:	e3520000 	cmp	r2, #0	; 0x0
   18420:	e1a0100c 	mov	r1, ip
   18424:	e2422001 	sub	r2, r2, #1	; 0x1
   18428:	0a00000c 	beq	18460 <strncpy+0xac>
   1842c:	e5f43001 	ldrb	r3, [r4, #1]!
   18430:	e3530000 	cmp	r3, #0	; 0x0
   18434:	e54c3001 	strb	r3, [ip, #-1]
   18438:	e28cc001 	add	ip, ip, #1	; 0x1
   1843c:	1afffff6 	bne	1841c <strncpy+0x68>
   18440:	e3520000 	cmp	r2, #0	; 0x0
   18444:	13a03000 	movne	r3, #0	; 0x0
   18448:	11a0c003 	movne	ip, r3
   1844c:	0a000003 	beq	18460 <strncpy+0xac>
   18450:	e7c1c003 	strb	ip, [r1, r3]
   18454:	e2833001 	add	r3, r3, #1	; 0x1
   18458:	e1520003 	cmp	r2, r3
   1845c:	1afffffb 	bne	18450 <strncpy+0x9c>
   18460:	e1a00005 	mov	r0, r5
   18464:	e8bd0030 	pop	{r4, r5}
   18468:	e12fff1e 	bx	lr
   1846c:	e591c000 	ldr	ip, [r1]
   18470:	e28c24ff 	add	r2, ip, #-16777216	; 0xff000000
   18474:	e2422801 	sub	r2, r2, #65536	; 0x10000
   18478:	e2422c01 	sub	r2, r2, #256	; 0x100
   1847c:	e2422001 	sub	r2, r2, #1	; 0x1
   18480:	e1e0300c 	mvn	r3, ip
   18484:	e0033002 	and	r3, r3, r2
   18488:	e3c3347f 	bic	r3, r3, #2130706432	; 0x7f000000
   1848c:	e3c3387f 	bic	r3, r3, #8323072	; 0x7f0000
   18490:	e3c33c7f 	bic	r3, r3, #32512	; 0x7f00
   18494:	e3c3307f 	bic	r3, r3, #127	; 0x7f
   18498:	e3530000 	cmp	r3, #0	; 0x0
   1849c:	1a000004 	bne	184b4 <strncpy+0x100>
   184a0:	e2400004 	sub	r0, r0, #4	; 0x4
   184a4:	e3500003 	cmp	r0, #3	; 0x3
   184a8:	e484c004 	str	ip, [r4], #4
   184ac:	e2811004 	add	r1, r1, #4	; 0x4
   184b0:	8affffed 	bhi	1846c <strncpy+0xb8>
   184b4:	e1a0c004 	mov	ip, r4
   184b8:	e1a04001 	mov	r4, r1
   184bc:	eaffffcd 	b	183f8 <strncpy+0x44>

000184c0 <strrchr>:
   184c0:	e92d4030 	push	{r4, r5, lr}
   184c4:	e2515000 	subs	r5, r1, #0	; 0x0
   184c8:	e1a03000 	mov	r3, r0
   184cc:	13a04000 	movne	r4, #0	; 0x0
   184d0:	1a000002 	bne	184e0 <strrchr+0x20>
   184d4:	ea000008 	b	184fc <strrchr+0x3c>
   184d8:	e1a04000 	mov	r4, r0
   184dc:	e2803001 	add	r3, r0, #1	; 0x1
   184e0:	e1a00003 	mov	r0, r3
   184e4:	e1a01005 	mov	r1, r5
   184e8:	ebfffeb2 	bl	17fb8 <strchr>
   184ec:	e3500000 	cmp	r0, #0	; 0x0
   184f0:	1afffff8 	bne	184d8 <strrchr+0x18>
   184f4:	e1a00004 	mov	r0, r4
   184f8:	e8bd8030 	pop	{r4, r5, pc}
   184fc:	e8bd4030 	pop	{r4, r5, lr}
   18500:	eafffeac 	b	17fb8 <strchr>

00018504 <_malloc_trim_r>:
   18504:	e92d40f0 	push	{r4, r5, r6, r7, lr}
   18508:	e59f70e0 	ldr	r7, [pc, #224]	; 185f0 <_malloc_trim_r+0xec>
   1850c:	e1a04001 	mov	r4, r1
   18510:	e1a06000 	mov	r6, r0
   18514:	ebfffea5 	bl	17fb0 <__malloc_lock>
   18518:	e5973008 	ldr	r3, [r7, #8]
   1851c:	e5932004 	ldr	r2, [r3, #4]
   18520:	e3c25003 	bic	r5, r2, #3	; 0x3
   18524:	e2853efe 	add	r3, r5, #4064	; 0xfe0
   18528:	e283300f 	add	r3, r3, #15	; 0xf
   1852c:	e0643003 	rsb	r3, r4, r3
   18530:	e1a03623 	lsr	r3, r3, #12
   18534:	e2433001 	sub	r3, r3, #1	; 0x1
   18538:	e1a04603 	lsl	r4, r3, #12
   1853c:	e3540a01 	cmp	r4, #4096	; 0x1000
   18540:	ba000006 	blt	18560 <_malloc_trim_r+0x5c>
   18544:	e1a00006 	mov	r0, r6
   18548:	e3a01000 	mov	r1, #0	; 0x0
   1854c:	ebffe5db 	bl	11cc0 <_sbrk_r>
   18550:	e5973008 	ldr	r3, [r7, #8]
   18554:	e0833005 	add	r3, r3, r5
   18558:	e1500003 	cmp	r0, r3
   1855c:	0a000003 	beq	18570 <_malloc_trim_r+0x6c>
   18560:	e1a00006 	mov	r0, r6
   18564:	ebfffe92 	bl	17fb4 <__malloc_unlock>
   18568:	e3a00000 	mov	r0, #0	; 0x0
   1856c:	e8bd80f0 	pop	{r4, r5, r6, r7, pc}
   18570:	e1a00006 	mov	r0, r6
   18574:	e2641000 	rsb	r1, r4, #0	; 0x0
   18578:	ebffe5d0 	bl	11cc0 <_sbrk_r>
   1857c:	e3700001 	cmn	r0, #1	; 0x1
   18580:	0a00000b 	beq	185b4 <_malloc_trim_r+0xb0>
   18584:	e59fc068 	ldr	ip, [pc, #104]	; 185f4 <_malloc_trim_r+0xf0>
   18588:	e59c2000 	ldr	r2, [ip]
   1858c:	e5971008 	ldr	r1, [r7, #8]
   18590:	e0643005 	rsb	r3, r4, r5
   18594:	e3833001 	orr	r3, r3, #1	; 0x1
   18598:	e0642002 	rsb	r2, r4, r2
   1859c:	e1a00006 	mov	r0, r6
   185a0:	e5813004 	str	r3, [r1, #4]
   185a4:	e58c2000 	str	r2, [ip]
   185a8:	ebfffe81 	bl	17fb4 <__malloc_unlock>
   185ac:	e3a00001 	mov	r0, #1	; 0x1
   185b0:	e8bd80f0 	pop	{r4, r5, r6, r7, pc}
   185b4:	e3a01000 	mov	r1, #0	; 0x0
   185b8:	e1a00006 	mov	r0, r6
   185bc:	ebffe5bf 	bl	11cc0 <_sbrk_r>
   185c0:	e597c008 	ldr	ip, [r7, #8]
   185c4:	e06c1000 	rsb	r1, ip, r0
   185c8:	e351000f 	cmp	r1, #15	; 0xf
   185cc:	daffffe3 	ble	18560 <_malloc_trim_r+0x5c>
   185d0:	e59f3020 	ldr	r3, [pc, #32]	; 185f8 <_malloc_trim_r+0xf4>
   185d4:	e5932000 	ldr	r2, [r3]
   185d8:	e59f3014 	ldr	r3, [pc, #20]	; 185f4 <_malloc_trim_r+0xf0>
   185dc:	e0622000 	rsb	r2, r2, r0
   185e0:	e3811001 	orr	r1, r1, #1	; 0x1
   185e4:	e5832000 	str	r2, [r3]
   185e8:	e58c1004 	str	r1, [ip, #4]
   185ec:	eaffffdb 	b	18560 <_malloc_trim_r+0x5c>
   185f0:	40000080 	.word	0x40000080
   185f4:	40001210 	.word	0x40001210
   185f8:	4000048c 	.word	0x4000048c

000185fc <_free_r>:
   185fc:	e92d41f0 	push	{r4, r5, r6, r7, r8, lr}
   18600:	e2514000 	subs	r4, r1, #0	; 0x0
   18604:	e1a08000 	mov	r8, r0
   18608:	08bd81f0 	popeq	{r4, r5, r6, r7, r8, pc}
   1860c:	e2445008 	sub	r5, r4, #8	; 0x8
   18610:	ebfffe66 	bl	17fb0 <__malloc_lock>
   18614:	e5951004 	ldr	r1, [r5, #4]
   18618:	e59f7244 	ldr	r7, [pc, #580]	; 18864 <_free_r+0x268>
   1861c:	e3c1e001 	bic	lr, r1, #1	; 0x1
   18620:	e085000e 	add	r0, r5, lr
   18624:	e5973008 	ldr	r3, [r7, #8]
   18628:	e5902004 	ldr	r2, [r0, #4]
   1862c:	e1530000 	cmp	r3, r0
   18630:	e3c26003 	bic	r6, r2, #3	; 0x3
   18634:	0a00006d 	beq	187f0 <_free_r+0x1f4>
   18638:	e2111001 	ands	r1, r1, #1	; 0x1
   1863c:	e5806004 	str	r6, [r0, #4]
   18640:	13a01000 	movne	r1, #0	; 0x0
   18644:	0a000040 	beq	1874c <_free_r+0x150>
   18648:	e0803006 	add	r3, r0, r6
   1864c:	e5932004 	ldr	r2, [r3, #4]
   18650:	e3120001 	tst	r2, #1	; 0x1
   18654:	1a000006 	bne	18674 <_free_r+0x78>
   18658:	e3510000 	cmp	r1, #0	; 0x0
   1865c:	e08ee006 	add	lr, lr, r6
   18660:	15902008 	ldrne	r2, [r0, #8]
   18664:	0a000047 	beq	18788 <_free_r+0x18c>
   18668:	e590300c 	ldr	r3, [r0, #12]
   1866c:	e5832008 	str	r2, [r3, #8]
   18670:	e582300c 	str	r3, [r2, #12]
   18674:	e38e3001 	orr	r3, lr, #1	; 0x1
   18678:	e3510000 	cmp	r1, #0	; 0x0
   1867c:	e5853004 	str	r3, [r5, #4]
   18680:	e785e00e 	str	lr, [r5, lr]
   18684:	1a00002d 	bne	18740 <_free_r+0x144>
   18688:	e35e0c02 	cmp	lr, #512	; 0x200
   1868c:	3a000049 	bcc	187b8 <_free_r+0x1bc>
   18690:	e1a014ae 	lsr	r1, lr, #9
   18694:	e3510004 	cmp	r1, #4	; 0x4
   18698:	91a0332e 	lsrls	r3, lr, #6
   1869c:	92831038 	addls	r1, r3, #56	; 0x38
   186a0:	91a03181 	lslls	r3, r1, #3
   186a4:	9a000015 	bls	18700 <_free_r+0x104>
   186a8:	e3510014 	cmp	r1, #20	; 0x14
   186ac:	9281105b 	addls	r1, r1, #91	; 0x5b
   186b0:	91a03181 	lslls	r3, r1, #3
   186b4:	9a000011 	bls	18700 <_free_r+0x104>
   186b8:	e3510054 	cmp	r1, #84	; 0x54
   186bc:	91a0362e 	lsrls	r3, lr, #12
   186c0:	9283106e 	addls	r1, r3, #110	; 0x6e
   186c4:	91a03181 	lslls	r3, r1, #3
   186c8:	9a00000c 	bls	18700 <_free_r+0x104>
   186cc:	e3510f55 	cmp	r1, #340	; 0x154
   186d0:	91a037ae 	lsrls	r3, lr, #15
   186d4:	92831077 	addls	r1, r3, #119	; 0x77
   186d8:	91a03181 	lslls	r3, r1, #3
   186dc:	9a000007 	bls	18700 <_free_r+0x104>
   186e0:	e3a03e55 	mov	r3, #1360	; 0x550
   186e4:	e2833004 	add	r3, r3, #4	; 0x4
   186e8:	e1510003 	cmp	r1, r3
   186ec:	91a0392e 	lsrls	r3, lr, #18
   186f0:	9283107c 	addls	r1, r3, #124	; 0x7c
   186f4:	83a0107e 	movhi	r1, #126	; 0x7e
   186f8:	82433f59 	subhi	r3, r3, #356	; 0x164
   186fc:	91a03181 	lslls	r3, r1, #3
   18700:	e0872003 	add	r2, r7, r3
   18704:	e5920008 	ldr	r0, [r2, #8]
   18708:	e1500002 	cmp	r0, r2
   1870c:	0a00004d 	beq	18848 <_free_r+0x24c>
   18710:	e5903004 	ldr	r3, [r0, #4]
   18714:	e3c33003 	bic	r3, r3, #3	; 0x3
   18718:	e15e0003 	cmp	lr, r3
   1871c:	2a000002 	bcs	1872c <_free_r+0x130>
   18720:	e5900008 	ldr	r0, [r0, #8]
   18724:	e1520000 	cmp	r2, r0
   18728:	1afffff8 	bne	18710 <_free_r+0x114>
   1872c:	e590300c 	ldr	r3, [r0, #12]
   18730:	e585300c 	str	r3, [r5, #12]
   18734:	e5850008 	str	r0, [r5, #8]
   18738:	e580500c 	str	r5, [r0, #12]
   1873c:	e5835008 	str	r5, [r3, #8]
   18740:	e1a00008 	mov	r0, r8
   18744:	e8bd41f0 	pop	{r4, r5, r6, r7, r8, lr}
   18748:	eafffe19 	b	17fb4 <__malloc_unlock>
   1874c:	e5142008 	ldr	r2, [r4, #-8]
   18750:	e0625005 	rsb	r5, r2, r5
   18754:	e595c008 	ldr	ip, [r5, #8]
   18758:	e2873008 	add	r3, r7, #8	; 0x8
   1875c:	e15c0003 	cmp	ip, r3
   18760:	1595300c 	ldrne	r3, [r5, #12]
   18764:	1583c008 	strne	ip, [r3, #8]
   18768:	158c300c 	strne	r3, [ip, #12]
   1876c:	e0803006 	add	r3, r0, r6
   18770:	e08ee002 	add	lr, lr, r2
   18774:	e5932004 	ldr	r2, [r3, #4]
   18778:	03a01001 	moveq	r1, #1	; 0x1
   1877c:	e3120001 	tst	r2, #1	; 0x1
   18780:	1affffbb 	bne	18674 <_free_r+0x78>
   18784:	eaffffb3 	b	18658 <_free_r+0x5c>
   18788:	e5902008 	ldr	r2, [r0, #8]
   1878c:	e59f30d4 	ldr	r3, [pc, #212]	; 18868 <_free_r+0x26c>
   18790:	e1520003 	cmp	r2, r3
   18794:	1affffb3 	bne	18668 <_free_r+0x6c>
   18798:	e38e3001 	orr	r3, lr, #1	; 0x1
   1879c:	e582500c 	str	r5, [r2, #12]
   187a0:	e5825008 	str	r5, [r2, #8]
   187a4:	e785e00e 	str	lr, [r5, lr]
   187a8:	e5853004 	str	r3, [r5, #4]
   187ac:	e5852008 	str	r2, [r5, #8]
   187b0:	e585200c 	str	r2, [r5, #12]
   187b4:	eaffffe1 	b	18740 <_free_r+0x144>
   187b8:	e1a031ae 	lsr	r3, lr, #3
   187bc:	e5971004 	ldr	r1, [r7, #4]
   187c0:	e1a00143 	asr	r0, r3, #2
   187c4:	e3a02001 	mov	r2, #1	; 0x1
   187c8:	e1811012 	orr	r1, r1, r2, lsl r0
   187cc:	e1a03183 	lsl	r3, r3, #3
   187d0:	e0873003 	add	r3, r7, r3
   187d4:	e5932008 	ldr	r2, [r3, #8]
   187d8:	e585300c 	str	r3, [r5, #12]
   187dc:	e5852008 	str	r2, [r5, #8]
   187e0:	e5871004 	str	r1, [r7, #4]
   187e4:	e582500c 	str	r5, [r2, #12]
   187e8:	e5835008 	str	r5, [r3, #8]
   187ec:	eaffffd3 	b	18740 <_free_r+0x144>
   187f0:	e3110001 	tst	r1, #1	; 0x1
   187f4:	e086000e 	add	r0, r6, lr
   187f8:	1a000006 	bne	18818 <_free_r+0x21c>
   187fc:	e5141008 	ldr	r1, [r4, #-8]
   18800:	e0615005 	rsb	r5, r1, r5
   18804:	e595200c 	ldr	r2, [r5, #12]
   18808:	e5953008 	ldr	r3, [r5, #8]
   1880c:	e5823008 	str	r3, [r2, #8]
   18810:	e583200c 	str	r2, [r3, #12]
   18814:	e0800001 	add	r0, r0, r1
   18818:	e59f304c 	ldr	r3, [pc, #76]	; 1886c <_free_r+0x270>
   1881c:	e5932000 	ldr	r2, [r3]
   18820:	e3803001 	orr	r3, r0, #1	; 0x1
   18824:	e1500002 	cmp	r0, r2
   18828:	e5875008 	str	r5, [r7, #8]
   1882c:	e5853004 	str	r3, [r5, #4]
   18830:	3affffc2 	bcc	18740 <_free_r+0x144>
   18834:	e59f3034 	ldr	r3, [pc, #52]	; 18870 <_free_r+0x274>
   18838:	e1a00008 	mov	r0, r8
   1883c:	e5931000 	ldr	r1, [r3]
   18840:	ebffff2f 	bl	18504 <_malloc_trim_r>
   18844:	eaffffbd 	b	18740 <_free_r+0x144>
   18848:	e5973004 	ldr	r3, [r7, #4]
   1884c:	e1a01141 	asr	r1, r1, #2
   18850:	e3a02001 	mov	r2, #1	; 0x1
   18854:	e1833112 	orr	r3, r3, r2, lsl r1
   18858:	e5873004 	str	r3, [r7, #4]
   1885c:	e1a03000 	mov	r3, r0
   18860:	eaffffb2 	b	18730 <_free_r+0x134>
   18864:	40000080 	.word	0x40000080
   18868:	40000088 	.word	0x40000088
   1886c:	40000488 	.word	0x40000488
   18870:	40001204 	.word	0x40001204

00018874 <__aeabi_uidiv>:
   18874:	e2512001 	subs	r2, r1, #1	; 0x1
   18878:	012fff1e 	bxeq	lr
   1887c:	3a000036 	bcc	1895c <__aeabi_uidiv+0xe8>
   18880:	e1500001 	cmp	r0, r1
   18884:	9a000022 	bls	18914 <__aeabi_uidiv+0xa0>
   18888:	e1110002 	tst	r1, r2
   1888c:	0a000023 	beq	18920 <__aeabi_uidiv+0xac>
   18890:	e311020e 	tst	r1, #-536870912	; 0xe0000000
   18894:	01a01181 	lsleq	r1, r1, #3
   18898:	03a03008 	moveq	r3, #8	; 0x8
   1889c:	13a03001 	movne	r3, #1	; 0x1
   188a0:	e3510201 	cmp	r1, #268435456	; 0x10000000
   188a4:	31510000 	cmpcc	r1, r0
   188a8:	31a01201 	lslcc	r1, r1, #4
   188ac:	31a03203 	lslcc	r3, r3, #4
   188b0:	3afffffa 	bcc	188a0 <__aeabi_uidiv+0x2c>
   188b4:	e3510102 	cmp	r1, #-2147483648	; 0x80000000
   188b8:	31510000 	cmpcc	r1, r0
   188bc:	31a01081 	lslcc	r1, r1, #1
   188c0:	31a03083 	lslcc	r3, r3, #1
   188c4:	3afffffa 	bcc	188b4 <__aeabi_uidiv+0x40>
   188c8:	e3a02000 	mov	r2, #0	; 0x0
   188cc:	e1500001 	cmp	r0, r1
   188d0:	20400001 	subcs	r0, r0, r1
   188d4:	21822003 	orrcs	r2, r2, r3
   188d8:	e15000a1 	cmp	r0, r1, lsr #1
   188dc:	204000a1 	subcs	r0, r0, r1, lsr #1
   188e0:	218220a3 	orrcs	r2, r2, r3, lsr #1
   188e4:	e1500121 	cmp	r0, r1, lsr #2
   188e8:	20400121 	subcs	r0, r0, r1, lsr #2
   188ec:	21822123 	orrcs	r2, r2, r3, lsr #2
   188f0:	e15001a1 	cmp	r0, r1, lsr #3
   188f4:	204001a1 	subcs	r0, r0, r1, lsr #3
   188f8:	218221a3 	orrcs	r2, r2, r3, lsr #3
   188fc:	e3500000 	cmp	r0, #0	; 0x0
   18900:	11b03223 	lsrsne	r3, r3, #4
   18904:	11a01221 	lsrne	r1, r1, #4
   18908:	1affffef 	bne	188cc <__aeabi_uidiv+0x58>
   1890c:	e1a00002 	mov	r0, r2
   18910:	e12fff1e 	bx	lr
   18914:	03a00001 	moveq	r0, #1	; 0x1
   18918:	13a00000 	movne	r0, #0	; 0x0
   1891c:	e12fff1e 	bx	lr
   18920:	e3510801 	cmp	r1, #65536	; 0x10000
   18924:	21a01821 	lsrcs	r1, r1, #16
   18928:	23a02010 	movcs	r2, #16	; 0x10
   1892c:	33a02000 	movcc	r2, #0	; 0x0
   18930:	e3510c01 	cmp	r1, #256	; 0x100
   18934:	21a01421 	lsrcs	r1, r1, #8
   18938:	22822008 	addcs	r2, r2, #8	; 0x8
   1893c:	e3510010 	cmp	r1, #16	; 0x10
   18940:	21a01221 	lsrcs	r1, r1, #4
   18944:	22822004 	addcs	r2, r2, #4	; 0x4
   18948:	e3510004 	cmp	r1, #4	; 0x4
   1894c:	82822003 	addhi	r2, r2, #3	; 0x3
   18950:	908220a1 	addls	r2, r2, r1, lsr #1
   18954:	e1a00230 	lsr	r0, r0, r2
   18958:	e12fff1e 	bx	lr
   1895c:	e52de008 	str	lr, [sp, #-8]!
   18960:	eb0000c3 	bl	18c74 <__aeabi_idiv0>
   18964:	e3a00000 	mov	r0, #0	; 0x0
   18968:	e49df008 	ldr	pc, [sp], #8

0001896c <__aeabi_uidivmod>:
   1896c:	e92d4003 	push	{r0, r1, lr}
   18970:	ebffffbf 	bl	18874 <__aeabi_uidiv>
   18974:	e8bd4006 	pop	{r1, r2, lr}
   18978:	e0030092 	mul	r3, r2, r0
   1897c:	e0411003 	sub	r1, r1, r3
   18980:	e12fff1e 	bx	lr

00018984 <__aeabi_idiv>:
   18984:	e3510000 	cmp	r1, #0	; 0x0
   18988:	e020c001 	eor	ip, r0, r1
   1898c:	0a000042 	beq	18a9c <__aeabi_idiv+0x118>
   18990:	42611000 	rsbmi	r1, r1, #0	; 0x0
   18994:	e2512001 	subs	r2, r1, #1	; 0x1
   18998:	0a000027 	beq	18a3c <__aeabi_idiv+0xb8>
   1899c:	e1b03000 	movs	r3, r0
   189a0:	42603000 	rsbmi	r3, r0, #0	; 0x0
   189a4:	e1530001 	cmp	r3, r1
   189a8:	9a000026 	bls	18a48 <__aeabi_idiv+0xc4>
   189ac:	e1110002 	tst	r1, r2
   189b0:	0a000028 	beq	18a58 <__aeabi_idiv+0xd4>
   189b4:	e311020e 	tst	r1, #-536870912	; 0xe0000000
   189b8:	01a01181 	lsleq	r1, r1, #3
   189bc:	03a02008 	moveq	r2, #8	; 0x8
   189c0:	13a02001 	movne	r2, #1	; 0x1
   189c4:	e3510201 	cmp	r1, #268435456	; 0x10000000
   189c8:	31510003 	cmpcc	r1, r3
   189cc:	31a01201 	lslcc	r1, r1, #4
   189d0:	31a02202 	lslcc	r2, r2, #4
   189d4:	3afffffa 	bcc	189c4 <__aeabi_idiv+0x40>
   189d8:	e3510102 	cmp	r1, #-2147483648	; 0x80000000
   189dc:	31510003 	cmpcc	r1, r3
   189e0:	31a01081 	lslcc	r1, r1, #1
   189e4:	31a02082 	lslcc	r2, r2, #1
   189e8:	3afffffa 	bcc	189d8 <__aeabi_idiv+0x54>
   189ec:	e3a00000 	mov	r0, #0	; 0x0
   189f0:	e1530001 	cmp	r3, r1
   189f4:	20433001 	subcs	r3, r3, r1
   189f8:	21800002 	orrcs	r0, r0, r2
   189fc:	e15300a1 	cmp	r3, r1, lsr #1
   18a00:	204330a1 	subcs	r3, r3, r1, lsr #1
   18a04:	218000a2 	orrcs	r0, r0, r2, lsr #1
   18a08:	e1530121 	cmp	r3, r1, lsr #2
   18a0c:	20433121 	subcs	r3, r3, r1, lsr #2
   18a10:	21800122 	orrcs	r0, r0, r2, lsr #2
   18a14:	e15301a1 	cmp	r3, r1, lsr #3
   18a18:	204331a1 	subcs	r3, r3, r1, lsr #3
   18a1c:	218001a2 	orrcs	r0, r0, r2, lsr #3
   18a20:	e3530000 	cmp	r3, #0	; 0x0
   18a24:	11b02222 	lsrsne	r2, r2, #4
   18a28:	11a01221 	lsrne	r1, r1, #4
   18a2c:	1affffef 	bne	189f0 <__aeabi_idiv+0x6c>
   18a30:	e35c0000 	cmp	ip, #0	; 0x0
   18a34:	42600000 	rsbmi	r0, r0, #0	; 0x0
   18a38:	e12fff1e 	bx	lr
   18a3c:	e13c0000 	teq	ip, r0
   18a40:	42600000 	rsbmi	r0, r0, #0	; 0x0
   18a44:	e12fff1e 	bx	lr
   18a48:	33a00000 	movcc	r0, #0	; 0x0
   18a4c:	01a00fcc 	asreq	r0, ip, #31
   18a50:	03800001 	orreq	r0, r0, #1	; 0x1
   18a54:	e12fff1e 	bx	lr
   18a58:	e3510801 	cmp	r1, #65536	; 0x10000
   18a5c:	21a01821 	lsrcs	r1, r1, #16
   18a60:	23a02010 	movcs	r2, #16	; 0x10
   18a64:	33a02000 	movcc	r2, #0	; 0x0
   18a68:	e3510c01 	cmp	r1, #256	; 0x100
   18a6c:	21a01421 	lsrcs	r1, r1, #8
   18a70:	22822008 	addcs	r2, r2, #8	; 0x8
   18a74:	e3510010 	cmp	r1, #16	; 0x10
   18a78:	21a01221 	lsrcs	r1, r1, #4
   18a7c:	22822004 	addcs	r2, r2, #4	; 0x4
   18a80:	e3510004 	cmp	r1, #4	; 0x4
   18a84:	82822003 	addhi	r2, r2, #3	; 0x3
   18a88:	908220a1 	addls	r2, r2, r1, lsr #1
   18a8c:	e35c0000 	cmp	ip, #0	; 0x0
   18a90:	e1a00233 	lsr	r0, r3, r2
   18a94:	42600000 	rsbmi	r0, r0, #0	; 0x0
   18a98:	e12fff1e 	bx	lr
   18a9c:	e52de008 	str	lr, [sp, #-8]!
   18aa0:	eb000073 	bl	18c74 <__aeabi_idiv0>
   18aa4:	e3a00000 	mov	r0, #0	; 0x0
   18aa8:	e49df008 	ldr	pc, [sp], #8

00018aac <__aeabi_idivmod>:
   18aac:	e92d4003 	push	{r0, r1, lr}
   18ab0:	ebffffb3 	bl	18984 <__aeabi_idiv>
   18ab4:	e8bd4006 	pop	{r1, r2, lr}
   18ab8:	e0030092 	mul	r3, r2, r0
   18abc:	e0411003 	sub	r1, r1, r3
   18ac0:	e12fff1e 	bx	lr

00018ac4 <__umodsi3>:
   18ac4:	e2512001 	subs	r2, r1, #1	; 0x1
   18ac8:	3a00002c 	bcc	18b80 <__umodsi3+0xbc>
   18acc:	11500001 	cmpne	r0, r1
   18ad0:	03a00000 	moveq	r0, #0	; 0x0
   18ad4:	81110002 	tsthi	r1, r2
   18ad8:	00000002 	andeq	r0, r0, r2
   18adc:	912fff1e 	bxls	lr
   18ae0:	e3a02000 	mov	r2, #0	; 0x0
   18ae4:	e3510201 	cmp	r1, #268435456	; 0x10000000
   18ae8:	31510000 	cmpcc	r1, r0
   18aec:	31a01201 	lslcc	r1, r1, #4
   18af0:	32822004 	addcc	r2, r2, #4	; 0x4
   18af4:	3afffffa 	bcc	18ae4 <__umodsi3+0x20>
   18af8:	e3510102 	cmp	r1, #-2147483648	; 0x80000000
   18afc:	31510000 	cmpcc	r1, r0
   18b00:	31a01081 	lslcc	r1, r1, #1
   18b04:	32822001 	addcc	r2, r2, #1	; 0x1
   18b08:	3afffffa 	bcc	18af8 <__umodsi3+0x34>
   18b0c:	e2522003 	subs	r2, r2, #3	; 0x3
   18b10:	ba00000e 	blt	18b50 <__umodsi3+0x8c>
   18b14:	e1500001 	cmp	r0, r1
   18b18:	20400001 	subcs	r0, r0, r1
   18b1c:	e15000a1 	cmp	r0, r1, lsr #1
   18b20:	204000a1 	subcs	r0, r0, r1, lsr #1
   18b24:	e1500121 	cmp	r0, r1, lsr #2
   18b28:	20400121 	subcs	r0, r0, r1, lsr #2
   18b2c:	e15001a1 	cmp	r0, r1, lsr #3
   18b30:	204001a1 	subcs	r0, r0, r1, lsr #3
   18b34:	e3500001 	cmp	r0, #1	; 0x1
   18b38:	e1a01221 	lsr	r1, r1, #4
   18b3c:	a2522004 	subsge	r2, r2, #4	; 0x4
   18b40:	aafffff3 	bge	18b14 <__umodsi3+0x50>
   18b44:	e3120003 	tst	r2, #3	; 0x3
   18b48:	13300000 	teqne	r0, #0	; 0x0
   18b4c:	0a00000a 	beq	18b7c <__umodsi3+0xb8>
   18b50:	e3720002 	cmn	r2, #2	; 0x2
   18b54:	ba000006 	blt	18b74 <__umodsi3+0xb0>
   18b58:	0a000002 	beq	18b68 <__umodsi3+0xa4>
   18b5c:	e1500001 	cmp	r0, r1
   18b60:	20400001 	subcs	r0, r0, r1
   18b64:	e1a010a1 	lsr	r1, r1, #1
   18b68:	e1500001 	cmp	r0, r1
   18b6c:	20400001 	subcs	r0, r0, r1
   18b70:	e1a010a1 	lsr	r1, r1, #1
   18b74:	e1500001 	cmp	r0, r1
   18b78:	20400001 	subcs	r0, r0, r1
   18b7c:	e12fff1e 	bx	lr
   18b80:	e52de008 	str	lr, [sp, #-8]!
   18b84:	eb00003a 	bl	18c74 <__aeabi_idiv0>
   18b88:	e3a00000 	mov	r0, #0	; 0x0
   18b8c:	e49df008 	ldr	pc, [sp], #8

00018b90 <__modsi3>:
   18b90:	e3510000 	cmp	r1, #0	; 0x0
   18b94:	0a000032 	beq	18c64 <__modsi3+0xd4>
   18b98:	42611000 	rsbmi	r1, r1, #0	; 0x0
   18b9c:	e1b0c000 	movs	ip, r0
   18ba0:	42600000 	rsbmi	r0, r0, #0	; 0x0
   18ba4:	e2512001 	subs	r2, r1, #1	; 0x1
   18ba8:	11500001 	cmpne	r0, r1
   18bac:	03a00000 	moveq	r0, #0	; 0x0
   18bb0:	81110002 	tsthi	r1, r2
   18bb4:	00000002 	andeq	r0, r0, r2
   18bb8:	9a000026 	bls	18c58 <__modsi3+0xc8>
   18bbc:	e3a02000 	mov	r2, #0	; 0x0
   18bc0:	e3510201 	cmp	r1, #268435456	; 0x10000000
   18bc4:	31510000 	cmpcc	r1, r0
   18bc8:	31a01201 	lslcc	r1, r1, #4
   18bcc:	32822004 	addcc	r2, r2, #4	; 0x4
   18bd0:	3afffffa 	bcc	18bc0 <__modsi3+0x30>
   18bd4:	e3510102 	cmp	r1, #-2147483648	; 0x80000000
   18bd8:	31510000 	cmpcc	r1, r0
   18bdc:	31a01081 	lslcc	r1, r1, #1
   18be0:	32822001 	addcc	r2, r2, #1	; 0x1
   18be4:	3afffffa 	bcc	18bd4 <__modsi3+0x44>
   18be8:	e2522003 	subs	r2, r2, #3	; 0x3
   18bec:	ba00000e 	blt	18c2c <__modsi3+0x9c>
   18bf0:	e1500001 	cmp	r0, r1
   18bf4:	20400001 	subcs	r0, r0, r1
   18bf8:	e15000a1 	cmp	r0, r1, lsr #1
   18bfc:	204000a1 	subcs	r0, r0, r1, lsr #1
   18c00:	e1500121 	cmp	r0, r1, lsr #2
   18c04:	20400121 	subcs	r0, r0, r1, lsr #2
   18c08:	e15001a1 	cmp	r0, r1, lsr #3
   18c0c:	204001a1 	subcs	r0, r0, r1, lsr #3
   18c10:	e3500001 	cmp	r0, #1	; 0x1
   18c14:	e1a01221 	lsr	r1, r1, #4
   18c18:	a2522004 	subsge	r2, r2, #4	; 0x4
   18c1c:	aafffff3 	bge	18bf0 <__modsi3+0x60>
   18c20:	e3120003 	tst	r2, #3	; 0x3
   18c24:	13300000 	teqne	r0, #0	; 0x0
   18c28:	0a00000a 	beq	18c58 <__modsi3+0xc8>
   18c2c:	e3720002 	cmn	r2, #2	; 0x2
   18c30:	ba000006 	blt	18c50 <__modsi3+0xc0>
   18c34:	0a000002 	beq	18c44 <__modsi3+0xb4>
   18c38:	e1500001 	cmp	r0, r1
   18c3c:	20400001 	subcs	r0, r0, r1
   18c40:	e1a010a1 	lsr	r1, r1, #1
   18c44:	e1500001 	cmp	r0, r1
   18c48:	20400001 	subcs	r0, r0, r1
   18c4c:	e1a010a1 	lsr	r1, r1, #1
   18c50:	e1500001 	cmp	r0, r1
   18c54:	20400001 	subcs	r0, r0, r1
   18c58:	e35c0000 	cmp	ip, #0	; 0x0
   18c5c:	42600000 	rsbmi	r0, r0, #0	; 0x0
   18c60:	e12fff1e 	bx	lr
   18c64:	e52de008 	str	lr, [sp, #-8]!
   18c68:	eb000001 	bl	18c74 <__aeabi_idiv0>
   18c6c:	e3a00000 	mov	r0, #0	; 0x0
   18c70:	e49df008 	ldr	pc, [sp], #8

00018c74 <__aeabi_idiv0>:
   18c74:	e12fff1e 	bx	lr

00018c78 <welcome>:
   18c78:	676e6f53 73694c20 0d0a3a74 00000000     Song List:......
   18c88:	00000000 69460000                                ......

00018c8e <NotFound>:
   18c8e:	656c6946 746f4e20 756f4620 5521646e              File Not Found!

00018c9d <USB>:
   18c9d:	20425355 6e6e6f43 65746365 000a2164              USB Connected!

00018cab <newline>:
   18cab:	6f56000a                                         ..

00018cad <volume>:
   18cad:	756c6f56 4300656d                                Volume.

00018cb4 <contrast>:
   18cb4:	746e6f43 74736172 64615200                       Contrast.

00018cbd <radio_power>:
   18cbd:	69646152 6f50206f 52726577                       Radio Power

00018cc8 <radio_channel_menu>:
   18cc8:	69646152 6843206f 656e6e61 7465536c              Radio Channel

00018cd5 <settings>:
   18cd5:	74746553 73676e69 0000003a                       Settings:.

00018cdf <text_array>:
   18cdf:	00000000 f6f60000 e0000000 2800e000     ...............(
   18cef:	28fe28fe 54d66400 10ccc208 b24cc626     .(.(.d.T....&.L.
   18cff:	000a6c92 0000e000 82443800 44820000     .l.......8D....D
   18d0f:	50880038 088850f8 08083e08 06050000     8..P.P...>......
   18d1f:	08080800 00000808 02000606 8060100c     ..............`.
   18d2f:	a2928a7c fe42007c 86420002 4462928a     |...|.B...B...bD
   18d3f:	6c929282 fe503010 a2a2e410 523c9ca2     ...l.0P.......<R
   18d4f:	800c9292 80e09886 9292926c 9292606c     ........l...l`..
   18d5f:	00007894 00003636 00363500 82442810     .x..66...56..(D.
   18d6f:	28282800 82002828 40102844 60908a80     .(((((..D(.@...`
   18d7f:	baba827c 88483e62 92fe3e48 7c6c9292     |...b>H.H>....l|
   18d8f:	44828282 828282fe 9292fe7c 90fe8292     ...D....|.......
   18d9f:	7c809090 4e8a8282 101010fe fe8282fe     ...|...N........
   18daf:	82848282 fe8080fc 82442810 020202fe     .........(D.....
   18dbf:	2040fe02 60fefe40 7cfe0c10 7c828282     ..@ @..`...|...|
   18dcf:	909090fe 82827c60 90fe7e86 64629498     ....`|...~....bd
   18ddf:	4c929292 80fe8080 0202fc80 04f8fc02     ...L............
   18def:	fcf80402 fc020c02 281028c6 1e20c0c6     .........(.(.. .
   18dff:	8a86c020 00c2a292 0082fe00 00000000      ...............
   18e0f:	10608000 4020020c 01204080 01010101     ..`... @.@ .....
   18e1f:	00204080 2a2a0400 12fe1e2a 1c1c2222     .@ ...***...""..
   18e2f:	14222222 1222221c 2a2a1cfe 7e10182a     """..""...***..~
   18e3f:	18408090 1e252525 101010fe 5e12000e     ..@.%%%........^
   18e4f:	01020002 fe5e1101 22140808 02fe8200     ......^...."....
   18e5f:	1c203e00 203e1e20 1c1e2020 1c222222     .> . .>   ..""".
   18e6f:	2424243f 24241818 103e013f 12102020     ?$$$..$$?.>.  ..
   18e7f:	042a2a2a 123c1000 02023c04 0c303e02     ***...<..<...>0.
   18e8f:	38300c02 38061806 14081422 05053822     ..08...8"..."8..
   18e9f:	26223e05 0022322a 82826c10 02ff0204     .>"&*2"..l......
   18eaf:	6c828204 10080010 00100818                       ...l.......

00018eba <logo_spark>:
	...
   18ec2:	00000078 00000000 00000000 00000000     x...............
   18ed2:	000000f0 00000000 00000000 01000000     ................
   18ee2:	000000e0 00000000 00000000 01000000     ................
   18ef2:	000000e0 00000000 00000000 01000000     ................
   18f02:	000000f0 00000000 00000000 00000000     ................
   18f12:	000080fb 00000000 00000000 00000000     ................
   18f22:	000080ff 00000000 00000000 00000000     ................
   18f32:	0000807f 00000000 00000000 0c000000     ................
   18f42:	0000c03f 00000000 00000000 1c000000     ?...............
   18f52:	0000c03f 00000000 00000000 3c000000     ?..............<
   18f62:	0000c07f 00000000 00000000 3f000000     ...............?
   18f72:	000080ff 00000000 00000000 3f000000     ...............?
   18f82:	000080ff 00000000 00000000 3f000000     ...............?
   18f92:	000080ff 00000000 00000000 3f000000     ...............?
   18fa2:	000000ff 00000000 00000000 3f000000     ...............?
   18fb2:	000000fe 00000000 00000000 3f000000     ...............?
   18fc2:	000000fc 00000000 00000000 3f000000     ...............?
   18fd2:	000000e0 00000000 00000000 3e000000     ...............>
	...
   18fee:	3c000000 00000000 00000000 00000000     ...<............
   18ffe:	38000000 00000000 00000000 00000000     ...8............
   1900e:	30000000 0000000f 00000000 00000000     ...0............
   1901e:	200e0000 0000001f 00000000 00000000     ... ............
   1902e:	001e0000 0000003f 00000000 00000000     ....?...........
   1903e:	001e0000 0000003c 00000000 00000000     ....<...........
   1904e:	001e0000 0000003c 00000000 019fe00f     ....<...........
   1905e:	1e9e09fc 9f73707f 00000000 87fff13f     .....ps.....?...
   1906e:	3dde3ffe fff378ff 00000080 c7fff93c     .?.=.x......<...
   1907e:	79de3fdf fff378ff 000000c0 cfc37978     .?.y.x......xy..
   1908e:	f01c3f0f e3f3783c 000000c0 e0c1017c     .?..<x......|...
   1909e:	e01f3e0f c3f3783c 000000c0 e081c13f     .>..<x......?...
   190ae:	e01f3c3f c1f3783c 000000c0 e381f11f     ?<..<x..........
   190be:	e01f3cff c1f3783c 000000c0 e781f907     .<..<x..........
   190ce:	f01f3cef c1f3783c 000000c0 ef81f900     .<..<x..........
   190de:	f81e3c07 c1f3783c 000000c0 efc17978     .<..<x......xy..
   190ee:	781e3c0f c1f3783c 000000c0 cfe37978     .<.x<x......xy..
   190fe:	3c1e3c0f c1f37c3c 000000c0 cffff93f     .<.<<|......?...
   1910e:	3e1e3cff c1f37f3c 000000cf 87fff11f     .<.><...........
   1911e:	1e1e3cff c1f33f3c 000000c7 039ec107     .<..<?..........
   1912e:	020000e0 00200e00 00000000 00800100     ...... .........
	...
   1914a:	00800100 00000000 00000000 00000000     ................
   1915a:	00800300 00c00000 00001800 00000808     ................
   1916a:	c3870100 f0e1e003 08333ef8 00001e3e     .........>3.>...
   1917a:	03860100 e0b00103 083b66dc 00003266     .........f;.f2..
   1918a:	c3870000 4080e103 083b63d8 00003c60     .......@.c;.`<..
   1919a:	83870000 4080c103 083f63f8 00000e60     .......@.c?.`...
   191aa:	03060000 40b00103 083766d8 00003266     .......@.f7.f2..
   191ba:	c3070000 40e0e0e3 08333ec8 00003e3e     .......@.>3.>>..
   191ca:	c3070000 40e0e0e3 08333c88 00001e3c     .......@.<3.<...
	...

0001931a <abSense>:
   1931a:	00ff0070 0a000000 00000000 0000ffff     p...............
	...

0001932c <abInquiry>:
   1932c:	02048000 0000001f 5543504c 20204253     ........LPCUSB  
   1933c:	7373614d 6f747320 65676172 20202020     Mass storage    
   1934c:	20312e30                                0.1 

00019350 <_global_impure_ptr>:
   19350:	40000494 4f006425 4f006666 4453006e     ...@%d.Off.On.SD
   19360:	696e4920 72452074 0a726f72 20445300      Init Error..SD 
   19370:	6e65704f 746f6f52 72724520 000a726f     OpenRoot Error..
   19380:	47204f47 504d204f 00002133 756e616d     GO GO MP3!..manu
   19390:	20203a66 30257830 0d0a7832 00000000     f:  0x%02x......
   193a0:	3a6d656f 20202020 0d0a7325 00000000     oem:    %s......
   193b0:	646f7270 2020203a 0d0a7325 00000000     prod:   %s......
   193c0:	3a766572 20202020 78323025 00000d0a     rev:    %02x....
   193d0:	69726573 203a6c61 30257830 0a786c38     serial: 0x%08lx.
   193e0:	0000000d 65746164 2020203a 64323025     ....date:   %02d
   193f0:	3230252f 000d0a64 657a6973 2020203a     /%02d...size:   
   19400:	0a646c25 0000000d 79706f63 2020203a     %ld.....copy:   
   19410:	0d0a6425 00000000 702e7277 203a2e72     %d......wr.pr.: 
   19420:	252f6425 000d0a64 6d726f66 203a7461     %d/%d...format: 
   19430:	0d0a6425 00000000 65657266 2020203a     %d......free:   
   19440:	2f646c25 0a646c25 0000000d 6e65706f     %ld/%ld.....open
   19450:	20676e69 74726170 6f697469 6166206e     ing partition fa
   19460:	64656c69 00000d0a 6e65706f 20676e69     iled....opening 
   19470:	656c6966 74737973 66206d65 656c6961     filesystem faile
   19480:	000d0a64 0000002f 6e65706f 20676e69     d.../...opening 
   19490:	746f6f72 72696420 6f746365 66207972     root directory f
   194a0:	656c6961 000d0a64 52204453 4e205741     ailed...SD RAW N
   194b0:	4120544f 4c494156 454c4241 00000d0a     OT AVAILABLE....
   194c0:	64253d69 6572202c 6e6f7073 253d6573     i=%d, response=%
   194d0:	000d0a64 65720d0a 6e6f7073 203a6573     d.....response: 
   194e0:	0d0a6425 00000000 203d2069 66377830     %d......i = 0x7f
   194f0:	0d0a6666 00000000 434f4c42 4953204b     ff......BLOCK SI
   19500:	5320455a 45205445 0a205252 0000000d     ZE SET ERR .....
   19510:	725f6473 725f7761 20646165 6b726f62     sd_raw_read bork
   19520:	000d0a73 4c4c414d 4620434f 534c4941     s...MALLOC FAILS
   19530:	00000d0a 6c696146 52206465 69646165     ....Failed Readi
   19540:	4820676e 65646165 000d0a72 74696e49     ng Header...Init
   19550:	696c6169 676e6973 42535520 61747320     ialising USB sta
   19560:	000a6b63 72617453 676e6974 42535520     ck..Starting USB
   19570:	6d6f6320 696e756d 69746163 000a6e6f      communication..
   19580:	3a445343 00000000 32302520 00000078     CSD:.... %02x...
   19590:	75677241 746e656d 74756f20 20666f20     Argument out of 
   195a0:	6e756f62 0a2e7364 00000000 72646441     bounds......Addr
   195b0:	20737365 2074756f 6220666f 646e756f     ess out of bound
   195c0:	000a2e73 6f727245 75642072 676e6972     s...Error during
   195d0:	61726520 73206573 65757165 2e65636e      erase sequence.
   195e0:	0000000a 20435243 6c696166 0a2e6465     ....CRC failed..
   195f0:	00000000 656c6c49 206c6167 6d6d6f63     ....Illegal comm
   19600:	2e646e61 0000000a 73617245 65722065     and.....Erase re
   19610:	20746573 65657328 6e615320 6b736944     set (see SanDisk
   19620:	636f6420 35702073 2933312d 00000a2e      docs p5-13)....
   19630:	0000002e 6e6b6e55 206e776f 6f727265     ....Unknown erro
   19640:	78302072 28207825 20656573 446e6153     r 0x%x (see SanD
   19650:	206b7369 73636f64 2d357020 2e293331     isk docs p5-13).
   19660:	0000000a 70736572 6678303d 00000a66     ....resp=0xff...
   19670:	70736572 78303d21 000a6666 64726143     resp!=0xff..Card
   19680:	20736920 6b636f4c 0a2e6465 00000000      is Locked......
   19690:	45205057 65736172 696b5320 4c202c70     WP Erase Skip, L
   196a0:	2f6b636f 6f6c6e55 43206b63 4620646d     ock/Unlock Cmd F
   196b0:	656c6961 000a2e64 656e6547 206c6172     ailed...General 
   196c0:	6e55202f 776f6e6b 7265206e 20726f72     / Unknown error 
   196d0:	63202d2d 20647261 6b6f7262 2e3f6e65     -- card broken?.
   196e0:	0000000a 65746e49 6c616e72 72616320     ....Internal car
   196f0:	6f632064 6f72746e 72656c6c 72726520     d controller err
   19700:	0a2e726f 00000000 64726143 746e6920     or......Card int
   19710:	616e7265 4345206c 61772043 70612073     ernal ECC was ap
   19720:	65696c70 62202c64 66207475 656c6961     plied, but faile
   19730:	6f742064 726f6320 74636572 65687420     d to correct the
   19740:	74616420 000a2e61 74697257 72702065      data...Write pr
   19750:	6365746f 69762074 74616c6f 2e6e6f69     otect violation.
   19760:	0000000a 69206e41 6c61766e 73206469     ....An invalid s
   19770:	63656c65 6e6f6974 6573202c 726f7463     election, sector
   19780:	6f662073 72652072 2e657361 0000000a     s for erase.....
   19790:	2074754f 5220666f 65676e61 5343202c     Out of Range, CS
   197a0:	764f5f44 72777265 2e657469 0000000a     D_Overwrite.....
   197b0:	6e6b6e55 206e776f 6f727265 30203a72     Unknown error: 0
   197c0:	20782578 65657328 6e615320 6b736944     x%x (see SanDisk
   197d0:	636f6420 35702073 2934312d 00000a2e      docs p5-14)....
   197e0:	49204453 2074696e 656e6f64 0a2e2e2e     SD Init done....
   197f0:	00000000 64726143 64696420 2074276e     ....Card didn't 
   19800:	75746572 74206e72 72206568 79646165     return the ready
   19810:	61747320 202c6574 61657262 676e696b      state, breaking
   19820:	2e707520 000a2e2e 49697073 2074696e      up.....spiInit 
   19830:	20726f66 28495053 000a2930 00000043     for SPI(0)..C...
